 3D - final

 Timestamp is 41f156af (Fri Jan 21 21:23:27 2005)

 Preferred load address is 00400000

 Start         Length     Name                   Class
 0001:00000000 00066d78H .text                   CODE
 0001:00066d80 0000003fH .text$x                 CODE
 0001:00066dc0 00000050H .text$yc                CODE
 0001:00066e10 00000010H .text$yd                CODE
 0002:00000000 0000021cH .idata$5                DATA
 0002:00000220 00014c34H .rdata                  DATA
 0002:00014e54 00000045H .rdata$debug            DATA
 0002:00014e9c 00000004H .rtc$IAA                DATA
 0002:00014ea0 00000004H .rtc$IZZ                DATA
 0002:00014ea4 00000004H .rtc$TAA                DATA
 0002:00014ea8 00000004H .rtc$TZZ                DATA
 0002:00014eac 00000098H .xdata$x                DATA
 0002:00014f44 000000b4H .idata$2                DATA
 0002:00014ff8 00000014H .idata$3                DATA
 0002:0001500c 0000021cH .idata$4                DATA
 0002:00015228 00000906H .idata$6                DATA
 0002:00015b2e 00000000H .edata                  DATA
 0003:00000000 00000004H .CRT$XCA                DATA
 0003:00000004 00000004H .CRT$XCAA               DATA
 0003:00000008 0000000cH .CRT$XCU                DATA
 0003:00000014 00000004H .CRT$XCZ                DATA
 0003:00000018 00000004H .CRT$XIA                DATA
 0003:0000001c 00000010H .CRT$XIC                DATA
 0003:0000002c 00000004H .CRT$XIY                DATA
 0003:00000030 00000004H .CRT$XIZ                DATA
 0003:00000034 00000004H .CRT$XPA                DATA
 0003:00000038 00000008H .CRT$XPX                DATA
 0003:00000040 00000004H .CRT$XPZ                DATA
 0003:00000044 00000004H .CRT$XTA                DATA
 0003:00000048 00000004H .CRT$XTB                DATA
 0003:0000004c 00000004H .CRT$XTZ                DATA
 0003:00000080 00016084H .data                   DATA
 0003:00016120 00008fd4H .bss                    DATA
 0004:00000000 000000d4H .rsrc$01                DATA
 0004:000000e0 000005c0H .rsrc$02                DATA

  Address         Publics by Value              Rva+Base     Lib:Object

 0000:00000000       __except_list              00000000     <absolute>
 0001:00000000       ?InitD3D@@YAJPAPAUIDirect3D9@@PAPAUIDirect3DDevice9@@PAUHWND__@@KKKHHH@Z 00401000 f   d3d.obj
 0001:00000250       ?LoadVertexShader@@YAJPAPAUIDirect3DVertexShader9@@PAUIDirect3DDevice9@@PADPAU_D3DVERTEXELEMENT9@@PAPAUIDirect3DVertexDeclaration9@@@Z 00401250 f   d3d.obj
 0001:000002f0       ??_H@YGXPAXIHP6EPAX0@Z@Z   004012f0 f i d3d.obj
 0001:00000320       ??0CD3DFont@@QAE@PBDKK@Z   00401320 f   d3dfont.obj
 0001:00000370       ?CreateGDIFont@CD3DFont@@AAEJPAUHDC__@@PAPAUHFONT__@@@Z 00401370 f   d3dfont.obj
 0001:00000400       ?PaintAlphabet@CD3DFont@@AAEJPAUHDC__@@H@Z 00401400 f   d3dfont.obj
 0001:00000600       ?InitDeviceObjects@CD3DFont@@QAEJPAUIDirect3DDevice9@@@Z 00401600 f   d3dfont.obj
 0001:000008f0       ?RestoreDeviceObjects@CD3DFont@@QAEJXZ 004018f0 f   d3dfont.obj
 0001:00000c40       ?DeleteDeviceObjects@CD3DFont@@QAEJXZ 00401c40 f   d3dfont.obj
 0001:00000c70       ?DrawTextA@CD3DFont@@QAEJMMKPBDK@Z 00401c70 f   d3dfont.obj
 0001:00001350       ?D3DUtil_InitMaterial@@YAXAAU_D3DMATERIAL9@@MMMM@Z 00402350 f   d3dutil.obj
 0001:000013a0       ?D3DUtil_InitLight@@YAXAAU_D3DLIGHT9@@W4_D3DLIGHTTYPE@@MMM@Z 004023a0 f   d3dutil.obj
 0001:00001410       ??1CMusicManager@@QAE@XZ   00402410 f   dmutil.obj
 0001:00001480       ?SetSearchDirectory@CMusicManager@@QAEJPBD@Z 00402480 f   dmutil.obj
 0001:00001510       ??0CMusicSegment@@QAE@PAUIDirectMusicPerformance8@@PAUIDirectMusicLoader8@@PAUIDirectMusicSegment8@@@Z 00402510 f   dmutil.obj
 0001:00001580       ??1CMusicSegment@@UAE@XZ   00402580 f   dmutil.obj
 0001:000015f0       ?Play@CMusicSegment@@UAEJKPAUIDirectMusicAudioPath@@@Z 004025f0 f   dmutil.obj
 0001:00001650       ?Download@CMusicSegment@@QAEJPAUIDirectMusicAudioPath@@@Z 00402650 f   dmutil.obj
 0001:000016a0       ?Initialize@CMusicManager@@QAEJPAUHWND__@@KKPAUIDirectSound@@@Z 004026a0 f   dmutil.obj
 0001:00001790       ?CreateSegmentFromResource@CMusicManager@@QAEJPAPAVCMusicSegment@@PAD1PAUHINSTANCE__@@HH@Z 00402790 f   dmutil.obj
 0001:00001930       ??_GCMusicSegment@@UAEPAXI@Z 00402930 f i dmutil.obj
 0001:00001930       ??_ECMusicSegment@@UAEPAXI@Z 00402930 f i dmutil.obj
 0001:00001950       ?InitAudio@@YA_NPAPAVCMusicManager@@PAUHWND__@@@Z 00402950 f   dmutil.obj
 0001:00001a20       ?InitInput@@YA_NPAUHWND__@@@Z 00402a20 f   dxinput.obj
 0001:00001aa0       ?UpdateInput@@YAXPAUUserInput@@@Z 00402aa0 f   dxinput.obj
 0001:00001b80       ?DXUtil_Timer@@YGMW4TIMER_COMMAND@@@Z 00402b80 f   dxutil.obj
 0001:00001f60       ?DXUtil_ConvertAnsiStringToWideCch@@YAJPAGPBDH@Z 00402f60 f   dxutil.obj
 0001:00001fb0       ?DXUtil_ConvertGenericStringToWideCb@@YAJPAGPBDH@Z 00402fb0 f   dxutil.obj
 0001:00001ff0       ??_GcParticle@@QAEPAXI@Z   00402ff0 f i particles.obj
 0001:00002030       ??0cParticleEmitter@@QAE@XZ 00403030 f   particles.obj
 0001:00002050       ?Create@cParticleEmitter@@QAEHPAUIDirect3DDevice9@@PAUD3DXVECTOR3@@KK@Z 00403050 f   particles.obj
 0001:000022e0       ?Free@cParticleEmitter@@QAEXXZ 004032e0 f   particles.obj
 0001:000023c0       ?Add@cParticleEmitter@@QAEXKPAUD3DXVECTOR3@@MKK0@Z 004033c0 f   particles.obj
 0001:00002440       ?Begin@cParticleEmitter@@QAEHPAUD3DXMATRIX@@0@Z 00403440 f   particles.obj
 0001:000025b0       ?Render@cParticleEmitter@@QAEXXZ 004035b0 f   particles.obj
 0001:00002860       ?End@cParticleEmitter@@QAEXXZ 00403860 f   particles.obj
 0001:00002880       ??1cParticleEmitter@@QAE@XZ 00403880 f   particles.obj
 0001:00002890       ??0C3DOBJECT@@QAE@XZ       00403890 f   cobject3d.obj
 0001:000028a0       ??0CPLANET@@QAE@XZ         004038a0 f   cplanet.obj
 0001:000028b0       ?Move@CPLANET@@QAEXM@Z     004038b0 f   cplanet.obj
 0001:000028f0       ??0CSHIP@@QAE@XZ           004038f0 f   cship.obj
 0001:00002910       ?Esc@@YA_NXZ               00403910 f   render.obj
 0001:00002920       ?Environment@@YAXXZ        00403920 f   render.obj
 0001:00002b50       ?PlanetsInit@@YAXXZ        00403b50 f   render.obj
 0001:00003030       ?ShipInit@@YAXXZ           00404030 f   render.obj
 0001:00003110       ?Control@@YAXXZ            00404110 f i render.obj
 0001:00003630       ?Update@@YAXXZ             00404630 f i render.obj
 0001:00003730       ?Render@@YAXXZ             00404730 f i render.obj
 0001:00003c90       ?CreateTextureFromResource@@YA_NPAUIDirect3DDevice9@@PBDPAPAUIDirect3DTexture9@@PAUHINSTANCE__@@@Z 00404c90 f   render.obj
 0001:00003d10       ?Install@@YA_NPAUHWND__@@HH_NH@Z 00404d10 f   render.obj
 0001:00004550       ?UnInstall@@YAXXZ          00405550 f   render.obj
 0001:000046b0       ?Idle@@YAXXZ               004056b0 f   render.obj
 0001:00004830       ?Error@@YAXPBD@Z           00405830 f   win32.obj
 0001:00004850       ?MsgProc@@YGJPAUHWND__@@IIJ@Z 00405850 f   win32.obj
 0001:000048e0       _WinMain@16                004058e0 f   win32.obj
 0001:00004b20       _Direct3DCreate9@4         00405b20 f   d3d9:d3d9.dll
 0001:00004b56       ?init_D3DXFloat32To16Array@@YGPAUD3DXFLOAT16@@PAU1@PBMI@Z 00405b56 f   d3dx9:d3dxmath.obj
 0001:00004b63       _D3DXFloat32To16Array@12   00405b63 f   d3dx9:d3dxmath.obj
 0001:00004b69       ?c_D3DXFloat32To16Array@@YGPAUD3DXFLOAT16@@PAU1@PBMI@Z 00405b69 f   d3dx9:d3dxmath.obj
 0001:00004bf8       ?init_D3DXFloat16To32Array@@YGPAMPAMPBUD3DXFLOAT16@@I@Z 00405bf8 f   d3dx9:d3dxmath.obj
 0001:00004c05       _D3DXFloat16To32Array@12   00405c05 f   d3dx9:d3dxmath.obj
 0001:00004c0b       ?c_D3DXFloat16To32Array@@YGPAMPAMPBUD3DXFLOAT16@@I@Z 00405c0b f   d3dx9:d3dxmath.obj
 0001:00004cb0       ?init_D3DXVec2Normalize@@YGPAUD3DXVECTOR2@@PAU1@PBU1@@Z 00405cb0 f   d3dx9:d3dxmath.obj
 0001:00004cbd       ?init_D3DXVec2Hermite@@YGPAUD3DXVECTOR2@@PAU1@PBU1@111M@Z 00405cbd f   d3dx9:d3dxmath.obj
 0001:00004ce7       ?c_D3DXVec2Hermite@@YGPAUD3DXVECTOR2@@PAU1@PBU1@111M@Z 00405ce7 f   d3dx9:d3dxmath.obj
 0001:00004d75       ?init_D3DXVec2CatmullRom@@YGPAUD3DXVECTOR2@@PAU1@PBU1@111M@Z 00405d75 f   d3dx9:d3dxmath.obj
 0001:00004d9f       ?c_D3DXVec2CatmullRom@@YGPAUD3DXVECTOR2@@PAU1@PBU1@111M@Z 00405d9f f   d3dx9:d3dxmath.obj
 0001:00004e4e       ?init_D3DXVec2BaryCentric@@YGPAUD3DXVECTOR2@@PAU1@PBU1@11MM@Z 00405e4e f   d3dx9:d3dxmath.obj
 0001:00004e7d       ?c_D3DXVec2BaryCentric@@YGPAUD3DXVECTOR2@@PAU1@PBU1@11MM@Z 00405e7d f   d3dx9:d3dxmath.obj
 0001:00004ec0       ?init_D3DXVec2Transform@@YGPAUD3DXVECTOR4@@PAU1@PBUD3DXVECTOR2@@PBUD3DXMATRIX@@@Z 00405ec0 f   d3dx9:d3dxmath.obj
 0001:00004ecd       _D3DXVec2Transform@12      00405ecd f   d3dx9:d3dxmath.obj
 0001:00004ed3       ?init_D3DXVec2TransformArray@@YGPAUD3DXVECTOR4@@PAU1@IPBUD3DXVECTOR2@@IPBUD3DXMATRIX@@I@Z 00405ed3 f   d3dx9:d3dxmath.obj
 0001:00004ee4       ?init_D3DXVec2TransformCoord@@YGPAUD3DXVECTOR2@@PAU1@PBU1@PBUD3DXMATRIX@@@Z 00405ee4 f   d3dx9:d3dxmath.obj
 0001:00004ef1       _D3DXVec2TransformCoord@12 00405ef1 f   d3dx9:d3dxmath.obj
 0001:00004ef7       ?init_D3DXVec2TransformCoordArray@@YGPAUD3DXVECTOR2@@PAU1@IPBU1@IPBUD3DXMATRIX@@I@Z 00405ef7 f   d3dx9:d3dxmath.obj
 0001:00004f08       ?init_D3DXVec2TransformNormal@@YGPAUD3DXVECTOR2@@PAU1@PBU1@PBUD3DXMATRIX@@@Z 00405f08 f   d3dx9:d3dxmath.obj
 0001:00004f15       _D3DXVec2TransformNormal@12 00405f15 f   d3dx9:d3dxmath.obj
 0001:00004f1b       ?init_D3DXVec2TransformNormalArray@@YGPAUD3DXVECTOR2@@PAU1@IPBU1@IPBUD3DXMATRIX@@I@Z 00405f1b f   d3dx9:d3dxmath.obj
 0001:00004f2c       ?init_D3DXVec3Normalize@@YGPAUD3DXVECTOR3@@PAU1@PBU1@@Z 00405f2c f   d3dx9:d3dxmath.obj
 0001:00004f39       _D3DXVec3Normalize@8       00405f39 f   d3dx9:d3dxmath.obj
 0001:00004f3f       ?init_D3DXVec3Hermite@@YGPAUD3DXVECTOR3@@PAU1@PBU1@111M@Z 00405f3f f   d3dx9:d3dxmath.obj
 0001:00004f69       ?c_D3DXVec3Hermite@@YGPAUD3DXVECTOR3@@PAU1@PBU1@111M@Z 00405f69 f   d3dx9:d3dxmath.obj
 0001:00005017       ?init_D3DXVec3CatmullRom@@YGPAUD3DXVECTOR3@@PAU1@PBU1@111M@Z 00406017 f   d3dx9:d3dxmath.obj
 0001:00005041       ?c_D3DXVec3CatmullRom@@YGPAUD3DXVECTOR3@@PAU1@PBU1@111M@Z 00406041 f   d3dx9:d3dxmath.obj
 0001:00005112       ?init_D3DXVec3BaryCentric@@YGPAUD3DXVECTOR3@@PAU1@PBU1@11MM@Z 00406112 f   d3dx9:d3dxmath.obj
 0001:00005141       ?c_D3DXVec3BaryCentric@@YGPAUD3DXVECTOR3@@PAU1@PBU1@11MM@Z 00406141 f   d3dx9:d3dxmath.obj
 0001:0000519e       ?init_D3DXVec3Transform@@YGPAUD3DXVECTOR4@@PAU1@PBUD3DXVECTOR3@@PBUD3DXMATRIX@@@Z 0040619e f   d3dx9:d3dxmath.obj
 0001:000051ab       ?c_D3DXVec3Transform@@YGPAUD3DXVECTOR4@@PAU1@PBUD3DXVECTOR3@@PBUD3DXMATRIX@@@Z 004061ab f   d3dx9:d3dxmath.obj
 0001:00005236       ?init_D3DXVec3TransformArray@@YGPAUD3DXVECTOR4@@PAU1@IPBUD3DXVECTOR3@@IPBUD3DXMATRIX@@I@Z 00406236 f   d3dx9:d3dxmath.obj
 0001:00005247       ?c_D3DXVec3TransformArray@@YGPAUD3DXVECTOR4@@PAU1@IPBUD3DXVECTOR3@@IPBUD3DXMATRIX@@I@Z 00406247 f   d3dx9:d3dxmath.obj
 0001:000052ee       ?init_D3DXVec3TransformCoord@@YGPAUD3DXVECTOR3@@PAU1@PBU1@PBUD3DXMATRIX@@@Z 004062ee f   d3dx9:d3dxmath.obj
 0001:000052fb       _D3DXVec3TransformCoord@12 004062fb f   d3dx9:d3dxmath.obj
 0001:00005301       ?init_D3DXVec3TransformCoordArray@@YGPAUD3DXVECTOR3@@PAU1@IPBU1@IPBUD3DXMATRIX@@I@Z 00406301 f   d3dx9:d3dxmath.obj
 0001:00005312       _D3DXVec3TransformCoordArray@24 00406312 f   d3dx9:d3dxmath.obj
 0001:00005318       ?init_D3DXVec3TransformNormal@@YGPAUD3DXVECTOR3@@PAU1@PBU1@PBUD3DXMATRIX@@@Z 00406318 f   d3dx9:d3dxmath.obj
 0001:00005325       _D3DXVec3TransformNormal@12 00406325 f   d3dx9:d3dxmath.obj
 0001:0000532b       ?c_D3DXVec3TransformNormal@@YGPAUD3DXVECTOR3@@PAU1@PBU1@PBUD3DXMATRIX@@@Z 0040632b f   d3dx9:d3dxmath.obj
 0001:00005391       ?init_D3DXVec3TransformNormalArray@@YGPAUD3DXVECTOR3@@PAU1@IPBU1@IPBUD3DXMATRIX@@I@Z 00406391 f   d3dx9:d3dxmath.obj
 0001:000053a2       ?c_D3DXVec3TransformNormalArray@@YGPAUD3DXVECTOR3@@PAU1@IPBU1@IPBUD3DXMATRIX@@I@Z 004063a2 f   d3dx9:d3dxmath.obj
 0001:00005420       ?init_D3DXVec3Project@@YGPAUD3DXVECTOR3@@PAU1@PBU1@PBU_D3DVIEWPORT9@@PBUD3DXMATRIX@@33@Z 00406420 f   d3dx9:d3dxmath.obj
 0001:00005431       ?init_D3DXVec3ProjectArray@@YGPAUD3DXVECTOR3@@PAU1@IPBU1@IPBU_D3DVIEWPORT9@@PBUD3DXMATRIX@@33I@Z 00406431 f   d3dx9:d3dxmath.obj
 0001:00005442       ?init_D3DXVec3Unproject@@YGPAUD3DXVECTOR3@@PAU1@PBU1@PBU_D3DVIEWPORT9@@PBUD3DXMATRIX@@33@Z 00406442 f   d3dx9:d3dxmath.obj
 0001:00005453       ?init_D3DXVec3UnprojectArray@@YGPAUD3DXVECTOR3@@PAU1@IPBU1@IPBU_D3DVIEWPORT9@@PBUD3DXMATRIX@@33I@Z 00406453 f   d3dx9:d3dxmath.obj
 0001:00005464       ?init_D3DXVec4Cross@@YGPAUD3DXVECTOR4@@PAU1@PBU1@11@Z 00406464 f   d3dx9:d3dxmath.obj
 0001:00005471       ?c_D3DXVec4Cross@@YGPAUD3DXVECTOR4@@PAU1@PBU1@11@Z 00406471 f   d3dx9:d3dxmath.obj
 0001:00005561       ?init_D3DXVec4Normalize@@YGPAUD3DXVECTOR4@@PAU1@PBU1@@Z 00406561 f   d3dx9:d3dxmath.obj
 0001:0000556e       _D3DXVec4Normalize@8       0040656e f   d3dx9:d3dxmath.obj
 0001:00005574       ?init_D3DXVec4Hermite@@YGPAUD3DXVECTOR4@@PAU1@PBU1@111M@Z 00406574 f   d3dx9:d3dxmath.obj
 0001:0000559e       ?c_D3DXVec4Hermite@@YGPAUD3DXVECTOR4@@PAU1@PBU1@111M@Z 0040659e f   d3dx9:d3dxmath.obj
 0001:0000566f       ?init_D3DXVec4CatmullRom@@YGPAUD3DXVECTOR4@@PAU1@PBU1@111M@Z 0040666f f   d3dx9:d3dxmath.obj
 0001:00005699       ?c_D3DXVec4CatmullRom@@YGPAUD3DXVECTOR4@@PAU1@PBU1@111M@Z 00406699 f   d3dx9:d3dxmath.obj
 0001:0000578c       ?init_D3DXVec4BaryCentric@@YGPAUD3DXVECTOR4@@PAU1@PBU1@11MM@Z 0040678c f   d3dx9:d3dxmath.obj
 0001:000057bb       ?c_D3DXVec4BaryCentric@@YGPAUD3DXVECTOR4@@PAU1@PBU1@11MM@Z 004067bb f   d3dx9:d3dxmath.obj
 0001:00005832       ?init_D3DXVec4Transform@@YGPAUD3DXVECTOR4@@PAU1@PBU1@PBUD3DXMATRIX@@@Z 00406832 f   d3dx9:d3dxmath.obj
 0001:0000583f       ?c_D3DXVec4Transform@@YGPAUD3DXVECTOR4@@PAU1@PBU1@PBUD3DXMATRIX@@@Z 0040683f f   d3dx9:d3dxmath.obj
 0001:000058de       ?init_D3DXVec4TransformArray@@YGPAUD3DXVECTOR4@@PAU1@IPBU1@IPBUD3DXMATRIX@@I@Z 004068de f   d3dx9:d3dxmath.obj
 0001:000058ef       ?c_D3DXVec4TransformArray@@YGPAUD3DXVECTOR4@@PAU1@IPBU1@IPBUD3DXMATRIX@@I@Z 004068ef f   d3dx9:d3dxmath.obj
 0001:000059ae       ?init_D3DXMatrixDeterminant@@YGMPBUD3DXMATRIX@@@Z 004069ae f   d3dx9:d3dxmath.obj
 0001:000059bb       ?c_D3DXMatrixDeterminant@@YGMPBUD3DXMATRIX@@@Z 004069bb f   d3dx9:d3dxmath.obj
 0001:00005a85       ?init_D3DXMatrixMultiply@@YGPAUD3DXMATRIX@@PAU1@PBU1@1@Z 00406a85 f   d3dx9:d3dxmath.obj
 0001:00005a92       _D3DXMatrixMultiply@12     00406a92 f   d3dx9:d3dxmath.obj
 0001:00005a98       ?c_D3DXMatrixMultiply@@YGPAUD3DXMATRIX@@PAU1@PBU1@1@Z 00406a98 f   d3dx9:d3dxmath.obj
 0001:00005cce       ?init_D3DXMatrixTranspose@@YGPAUD3DXMATRIX@@PAU1@PBU1@@Z 00406cce f   d3dx9:d3dxmath.obj
 0001:00005cdb       _D3DXMatrixTranspose@8     00406cdb f   d3dx9:d3dxmath.obj
 0001:00005ce1       ?c_D3DXMatrixTranspose@@YGPAUD3DXMATRIX@@PAU1@PBU1@@Z 00406ce1 f   d3dx9:d3dxmath.obj
 0001:00005d4e       ?init_D3DXMatrixMultiplyTranspose@@YGPAUD3DXMATRIX@@PAU1@PBU1@1@Z 00406d4e f   d3dx9:d3dxmath.obj
 0001:00005d5b       ?c_D3DXMatrixMultiplyTranspose@@YGPAUD3DXMATRIX@@PAU1@PBU1@1@Z 00406d5b f   d3dx9:d3dxmath.obj
 0001:00005f91       ?init_D3DXMatrixInverse@@YGPAUD3DXMATRIX@@PAU1@PAMPBU1@@Z 00406f91 f   d3dx9:d3dxmath.obj
 0001:00005f9e       _D3DXMatrixInverse@12      00406f9e f   d3dx9:d3dxmath.obj
 0001:00005fa4       ?c_D3DXMatrixInverse@@YGPAUD3DXMATRIX@@PAU1@PAMPBU1@@Z 00406fa4 f   d3dx9:d3dxmath.obj
 0001:00006343       ?init_D3DXMatrixScaling@@YGPAUD3DXMATRIX@@PAU1@MMM@Z 00407343 f   d3dx9:d3dxmath.obj
 0001:00006371       _D3DXMatrixScaling@16      00407371 f   d3dx9:d3dxmath.obj
 0001:00006377       ?c_D3DXMatrixScaling@@YGPAUD3DXMATRIX@@PAU1@MMM@Z 00407377 f   d3dx9:d3dxmath.obj
 0001:000063d3       ?init_D3DXMatrixTranslation@@YGPAUD3DXMATRIX@@PAU1@MMM@Z 004073d3 f   d3dx9:d3dxmath.obj
 0001:00006401       _D3DXMatrixTranslation@16  00407401 f   d3dx9:d3dxmath.obj
 0001:00006407       ?c_D3DXMatrixTranslation@@YGPAUD3DXMATRIX@@PAU1@MMM@Z 00407407 f   d3dx9:d3dxmath.obj
 0001:00006463       ?init_D3DXMatrixRotationX@@YGPAUD3DXMATRIX@@PAU1@M@Z 00407463 f   d3dx9:d3dxmath.obj
 0001:0000647f       ?c_D3DXMatrixRotationX@@YGPAUD3DXMATRIX@@PAU1@M@Z 0040747f f   d3dx9:d3dxmath.obj
 0001:000064f9       ?init_D3DXMatrixRotationY@@YGPAUD3DXMATRIX@@PAU1@M@Z 004074f9 f   d3dx9:d3dxmath.obj
 0001:00006515       ?c_D3DXMatrixRotationY@@YGPAUD3DXMATRIX@@PAU1@M@Z 00407515 f   d3dx9:d3dxmath.obj
 0001:00006590       ?init_D3DXMatrixRotationZ@@YGPAUD3DXMATRIX@@PAU1@M@Z 00407590 f   d3dx9:d3dxmath.obj
 0001:000065ac       ?c_D3DXMatrixRotationZ@@YGPAUD3DXMATRIX@@PAU1@M@Z 004075ac f   d3dx9:d3dxmath.obj
 0001:00006628       ?init_D3DXMatrixRotationAxis@@YGPAUD3DXMATRIX@@PAU1@PBUD3DXVECTOR3@@M@Z 00407628 f   d3dx9:d3dxmath.obj
 0001:00006648       ?c_D3DXMatrixRotationAxis@@YGPAUD3DXMATRIX@@PAU1@PBUD3DXVECTOR3@@M@Z 00407648 f   d3dx9:d3dxmath.obj
 0001:0000674a       ?init_D3DXMatrixRotationQuaternion@@YGPAUD3DXMATRIX@@PAU1@PBUD3DXQUATERNION@@@Z 0040774a f   d3dx9:d3dxmath.obj
 0001:00006757       _D3DXMatrixRotationQuaternion@8 00407757 f   d3dx9:d3dxmath.obj
 0001:0000675d       ?c_D3DXMatrixRotationQuaternion@@YGPAUD3DXMATRIX@@PAU1@PBUD3DXQUATERNION@@@Z 0040775d f   d3dx9:d3dxmath.obj
 0001:0000683f       ?init_D3DXMatrixRotationYawPitchRoll@@YGPAUD3DXMATRIX@@PAU1@MMM@Z 0040783f f   d3dx9:d3dxmath.obj
 0001:0000686d       _D3DXMatrixRotationYawPitchRoll@16 0040786d f   d3dx9:d3dxmath.obj
 0001:00006873       ?init_D3DXMatrixTransformation@@YGPAUD3DXMATRIX@@PAU1@PBUD3DXVECTOR3@@PBUD3DXQUATERNION@@1121@Z 00407873 f   d3dx9:d3dxmath.obj
 0001:00006884       _D3DXMatrixTransformation@28 00407884 f   d3dx9:d3dxmath.obj
 0001:0000688a       ?init_D3DXMatrixAffineTransformation@@YGPAUD3DXMATRIX@@PAU1@MPBUD3DXVECTOR3@@PBUD3DXQUATERNION@@1@Z 0040788a f   d3dx9:d3dxmath.obj
 0001:000068b1       ?c_D3DXMatrixAffineTransformation@@YGPAUD3DXMATRIX@@PAU1@MPBUD3DXVECTOR3@@PBUD3DXQUATERNION@@1@Z 004078b1 f   d3dx9:d3dxmath.obj
 0001:00006997       _D3DXMatrixLookAtLH@16     00407997 f   d3dx9:d3dxmath.obj
 0001:00006adf       _D3DXMatrixPerspectiveFovLH@20 00407adf f   d3dx9:d3dxmath.obj
 0001:00006b73       ?init_D3DXMatrixShadow@@YGPAUD3DXMATRIX@@PAU1@PBUD3DXVECTOR4@@PBUD3DXPLANE@@@Z 00407b73 f   d3dx9:d3dxmath.obj
 0001:00006b80       ?init_D3DXMatrixReflect@@YGPAUD3DXMATRIX@@PAU1@PBUD3DXPLANE@@@Z 00407b80 f   d3dx9:d3dxmath.obj
 0001:00006b8d       ?init_D3DXQuaternionToAxisAngle@@YGXPBUD3DXQUATERNION@@PAUD3DXVECTOR3@@PAM@Z 00407b8d f   d3dx9:d3dxmath.obj
 0001:00006b9a       ?c_D3DXQuaternionToAxisAngle@@YGXPBUD3DXQUATERNION@@PAUD3DXVECTOR3@@PAM@Z 00407b9a f   d3dx9:d3dxmath.obj
 0001:00006bcf       ?init_D3DXQuaternionRotationMatrix@@YGPAUD3DXQUATERNION@@PAU1@PBUD3DXMATRIX@@@Z 00407bcf f   d3dx9:d3dxmath.obj
 0001:00006bdc       ?c_D3DXQuaternionRotationMatrix@@YGPAUD3DXQUATERNION@@PAU1@PBUD3DXMATRIX@@@Z 00407bdc f   d3dx9:d3dxmath.obj
 0001:00006d10       ?init_D3DXQuaternionRotationAxis@@YGPAUD3DXQUATERNION@@PAU1@PBUD3DXVECTOR3@@M@Z 00407d10 f   d3dx9:d3dxmath.obj
 0001:00006d30       ?c_D3DXQuaternionRotationAxis@@YGPAUD3DXQUATERNION@@PAU1@PBUD3DXVECTOR3@@M@Z 00407d30 f   d3dx9:d3dxmath.obj
 0001:00006d8c       ?init_D3DXQuaternionRotationYawPitchRoll@@YGPAUD3DXQUATERNION@@PAU1@MMM@Z 00407d8c f   d3dx9:d3dxmath.obj
 0001:00006dba       _D3DXQuaternionRotationYawPitchRoll@16 00407dba f   d3dx9:d3dxmath.obj
 0001:00006dc0       ?c_D3DXQuaternionRotationYawPitchRoll@@YGPAUD3DXQUATERNION@@PAU1@MMM@Z 00407dc0 f   d3dx9:d3dxmath.obj
 0001:00006e99       ?init_D3DXQuaternionMultiply@@YGPAUD3DXQUATERNION@@PAU1@PBU1@1@Z 00407e99 f   d3dx9:d3dxmath.obj
 0001:00006ea6       _D3DXQuaternionMultiply@12 00407ea6 f   d3dx9:d3dxmath.obj
 0001:00006eac       ?c_D3DXQuaternionMultiply@@YGPAUD3DXQUATERNION@@PAU1@PBU1@1@Z 00407eac f   d3dx9:d3dxmath.obj
 0001:00006f42       ?init_D3DXQuaternionNormalize@@YGPAUD3DXQUATERNION@@PAU1@PBU1@@Z 00407f42 f   d3dx9:d3dxmath.obj
 0001:00006f4f       ?init_D3DXQuaternionInverse@@YGPAUD3DXQUATERNION@@PAU1@PBU1@@Z 00407f4f f   d3dx9:d3dxmath.obj
 0001:00006f5c       _D3DXQuaternionInverse@8   00407f5c f   d3dx9:d3dxmath.obj
 0001:00006f62       ?c_D3DXQuaternionInverse@@YGPAUD3DXQUATERNION@@PAU1@PBU1@@Z 00407f62 f   d3dx9:d3dxmath.obj
 0001:00007013       ?init_D3DXQuaternionLn@@YGPAUD3DXQUATERNION@@PAU1@PBU1@@Z 00408013 f   d3dx9:d3dxmath.obj
 0001:00007020       _D3DXQuaternionLn@8        00408020 f   d3dx9:d3dxmath.obj
 0001:00007026       ?c_D3DXQuaternionLn@@YGPAUD3DXQUATERNION@@PAU1@PBU1@@Z 00408026 f   d3dx9:d3dxmath.obj
 0001:000070a1       ?init_D3DXQuaternionExp@@YGPAUD3DXQUATERNION@@PAU1@PBU1@@Z 004080a1 f   d3dx9:d3dxmath.obj
 0001:000070ae       _D3DXQuaternionExp@8       004080ae f   d3dx9:d3dxmath.obj
 0001:000070b4       ?c_D3DXQuaternionExp@@YGPAUD3DXQUATERNION@@PAU1@PBU1@@Z 004080b4 f   d3dx9:d3dxmath.obj
 0001:0000714c       ?init_D3DXQuaternionSlerp@@YGPAUD3DXQUATERNION@@PAU1@PBU1@1M@Z 0040814c f   d3dx9:d3dxmath.obj
 0001:00007170       _D3DXQuaternionSlerp@16    00408170 f   d3dx9:d3dxmath.obj
 0001:00007176       ?c_D3DXQuaternionSlerp@@YGPAUD3DXQUATERNION@@PAU1@PBU1@1M@Z 00408176 f   d3dx9:d3dxmath.obj
 0001:00007259       ?init_D3DXQuaternionSquad@@YGPAUD3DXQUATERNION@@PAU1@PBU1@111M@Z 00408259 f   d3dx9:d3dxmath.obj
 0001:00007283       ?c_D3DXQuaternionSquad@@YGPAUD3DXQUATERNION@@PAU1@PBU1@111M@Z 00408283 f   d3dx9:d3dxmath.obj
 0001:000072da       ?init_D3DXQuaternionSquadSetup@@YGXPAUD3DXQUATERNION@@00PBU1@111@Z 004082da f   d3dx9:d3dxmath.obj
 0001:000072eb       ?init_D3DXQuaternionBaryCentric@@YGPAUD3DXQUATERNION@@PAU1@PBU1@11MM@Z 004082eb f   d3dx9:d3dxmath.obj
 0001:0000731a       ?c_D3DXQuaternionBaryCentric@@YGPAUD3DXQUATERNION@@PAU1@PBU1@11MM@Z 0040831a f   d3dx9:d3dxmath.obj
 0001:000073a2       ?init_D3DXPlaneNormalize@@YGPAUD3DXPLANE@@PAU1@PBU1@@Z 004083a2 f   d3dx9:d3dxmath.obj
 0001:000073af       _D3DXPlaneNormalize@8      004083af f   d3dx9:d3dxmath.obj
 0001:000073b5       ?c_D3DXPlaneNormalize@@YGPAUD3DXPLANE@@PAU1@PBU1@@Z 004083b5 f   d3dx9:d3dxmath.obj
 0001:00007456       ?init_D3DXPlaneIntersectLine@@YGPAUD3DXVECTOR3@@PAU1@PBUD3DXPLANE@@PBU1@2@Z 00408456 f   d3dx9:d3dxmath.obj
 0001:00007463       ?c_D3DXPlaneIntersectLine@@YGPAUD3DXVECTOR3@@PAU1@PBUD3DXPLANE@@PBU1@2@Z 00408463 f   d3dx9:d3dxmath.obj
 0001:00007505       ?init_D3DXPlaneFromPointNormal@@YGPAUD3DXPLANE@@PAU1@PBUD3DXVECTOR3@@1@Z 00408505 f   d3dx9:d3dxmath.obj
 0001:00007512       ?c_D3DXPlaneFromPointNormal@@YGPAUD3DXPLANE@@PAU1@PBUD3DXVECTOR3@@1@Z 00408512 f   d3dx9:d3dxmath.obj
 0001:0000754a       ?init_D3DXPlaneFromPoints@@YGPAUD3DXPLANE@@PAU1@PBUD3DXVECTOR3@@11@Z 0040854a f   d3dx9:d3dxmath.obj
 0001:00007557       ?c_D3DXPlaneFromPoints@@YGPAUD3DXPLANE@@PAU1@PBUD3DXVECTOR3@@11@Z 00408557 f   d3dx9:d3dxmath.obj
 0001:000075f9       ?init_D3DXPlaneTransform@@YGPAUD3DXPLANE@@PAU1@PBU1@PBUD3DXMATRIX@@@Z 004085f9 f   d3dx9:d3dxmath.obj
 0001:00007606       ?c_D3DXPlaneTransform@@YGPAUD3DXPLANE@@PAU1@PBU1@PBUD3DXMATRIX@@@Z 00408606 f   d3dx9:d3dxmath.obj
 0001:000076a5       ?init_D3DXPlaneTransformArray@@YGPAUD3DXPLANE@@PAU1@IPBU1@IPBUD3DXMATRIX@@I@Z 004086a5 f   d3dx9:d3dxmath.obj
 0001:000076b6       ?c_D3DXPlaneTransformArray@@YGPAUD3DXPLANE@@PAU1@IPBU1@IPBUD3DXMATRIX@@I@Z 004086b6 f   d3dx9:d3dxmath.obj
 0001:00007775       ?init_D3DXPSGPUpdateSkinnedMesh@@YGXPBUD3DXMATRIX@@0PAE1KKPAPAE2KKPAMH@Z 00408775 f   d3dx9:d3dxmath.obj
 0001:00007786       ?init_D3DXPSGPTessellateNPatch@@YGXPAUD3DXVECTOR3@@PAUD3DXVECTOR2@@KPAM222K@Z 00408786 f   d3dx9:d3dxmath.obj
 0001:00007797       ?c_D3DXVec2Normalize@@YGPAUD3DXVECTOR2@@PAU1@PBU1@@Z 00408797 f   d3dx9:d3dxmath.obj
 0001:00007821       ?c_D3DXVec2Transform@@YGPAUD3DXVECTOR4@@PAU1@PBUD3DXVECTOR2@@PBUD3DXMATRIX@@@Z 00408821 f   d3dx9:d3dxmath.obj
 0001:0000788c       ?c_D3DXVec2TransformArray@@YGPAUD3DXVECTOR4@@PAU1@IPBUD3DXVECTOR2@@IPBUD3DXMATRIX@@I@Z 0040888c f   d3dx9:d3dxmath.obj
 0001:0000790f       ?c_D3DXVec2TransformCoord@@YGPAUD3DXVECTOR2@@PAU1@PBU1@PBUD3DXMATRIX@@@Z 0040890f f   d3dx9:d3dxmath.obj
 0001:0000798c       ?c_D3DXVec2TransformCoordArray@@YGPAUD3DXVECTOR2@@PAU1@IPBU1@IPBUD3DXMATRIX@@I@Z 0040898c f   d3dx9:d3dxmath.obj
 0001:00007a24       ?c_D3DXVec2TransformNormal@@YGPAUD3DXVECTOR2@@PAU1@PBU1@PBUD3DXMATRIX@@@Z 00408a24 f   d3dx9:d3dxmath.obj
 0001:00007a60       ?c_D3DXVec2TransformNormalArray@@YGPAUD3DXVECTOR2@@PAU1@IPBU1@IPBUD3DXMATRIX@@I@Z 00408a60 f   d3dx9:d3dxmath.obj
 0001:00007ab4       ?c_D3DXVec3Normalize@@YGPAUD3DXVECTOR3@@PAU1@PBU1@@Z 00408ab4 f   d3dx9:d3dxmath.obj
 0001:00007b51       ?c_D3DXVec3TransformCoord@@YGPAUD3DXVECTOR3@@PAU1@PBU1@PBUD3DXMATRIX@@@Z 00408b51 f   d3dx9:d3dxmath.obj
 0001:00007c0d       ?c_D3DXVec3TransformCoordArray@@YGPAUD3DXVECTOR3@@PAU1@IPBU1@IPBUD3DXMATRIX@@I@Z 00408c0d f   d3dx9:d3dxmath.obj
 0001:00007cec       ?c_D3DXVec3Project@@YGPAUD3DXVECTOR3@@PAU1@PBU1@PBU_D3DVIEWPORT9@@PBUD3DXMATRIX@@33@Z 00408cec f   d3dx9:d3dxmath.obj
 0001:00007e79       ?c_D3DXVec3ProjectArray@@YGPAUD3DXVECTOR3@@PAU1@IPBU1@IPBU_D3DVIEWPORT9@@PBUD3DXMATRIX@@33I@Z 00408e79 f   d3dx9:d3dxmath.obj
 0001:00008079       ?c_D3DXVec3Unproject@@YGPAUD3DXVECTOR3@@PAU1@PBU1@PBU_D3DVIEWPORT9@@PBUD3DXMATRIX@@33@Z 00409079 f   d3dx9:d3dxmath.obj
 0001:0000821f       ?c_D3DXVec3UnprojectArray@@YGPAUD3DXVECTOR3@@PAU1@IPBU1@IPBU_D3DVIEWPORT9@@PBUD3DXMATRIX@@33I@Z 0040921f f   d3dx9:d3dxmath.obj
 0001:00008450       ?c_D3DXQuaternionNormalize@@YGPAUD3DXQUATERNION@@PAU1@PBU1@@Z 00409450 f   d3dx9:d3dxmath.obj
 0001:00008450       ?c_D3DXVec4Normalize@@YGPAUD3DXVECTOR4@@PAU1@PBU1@@Z 00409450 f   d3dx9:d3dxmath.obj
 0001:00008506       ?c_D3DXMatrixRotationYawPitchRoll@@YGPAUD3DXMATRIX@@PAU1@MMM@Z 00409506 f   d3dx9:d3dxmath.obj
 0001:0000853f       ?c_D3DXMatrixTransformation@@YGPAUD3DXMATRIX@@PAU1@PBUD3DXVECTOR3@@PBUD3DXQUATERNION@@1121@Z 0040953f f   d3dx9:d3dxmath.obj
 0001:000087f3       ?c_D3DXMatrixShadow@@YGPAUD3DXMATRIX@@PAU1@PBUD3DXVECTOR4@@PBUD3DXPLANE@@@Z 004097f3 f   d3dx9:d3dxmath.obj
 0001:000088cd       ?c_D3DXMatrixReflect@@YGPAUD3DXMATRIX@@PAU1@PBUD3DXPLANE@@@Z 004098cd f   d3dx9:d3dxmath.obj
 0001:0000898c       ?c_D3DXQuaternionSquadSetup@@YGXPAUD3DXQUATERNION@@00PBU1@111@Z 0040998c f   d3dx9:d3dxmath.obj
 0001:00008d66       _D3DXAssembleShaderFromFileA@24 00409d66 f   d3dx9:d3dx9shader.obj
 0001:00008e04       _D3DXAssembleShaderFromResourceA@28 00409e04 f   d3dx9:d3dx9shader.obj
 0001:00008ea5       _D3DXGetTargetDescByName@12 00409ea5 f   d3dx9:d3dx9shader.obj
 0001:00008f41       ?GetFormatInfo@D3DXTex@@YGPBU_D3DXFORMAT_INFO@@W4_D3DFORMAT@@@Z 00409f41 f   d3dx9:d3dx9tex.obj
 0001:00008fdc       ?FindClosestDeviceFormat@D3DXTex@@YG?AW4_D3DFORMAT@@PAUIDirect3DDevice9@@KW4_D3DRESOURCETYPE@@PBU_D3DXFORMAT_INFO@@@Z 00409fdc f   d3dx9:d3dx9tex.obj
 0001:000090d8       ?FindClosestExternalFormat@D3DXTex@@YG?AW4_D3DFORMAT@@W42@@Z 0040a0d8 f   d3dx9:d3dx9tex.obj
 0001:000090f4       _D3DXLoadSurfaceFromMemory@40 0040a0f4 f   d3dx9:d3dx9tex.obj
 0001:000091d9       _D3DXLoadVolumeFromMemory@44 0040a1d9 f   d3dx9:d3dx9tex.obj
 0001:00009610       ??_I@YGXPAXIHP6EX0@Z@Z     0040a610 f i d3dx9:d3dx9tex.obj
 0001:0000963a       _D3DXLoadSurfaceFromSurface@32 0040a63a f   d3dx9:d3dx9tex.obj
 0001:00009842       _D3DXLoadVolumeFromVolume@32 0040a842 f   d3dx9:d3dx9tex.obj
 0001:000098c8       _D3DXFilterTexture@16      0040a8c8 f   d3dx9:d3dx9tex.obj
 0001:0000a332       _D3DXCreateTextureFromFileInMemoryEx@60 0040b332 f   d3dx9:d3dx9tex.obj
 0001:0000a36f       _D3DXCreateTextureFromFileExA@56 0040b36f f   d3dx9:d3dx9tex.obj
 0001:0000a3d2       _D3DXCreateTextureFromFileA@12 0040b3d2 f   d3dx9:d3dx9tex.obj
 0001:0000a3f7       ?DestroyEffectInstance@@YGXPAU_D3DXEFFECTINSTANCE@@@Z 0040b3f7 f   d3dx9:loadx.obj
 0001:0000a440       ?LoadDefault@@YGJPAUIDirectXFileData@@PAU_D3DXEFFECTDEFAULT@@@Z 0040b440 f   d3dx9:loadx.obj
 0001:0000a70b       ??1SDefaultList@@QAE@XZ    0040b70b f i d3dx9:loadx.obj
 0001:0000a736       ??_GSDefaultList@@QAEPAXI@Z 0040b736 f i d3dx9:loadx.obj
 0001:0000a752       ?LoadEffectInstance@@YGJPAUIDirectXFileData@@PAU_D3DXEFFECTINSTANCE@@@Z 0040b752 f   d3dx9:loadx.obj
 0001:0000a948       ?CreateDefaultEffectInstance@@YGJPAU_D3DXMATERIAL@@PAU_D3DXEFFECTINSTANCE@@@Z 0040b948 f   d3dx9:loadx.obj
 0001:0000abbe       ??0DXCrackFVF@@QAE@K@Z     0040bbbe f i d3dx9:loadx.obj
 0001:0000ac89       ?CbTexCoordSize@DXCrackFVF@@QAEKK@Z 0040bc89 f i d3dx9:loadx.obj
 0001:0000acad       ?GetTexCoordSizes@DXCrackFVF@@QAEXPAK@Z 0040bcad f i d3dx9:loadx.obj
 0001:0000acee       ?GetSemanticElement@CD3DXCrackDecl@@QAEPBU_D3DVERTEXELEMENT9@@II@Z 0040bcee f i d3dx9:loadx.obj
 0001:0000ad15       ??0CD3DXCrackDecl1@@QAE@XZ 0040bd15 f i d3dx9:loadx.obj
 0001:0000ad54       ?SetDeclaration@CD3DXCrackDecl1@@QAEJPBU_D3DVERTEXELEMENT9@@@Z 0040bd54 f i d3dx9:loadx.obj
 0001:0000ae50       ?SetStreamSource@SVertexCopyContext@@QAEXPAE0@Z 0040be50 f i d3dx9:loadx.obj
 0001:0000ae77       ?CopyVertex@SVertexCopyContext@@QAEXIIH@Z 0040be77 f i d3dx9:loadx.obj
 0001:0000af2d       ?LoadMaterials@@YGJPAUIDirectXFileData@@PAU_D3DXMATERIAL@@PAU_D3DXEFFECTINSTANCE@@K@Z 0040bf2d f   d3dx9:loadx.obj
 0001:0000b2d4       ?BIdenticalDecls@@YGHPBU_D3DVERTEXELEMENT9@@0@Z 0040c2d4 f i d3dx9:loadx.obj
 0001:0000b345       ?CopyDecls@@YGXPAU_D3DVERTEXELEMENT9@@PBU1@@Z 0040c345 f i d3dx9:loadx.obj
 0001:0000b36f       ?GetDeclElement@@YGPBU_D3DVERTEXELEMENT9@@PBU1@EE@Z 0040c36f f i d3dx9:loadx.obj
 0001:0000b396       ?AppendDeclElement@@YGXPBU_D3DVERTEXELEMENT9@@QAU1@@Z 0040c396 f i d3dx9:loadx.obj
 0001:0000b3d8       ?DwCombineFVFs@@YGKKK@Z    0040c3d8 f   d3dx9:loadx.obj
 0001:0000b452       ?AddDeclDataElements@@YGJPAU_D3DVERTEXELEMENT9@@0@Z 0040c452 f   d3dx9:loadx.obj
 0001:0000b4c1       ?CombineDecls@@YGJPAU_D3DVERTEXELEMENT9@@00@Z 0040c4c1 f   d3dx9:loadx.obj
 0001:0000b51c       ?D3DXMergeMeshes@@YGJPAUID3DXMesh@@PAKPAUID3DXBuffer@@2K0122KPAUIDirect3DDevice9@@PAPAU1@PAPAU2@551@Z 0040c51c f   d3dx9:loadx.obj
 0001:0000bb38       ??0CD3DXCrackDecl1@@QAE@PBU_D3DVERTEXELEMENT9@@@Z 0040cb38 f i d3dx9:loadx.obj
 0001:0000bb84       ??0SVertexCopyContext@@QAE@PBU_D3DVERTEXELEMENT9@@0@Z 0040cb84 f i d3dx9:loadx.obj
 0001:0000bc0b       ??_ECBone@@QAEPAXI@Z       0040cc0b f i d3dx9:loadx.obj
 0001:0000bc56       ?D3DXLoadMeshFromXofEx@@YGJPAUIDirectXFileData@@KPAUIDirect3DDevice9@@PAPAUID3DXBuffer@@22PAKPAPAUID3DXMesh@@PAPAE322PAPAVCBone@@3PAPAPAU1@3@Z 0040cc56 f   d3dx9:loadx.obj
 0001:0000cfb4       ?LoadMeshes@@YGJPAUIDirectXFileData@@AAUD3DXMATRIX@@KPAUIDirect3DDevice9@@PAPAUID3DXMesh@@PAPAUID3DXBuffer@@44PAK@Z 0040dfb4 f   d3dx9:loadx.obj
 0001:0000d474       _D3DXLoadMeshFromXResource@40 0040e474 f   d3dx9:loadx.obj
 0001:0000d796       ?SwapFaceNeighbors@@YGXIIPAK@Z 0040e796 f i d3dx9:createmesh.obj
 0001:0000d7cc       ?RemapFaceNeighbors@@YGXIPAIPAK@Z 0040e7cc f i d3dx9:createmesh.obj
 0001:0000d7ff       ?ReorderNeighborData@@YGJPAIPAKK@Z 0040e7ff f i d3dx9:createmesh.obj
 0001:0000d89f       ??0CBone@@QAE@XZ           0040e89f f   d3dx9:createmesh.obj
 0001:0000d8af       ??1CBone@@QAE@XZ           0040e8af f   d3dx9:createmesh.obj
 0001:0000d8db       ?SetNormal@CD3DXCrackDecl1@@QAEXPAEPAUD3DXVECTOR3@@@Z 0040e8db f i d3dx9:createmesh.obj
 0001:0000d8fb       ?SetElement@@YGXPAU_D3DVERTEXELEMENT9@@W4_D3DDECLUSAGE@@KAAKK@Z 0040e8fb f   d3dx9:createmesh.obj
 0001:0000d935       _D3DXDeclaratorFromFVF@8   0040e935 f   d3dx9:createmesh.obj
 0001:0000daae       _D3DXGetDeclVertexSize@8   0040eaae f   d3dx9:createmesh.obj
 0001:0000dafa       ?D3DXFVFFromDeclaratorEx@@YGJPBU_D3DVERTEXELEMENT9@@PAKH@Z 0040eafa f   d3dx9:createmesh.obj
 0001:0000dd02       ?CmpFunc@@YAHPBX0@Z        0040ed02 f   d3dx9:createmesh.obj
 0001:0000dd0f       ?BValidMeshDecl@@YGHQBU_D3DVERTEXELEMENT9@@PAD@Z 0040ed0f f   d3dx9:createmesh.obj
 0001:0000dd5f       _D3DXGetDeclLength@4       0040ed5f f   d3dx9:createmesh.obj
 0001:0000dd75       ?LockIB@?$GXTri3Mesh@G$00$0PPPP@@@QAEJPAPAEK@Z 0040ed75 f i d3dx9:createmesh.obj
 0001:0000dd75       ?LockIB@?$GXTri3Mesh@I$0A@$0?0@@QAEJPAPAEK@Z 0040ed75 f i d3dx9:createmesh.obj
 0001:0000dd97       ??1?$GXTri3Mesh@G$00$0PPPP@@@QAE@XZ 0040ed97 f i d3dx9:createmesh.obj
 0001:0000de42       ?AddRef@?$GXTri3Mesh@I$0A@$0?0@@UAGKXZ 0040ee42 f i d3dx9:createmesh.obj
 0001:0000de42       ?AddRef@?$GXTri3Mesh@G$00$0PPPP@@@UAGKXZ 0040ee42 f i d3dx9:createmesh.obj
 0001:0000de64       ?UnlockVertexBuffer@?$GXTri3Mesh@G$00$0PPPP@@@UAGJXZ 0040ee64 f i d3dx9:createmesh.obj
 0001:0000de64       ?UnlockVertexBuffer@?$GXTri3Mesh@I$0A@$0?0@@UAGJXZ 0040ee64 f i d3dx9:createmesh.obj
 0001:0000de77       ?UnlockIndexBuffer@?$GXTri3Mesh@G$00$0PPPP@@@UAGJXZ 0040ee77 f i d3dx9:createmesh.obj
 0001:0000de77       ?UnlockIndexBuffer@?$GXTri3Mesh@I$0A@$0?0@@UAGJXZ 0040ee77 f i d3dx9:createmesh.obj
 0001:0000de8a       ?LockAttributeBuffer@?$GXTri3Mesh@I$0A@$0?0@@UAGJKPAPAK@Z 0040ee8a f i d3dx9:createmesh.obj
 0001:0000de8a       ?LockAttributeBuffer@?$GXTri3Mesh@G$00$0PPPP@@@UAGJKPAPAK@Z 0040ee8a f i d3dx9:createmesh.obj
 0001:0000dec9       ?QueryInterface@?$GXTri3Mesh@I$0A@$0?0@@UAGJABU_GUID@@PAPAX@Z 0040eec9 f i d3dx9:createmesh.obj
 0001:0000dec9       ?QueryInterface@?$GXTri3Mesh@G$00$0PPPP@@@UAGJABU_GUID@@PAPAX@Z 0040eec9 f i d3dx9:createmesh.obj
 0001:0000df3a       ?GetFVF@?$GXTri3Mesh@G$00$0PPPP@@@UAGKXZ 0040ef3a f i d3dx9:createmesh.obj
 0001:0000df3a       ?GetFVF@?$GXTri3Mesh@I$0A@$0?0@@UAGKXZ 0040ef3a f i d3dx9:createmesh.obj
 0001:0000df44       ?GetOptions@?$GXTri3Mesh@G$00$0PPPP@@@UAGKXZ 0040ef44 f i d3dx9:createmesh.obj
 0001:0000df44       ?GetOptions@?$GXTri3Mesh@I$0A@$0?0@@UAGKXZ 0040ef44 f i d3dx9:createmesh.obj
 0001:0000df51       ?CloneMeshFVF@?$GXTri3Mesh@I$0A@$0?0@@UAGJKKPAUIDirect3DDevice9@@PAPAUID3DXMesh@@@Z 0040ef51 f i d3dx9:createmesh.obj
 0001:0000df51       ?CloneMeshFVF@?$GXTri3Mesh@G$00$0PPPP@@@UAGJKKPAUIDirect3DDevice9@@PAPAUID3DXMesh@@@Z 0040ef51 f i d3dx9:createmesh.obj
 0001:0000df8a       ?GetAttributeTable@?$GXTri3Mesh@G$00$0PPPP@@@UAGJPAU_D3DXATTRIBUTERANGE@@PAK@Z 0040ef8a f i d3dx9:createmesh.obj
 0001:0000df8a       ?GetAttributeTable@?$GXTri3Mesh@I$0A@$0?0@@UAGJPAU_D3DXATTRIBUTERANGE@@PAK@Z 0040ef8a f i d3dx9:createmesh.obj
 0001:0000dfd3       ?CollectAttributeIds@?$GXTri3Mesh@G$00$0PPPP@@@AAEJPAPAKPAK@Z 0040efd3 f i d3dx9:createmesh.obj
 0001:0000e116       ??1?$GXTri3Mesh@I$0A@$0?0@@QAE@XZ 0040f116 f i d3dx9:createmesh.obj
 0001:0000e1c1       ?GetDevice@?$GXTri3Mesh@I$0A@$0?0@@UAGJPAPAUIDirect3DDevice9@@@Z 0040f1c1 f i d3dx9:createmesh.obj
 0001:0000e1c1       ?GetDevice@?$GXTri3Mesh@G$00$0PPPP@@@UAGJPAPAUIDirect3DDevice9@@@Z 0040f1c1 f i d3dx9:createmesh.obj
 0001:0000e1ef       ?LockVertexBuffer@?$GXTri3Mesh@G$00$0PPPP@@@UAGJKPAPAX@Z 0040f1ef f i d3dx9:createmesh.obj
 0001:0000e1ef       ?LockVertexBuffer@?$GXTri3Mesh@I$0A@$0?0@@UAGJKPAPAX@Z 0040f1ef f i d3dx9:createmesh.obj
 0001:0000e215       ?LockIndexBuffer@?$GXTri3Mesh@I$0A@$0?0@@UAGJKPAPAX@Z 0040f215 f i d3dx9:createmesh.obj
 0001:0000e215       ?LockIndexBuffer@?$GXTri3Mesh@G$00$0PPPP@@@UAGJKPAPAX@Z 0040f215 f i d3dx9:createmesh.obj
 0001:0000e23b       ?OnResetDevice@CSprite@D3DXCore@@UAGJXZ 0040f23b f i d3dx9:csprite.obj
 0001:0000e23b       ?UnlockAttributeBuffer@?$GXTri3Mesh@G$00$0PPPP@@@UAGJXZ 0040f23b f i d3dx9:createmesh.obj
 0001:0000e23b       ?UnlockAttributeBuffer@?$GXTri3Mesh@I$0A@$0?0@@UAGJXZ 0040f23b f i d3dx9:createmesh.obj
 0001:0000e240       ?GetNumFaces@?$GXTri3Mesh@G$00$0PPPP@@@UAGKXZ 0040f240 f i d3dx9:createmesh.obj
 0001:0000e240       ?GetNumFaces@?$GXTri3Mesh@I$0A@$0?0@@UAGKXZ 0040f240 f i d3dx9:createmesh.obj
 0001:0000e24d       ?GetNumVertices@?$GXTri3Mesh@I$0A@$0?0@@UAGKXZ 0040f24d f i d3dx9:createmesh.obj
 0001:0000e24d       ?GetNumVertices@?$GXTri3Mesh@G$00$0PPPP@@@UAGKXZ 0040f24d f i d3dx9:createmesh.obj
 0001:0000e25a       ?GetDeclaration@?$GXTri3Mesh@G$00$0PPPP@@@UAGJQAU_D3DVERTEXELEMENT9@@@Z 0040f25a f i d3dx9:createmesh.obj
 0001:0000e25a       ?GetDeclaration@?$GXTri3Mesh@I$0A@$0?0@@UAGJQAU_D3DVERTEXELEMENT9@@@Z 0040f25a f i d3dx9:createmesh.obj
 0001:0000e27e       ?GetNumBytesPerVertex@?$GXTri3Mesh@G$00$0PPPP@@@UAGKXZ 0040f27e f i d3dx9:createmesh.obj
 0001:0000e27e       ?GetNumBytesPerVertex@?$GXTri3Mesh@I$0A@$0?0@@UAGKXZ 0040f27e f i d3dx9:createmesh.obj
 0001:0000e28b       ?GetVertexBuffer@?$GXTri3Mesh@I$0A@$0?0@@UAGJPAPAUIDirect3DVertexBuffer9@@@Z 0040f28b f i d3dx9:createmesh.obj
 0001:0000e28b       ?GetVertexBuffer@?$GXTri3Mesh@G$00$0PPPP@@@UAGJPAPAUIDirect3DVertexBuffer9@@@Z 0040f28b f i d3dx9:createmesh.obj
 0001:0000e2b4       ?GetIndexBuffer@?$GXTri3Mesh@I$0A@$0?0@@UAGJPAPAUIDirect3DIndexBuffer9@@@Z 0040f2b4 f i d3dx9:createmesh.obj
 0001:0000e2b4       ?GetIndexBuffer@?$GXTri3Mesh@G$00$0PPPP@@@UAGJPAPAUIDirect3DIndexBuffer9@@@Z 0040f2b4 f i d3dx9:createmesh.obj
 0001:0000e2dd       ?UpdateSemantics@?$GXTri3Mesh@G$00$0PPPP@@@UAGJQAU_D3DVERTEXELEMENT9@@@Z 0040f2dd f i d3dx9:createmesh.obj
 0001:0000e2dd       ?UpdateSemantics@?$GXTri3Mesh@I$0A@$0?0@@UAGJQAU_D3DVERTEXELEMENT9@@@Z 0040f2dd f i d3dx9:createmesh.obj
 0001:0000e368       ?SetAttributeTable@?$GXTri3Mesh@I$0A@$0?0@@UAGJPBU_D3DXATTRIBUTERANGE@@K@Z 0040f368 f i d3dx9:createmesh.obj
 0001:0000e368       ?SetAttributeTable@?$GXTri3Mesh@G$00$0PPPP@@@UAGJPBU_D3DXATTRIBUTERANGE@@K@Z 0040f368 f i d3dx9:createmesh.obj
 0001:0000e427       ?CollectAttributeIds@?$GXTri3Mesh@I$0A@$0?0@@AAEJPAPAKPAK@Z 0040f427 f i d3dx9:createmesh.obj
 0001:0000e568       ?LockVB@?$GXTri3Mesh@G$00$0PPPP@@@QAEJPAPAEK@Z 0040f568 f i d3dx9:createmesh.obj
 0001:0000e568       ?LockVB@?$GXTri3Mesh@I$0A@$0?0@@QAEJPAPAEK@Z 0040f568 f i d3dx9:createmesh.obj
 0001:0000e58a       ??0SCorner@@QAE@XZ         0040f58a f i d3dx9:loadutil.obj
 0001:0000e58a       ??0SVertexHashEntry@@QAE@XZ 0040f58a f i d3dx9:createmesh.obj
 0001:0000e58a       ??0?$NeighborInfo@I@@QAE@XZ 0040f58a f i d3dx9:createmesh.obj
 0001:0000e58a       ??0?$NeighborInfo@G@@QAE@XZ 0040f58a f i d3dx9:createmesh.obj
 0001:0000e58a       ??0D3DXCOLOR@@QAE@XZ       0040f58a f i d3dx9:d3dx9tex.obj
 0001:0000e58a       ??0SLoadVertex@@QAE@XZ     0040f58a f i d3dx9:loadutil.obj
 0001:0000e58d       ??0?$CFaceListIter@G$00$0PPPP@@@QAE@PAV?$GXTri3Mesh@G$00$0PPPP@@@@Z 0040f58d f i d3dx9:createmesh.obj
 0001:0000e5b2       ?FindWedge@?$GXTri3Mesh@G$00$0PPPP@@@ABEIPAGI@Z 0040f5b2 f i d3dx9:createmesh.obj
 0001:0000e5e6       ?FindWedge@?$GXTri3Mesh@I$0A@$0?0@@ABEIPAII@Z 0040f5e6 f i d3dx9:createmesh.obj
 0001:0000e60f       ?ResizeDynamicArray@@YGHPAPAV?$NeighborInfo@G@@IIPAI@Z 0040f60f f i d3dx9:createmesh.obj
 0001:0000e6ce       ?ResizeDynamicArray@@YGHPAPAGIIPAI@Z 0040f6ce f i d3dx9:createmesh.obj
 0001:0000e747       ?FindEdge@@YGIPBGG@Z       0040f747 f i d3dx9:createmesh.obj
 0001:0000e761       ?ResizeDynamicArray@@YGHPAPAV?$NeighborInfo@I@@IIPAI@Z 0040f761 f i d3dx9:createmesh.obj
 0001:0000e822       ?ResizeDynamicArray@@YGHPAPAIIIPAI@Z 0040f822 f i d3dx9:createmesh.obj
 0001:0000e822       ?ResizeDynamicArray@@YGHPAPAKIIPAI@Z 0040f822 f i d3dx9:createmesh.obj
 0001:0000e89e       ?Compact@?$GXTri3Mesh@G$00$0PPPP@@@AAEJPAI00@Z 0040f89e f i d3dx9:createmesh.obj
 0001:0000e9ba       ?AttributeSort@?$GXTri3Mesh@G$00$0PPPP@@@AAEJPAI00K@Z 0040f9ba f i d3dx9:createmesh.obj
 0001:0000ee84       ?VertexOptimize@?$GXTri3Mesh@G$00$0PPPP@@@AAEJPAI0@Z 0040fe84 f i d3dx9:createmesh.obj
 0001:0000ef11       ?CreateEmptyMesh@?$GXTri3Mesh@G$00$0PPPP@@@AAEJXZ 0040ff11 f i d3dx9:createmesh.obj
 0001:0000ef11       ?CreateEmptyMesh@?$GXTri3Mesh@I$0A@$0?0@@AAEJXZ 0040ff11 f i d3dx9:createmesh.obj
 0001:0000ef29       ?Compact@?$GXTri3Mesh@I$0A@$0?0@@AAEJPAI00@Z 0040ff29 f i d3dx9:createmesh.obj
 0001:0000f01f       ?AttributeSort@?$GXTri3Mesh@I$0A@$0?0@@AAEJPAI00K@Z 0041001f f i d3dx9:createmesh.obj
 0001:0000f4be       ?VertexOptimize@?$GXTri3Mesh@I$0A@$0?0@@AAEJPAI0@Z 004104be f i d3dx9:createmesh.obj
 0001:0000f531       ?AddToDynamicArray@@YGHPAPAGABGPAI2@Z 00410531 f i d3dx9:createmesh.obj
 0001:0000f5c1       ?RemapVertex@?$GXTri3Mesh@G$00$0PPPP@@@AAEXIPAI@Z 004105c1 f i d3dx9:createmesh.obj
 0001:0000f5e8       ?RemapFace@?$GXTri3Mesh@G$00$0PPPP@@@AAEXIPAI0@Z 004105e8 f i d3dx9:createmesh.obj
 0001:0000f655       ?SwapVertex@?$GXTri3Mesh@G$00$0PPPP@@@AAEXIIPAE@Z 00410655 f i d3dx9:createmesh.obj
 0001:0000f702       ?SwapFace@?$GXTri3Mesh@G$00$0PPPP@@@AAEXII@Z 00410702 f i d3dx9:createmesh.obj
 0001:0000f801       ?AddToDynamicArray@@YGHPAPAIABIPAI2@Z 00410801 f i d3dx9:createmesh.obj
 0001:0000f801       ?AddToDynamicArray@@YGHPAPAKABKPAI2@Z 00410801 f i d3dx9:createmesh.obj
 0001:0000f88e       ??0?$CMeshStatus@G$00$0PPPP@@@QAE@PAV?$GXTri3Mesh@G$00$0PPPP@@@PAV?$NeighborInfo@G@@G@Z 0041088e f i d3dx9:createmesh.obj
 0001:0000f8b1       ??1?$CMeshStatus@G$00$0PPPP@@@QAE@XZ 004108b1 f i d3dx9:createmesh.obj
 0001:0000f8c8       ?FindEdge@@YGIPBKK@Z       004108c8 f i d3dx9:createmesh.obj
 0001:0000f8c8       ?FindEdge@@YGIPBII@Z       004108c8 f i d3dx9:createmesh.obj
 0001:0000f8e0       ?RemapVertex@?$GXTri3Mesh@I$0A@$0?0@@AAEXIPAI@Z 004108e0 f i d3dx9:createmesh.obj
 0001:0000f904       ?RemapFace@?$GXTri3Mesh@I$0A@$0?0@@AAEXIPAI0@Z 00410904 f i d3dx9:createmesh.obj
 0001:0000f964       ?SwapVertex@?$GXTri3Mesh@I$0A@$0?0@@AAEXIIPAE@Z 00410964 f i d3dx9:createmesh.obj
 0001:0000fa0e       ?SwapFace@?$GXTri3Mesh@I$0A@$0?0@@AAEXII@Z 00410a0e f i d3dx9:createmesh.obj
 0001:0000fb04       ??0?$CMeshStatus@I$0A@$0?0@@QAE@PAV?$GXTri3Mesh@I$0A@$0?0@@PAV?$NeighborInfo@I@@I@Z 00410b04 f i d3dx9:createmesh.obj
 0001:0000fb25       ??1?$CMeshStatus@I$0A@$0?0@@QAE@XZ 00410b25 f i d3dx9:createmesh.obj
 0001:0000fb3c       ?IFindInitialFace@?$CMeshStatus@G$00$0PPPP@@@QAEGXZ 00410b3c f i d3dx9:createmesh.obj
 0001:0000fb65       ?IFindInitialFace@?$CMeshStatus@I$0A@$0?0@@QAEIXZ 00410b65 f i d3dx9:createmesh.obj
 0001:0000fb84       ?Init@?$CIndexQueue@G$0PPPP@@@QAEJXZ 00410b84 f i d3dx9:createmesh.obj
 0001:0000fbcc       ?BElementPresent@?$CIndexQueue@G$0PPPP@@@QAE_NG@Z 00410bcc f i d3dx9:createmesh.obj
 0001:0000fbf4       ?InsertElement@?$CIndexQueue@G$0PPPP@@@QAEXG@Z 00410bf4 f i d3dx9:createmesh.obj
 0001:0000fc1a       ?Init@?$CIndexQueue@I$0?0@@QAEJXZ 00410c1a f i d3dx9:createmesh.obj
 0001:0000fc61       ?BElementPresent@?$CIndexQueue@I$0?0@@QAE_NI@Z 00410c61 f i d3dx9:createmesh.obj
 0001:0000fc88       ?InsertElement@?$CIndexQueue@I$0?0@@QAEXI@Z 00410c88 f i d3dx9:createmesh.obj
 0001:0000fcac       ?ClwFaceCorner@?$GXTri3Mesh@I$0A@$0?0@@AAE?AUSFaceCorner@@AAU2@@Z 00410cac f i d3dx9:createmesh.obj
 0001:0000fcac       ?ClwFaceCorner@?$GXTri3Mesh@G$00$0PPPP@@@AAE?AUSFaceCorner@@AAU2@@Z 00410cac f i d3dx9:createmesh.obj
 0001:0000fccc       ?CcwCorner@?$GXTri3Mesh@G$00$0PPPP@@@AAE?AUSFaceCorner@@AAU2@PAV?$CMeshStatus@G$00$0PPPP@@@@Z 00410ccc f i d3dx9:createmesh.obj
 0001:0000fd1d       ?CcwCorner@?$GXTri3Mesh@I$0A@$0?0@@AAE?AUSFaceCorner@@AAU2@PAV?$CMeshStatus@I$0A@$0?0@@@Z 00410d1d f i d3dx9:createmesh.obj
 0001:0000fd66       ?RemoveElement@?$CMeshStatus@G$00$0PPPP@@@AAEXG@Z 00410d66 f i d3dx9:createmesh.obj
 0001:0000fdea       ?PrependElement@?$CMeshStatus@G$00$0PPPP@@@AAEXG@Z 00410dea f i d3dx9:createmesh.obj
 0001:0000fe36       ?DecrementCount@?$CMeshStatus@G$00$0PPPP@@@AAEXG@Z 00410e36 f i d3dx9:createmesh.obj
 0001:0000fe67       ?RemoveElement@?$CMeshStatus@I$0A@$0?0@@AAEXI@Z 00410e67 f i d3dx9:createmesh.obj
 0001:0000fece       ?PrependElement@?$CMeshStatus@I$0A@$0?0@@AAEXI@Z 00410ece f i d3dx9:createmesh.obj
 0001:0000ff0d       ?DecrementCount@?$CMeshStatus@I$0A@$0?0@@AAEXI@Z 00410f0d f i d3dx9:createmesh.obj
 0001:0000ff37       ?DrawSubset@?$GXTri3Mesh@G$00$0PPPP@@@UAGJK@Z 00410f37 f i d3dx9:createmesh.obj
 0001:000100a4       ?Resize@?$GXTri3Mesh@G$00$0PPPP@@@QAEJII@Z 004110a4 f i d3dx9:createmesh.obj
 0001:00010651       ?BValid@?$GXTri3Mesh@G$00$0PPPP@@@EAE_NPAV?$GXTri3Face@G@@@Z 00411651 f i d3dx9:createmesh.obj
 0001:00010884       ?DrawSubset@?$GXTri3Mesh@I$0A@$0?0@@UAGJK@Z 00411884 f i d3dx9:createmesh.obj
 0001:00010bd9       ?Resize@?$GXTri3Mesh@I$0A@$0?0@@QAEJII@Z 00411bd9 f i d3dx9:createmesh.obj
 0001:000111b0       ?BValid@?$GXTri3Mesh@I$0A@$0?0@@EAE_NPAV?$GXTri3Face@I@@@Z 004121b0 f i d3dx9:createmesh.obj
 0001:000113b1       ?BValidAttributeGroups@?$GXTri3Mesh@G$00$0PPPP@@@AAE_NPAV?$GXTri3Face@G@@@Z 004123b1 f i d3dx9:createmesh.obj
 0001:000113b1       ?BValidAttributeGroups@?$GXTri3Mesh@I$0A@$0?0@@AAE_NPAV?$GXTri3Face@I@@@Z 004123b1 f i d3dx9:createmesh.obj
 0001:0001141a       ?Init@?$CFaceListIter@G$00$0PPPP@@@QAEXGGE@Z 0041241a f i d3dx9:createmesh.obj
 0001:0001148b       ?Init@?$CFaceListIter@I$0A@$0?0@@QAEXIIE@Z 0041248b f i d3dx9:createmesh.obj
 0001:000114ec       ?CopyMesh@?$GXTri3Mesh@G$00$0PPPP@@@AAEJPAV1@@Z 004124ec f i d3dx9:createmesh.obj
 0001:0001176c       ?CopyMesh@?$GXTri3Mesh@I$0A@$0?0@@AAEJPAV1@@Z 0041276c f i d3dx9:createmesh.obj
 0001:000119eb       ?GetNextFace@?$CFaceListIter@G$00$0PPPP@@@QAEGXZ 004129eb f i d3dx9:createmesh.obj
 0001:00011aed       ?GetNextFace@?$CFaceListIter@I$0A@$0?0@@QAEIXZ 00412aed f i d3dx9:createmesh.obj
 0001:00011bba       ?SplitSharedVertices@?$GXTri3Mesh@G$00$0PPPP@@@AAEJPAPAKPAI@Z 00412bba f i d3dx9:createmesh.obj
 0001:00011e42       ?ReorderVertexData@?$GXTri3Mesh@G$00$0PPPP@@@AAEJPAIPAE@Z 00412e42 f i d3dx9:createmesh.obj
 0001:00011fb1       ?ReorderFaceData@?$GXTri3Mesh@G$00$0PPPP@@@AAEJPAI0@Z 00412fb1 f i d3dx9:createmesh.obj
 0001:000120b3       ?SplitSharedVertices@?$GXTri3Mesh@I$0A@$0?0@@AAEJPAPAKPAI@Z 004130b3 f i d3dx9:createmesh.obj
 0001:0001231a       ?ReorderVertexData@?$GXTri3Mesh@I$0A@$0?0@@AAEJPAIPAE@Z 0041331a f i d3dx9:createmesh.obj
 0001:0001246b       ?ReorderFaceData@?$GXTri3Mesh@I$0A@$0?0@@AAEJPAI0@Z 0041346b f i d3dx9:createmesh.obj
 0001:00012564       ?AccessVertex@?$CSimVertexCache@G$0PPPP@@@QAEXGAA_N@Z 00413564 f i d3dx9:createmesh.obj
 0001:00012589       ?AccessVertex@?$CSimVertexCache@I$0?0@@QAEXIAA_N@Z 00413589 f i d3dx9:createmesh.obj
 0001:000125ae       ?Init@?$CMeshStatus@G$00$0PPPP@@@QAEJGG_N@Z 004135ae f i d3dx9:createmesh.obj
 0001:000126aa       ?MarkAsProcessed@?$CMeshStatus@G$00$0PPPP@@@QAEXG@Z 004136aa f i d3dx9:createmesh.obj
 0001:00012725       ?IFindNextFace@?$CMeshStatus@G$00$0PPPP@@@QAEGG@Z 00413725 f i d3dx9:createmesh.obj
 0001:0001281d       ?Init@?$CMeshStatus@I$0A@$0?0@@QAEJII_N@Z 0041381d f i d3dx9:createmesh.obj
 0001:00012909       ?MarkAsProcessed@?$CMeshStatus@I$0A@$0?0@@QAEXI@Z 00413909 f i d3dx9:createmesh.obj
 0001:0001296e       ?IFindNextFace@?$CMeshStatus@I$0A@$0?0@@QAEII@Z 0041396e f i d3dx9:createmesh.obj
 0001:00012a46       ?Release@?$GXTri3Mesh@G$00$0PPPP@@@UAGKXZ 00413a46 f i d3dx9:createmesh.obj
 0001:00012a85       ?Release@?$GXTri3Mesh@I$0A@$0?0@@UAGKXZ 00413a85 f i d3dx9:createmesh.obj
 0001:00012ac4       ??0?$GXTri3Mesh@G$00$0PPPP@@@QAE@PAUIDirect3DDevice9@@PBU_D3DVERTEXELEMENT9@@K@Z 00413ac4 f i d3dx9:createmesh.obj
 0001:00012ccb       ?ConvertPointRepsToAdjacency@?$GXTri3Mesh@G$00$0PPPP@@@UAGJPBKPAK@Z 00413ccb f i d3dx9:createmesh.obj
 0001:00012d0f       ?GXConvertPointRepsToAdjacency@?$@G$0PPPP@@@YGJPAUIDirect3DVertexBuffer9@@PAUIDirect3DIndexBuffer9@@KIIPAU_D3DXATTRIBUTERANGE@@IPBKPAKI@Z 00413d0f f i d3dx9:createmesh.obj
 0001:00013131       ?HashRemove@@YGXKKKPAPAUhashentry@@K@Z 00414131 f i d3dx9:createmesh.obj
 0001:00013181       ?HashFind@@YGKKKKPAPAUhashentry@@KKPAEK@Z 00414181 f i d3dx9:createmesh.obj
 0001:0001325e       ?CalculateDiff@@YGMKKKKKKPAEK@Z 0041425e f i d3dx9:createmesh.obj
 0001:000133a6       ?ConvertAdjacencyToPointReps@?$GXTri3Mesh@G$00$0PPPP@@@UAGJPBKPAK@Z 004143a6 f i d3dx9:createmesh.obj
 0001:00013640       ??0?$GXTri3Mesh@I$0A@$0?0@@QAE@PAUIDirect3DDevice9@@PBU_D3DVERTEXELEMENT9@@K@Z 00414640 f i d3dx9:createmesh.obj
 0001:00013847       ?ConvertPointRepsToAdjacency@?$GXTri3Mesh@I$0A@$0?0@@UAGJPBKPAK@Z 00414847 f i d3dx9:createmesh.obj
 0001:0001388b       ?GXConvertPointRepsToAdjacency@?$@I$0?0@@YGJPAUIDirect3DVertexBuffer9@@PAUIDirect3DIndexBuffer9@@KIIPAU_D3DXATTRIBUTERANGE@@IPBKPAKI@Z 0041488b f i d3dx9:createmesh.obj
 0001:00013cad       ?ConvertAdjacencyToPointReps@?$GXTri3Mesh@I$0A@$0?0@@UAGJPBKPAK@Z 00414cad f i d3dx9:createmesh.obj
 0001:00013f46       ?SGIStripReorder@?$GXTri3Mesh@G$00$0PPPP@@@AAEJPAV?$CMeshStatus@G$00$0PPPP@@@PAI1@Z 00414f46 f i d3dx9:createmesh.obj
 0001:00014051       ?VCacheStripReorder@?$GXTri3Mesh@G$00$0PPPP@@@AAEJPAV?$CMeshStatus@G$00$0PPPP@@@PAI1KK@Z 00415051 f i d3dx9:createmesh.obj
 0001:00014399       ?SGIStripReorder@?$GXTri3Mesh@I$0A@$0?0@@AAEJPAV?$CMeshStatus@I$0A@$0?0@@PAI1@Z 00415399 f i d3dx9:createmesh.obj
 0001:00014488       ?VCacheStripReorder@?$GXTri3Mesh@I$0A@$0?0@@AAEJPAV?$CMeshStatus@I$0A@$0?0@@PAI1KK@Z 00415488 f i d3dx9:createmesh.obj
 0001:00014781       _D3DXCreateMesh@24         00415781 f   d3dx9:createmesh.obj
 0001:0001486b       ?CloneMesh@?$GXTri3Mesh@G$00$0PPPP@@@UAGJKPBU_D3DVERTEXELEMENT9@@PAUIDirect3DDevice9@@PAPAUID3DXMesh@@@Z 0041586b f i d3dx9:createmesh.obj
 0001:00014a56       ?CloneHelper16@?$GXTri3Mesh@G$00$0PPPP@@@AAEJPAV1@@Z 00415a56 f i d3dx9:createmesh.obj
 0001:00014c6b       ?CloneHelper32@?$GXTri3Mesh@G$00$0PPPP@@@AAEJPAV?$GXTri3Mesh@I$0A@$0?0@@@Z 00415c6b f i d3dx9:createmesh.obj
 0001:00014e8f       ?GenerateAdjacency@?$GXTri3Mesh@G$00$0PPPP@@@UAGJMPAK@Z 00415e8f f i d3dx9:createmesh.obj
 0001:00014ed5       ?GXGenerateAdjacency@?$@G$0PPPP@@@YGJPAUIDirect3DVertexBuffer9@@PAUIDirect3DIndexBuffer9@@PBU_D3DVERTEXELEMENT9@@KIIPAU_D3DXATTRIBUTERANGE@@IMPAK@Z 00415ed5 f i d3dx9:createmesh.obj
 0001:00015350       ?IndexedHeapSort@@YGXPAKPAMK@Z 00416350 f i d3dx9:createmesh.obj
 0001:0001547d       ?VertexHashAdd@@YGHPAUD3DXVECTOR3@@KPAPAUSVertexHashEntry@@PAU2@KPAK3PAV?$GXTri3Face@G@@33@Z 0041647d f i d3dx9:createmesh.obj
 0001:0001554b       ?CloneMesh@?$GXTri3Mesh@I$0A@$0?0@@UAGJKPBU_D3DVERTEXELEMENT9@@PAUIDirect3DDevice9@@PAPAUID3DXMesh@@@Z 0041654b f i d3dx9:createmesh.obj
 0001:00015736       ?CloneHelper16@?$GXTri3Mesh@I$0A@$0?0@@AAEJPAV?$GXTri3Mesh@G$00$0PPPP@@@@Z 00416736 f i d3dx9:createmesh.obj
 0001:0001595b       ?CloneHelper32@?$GXTri3Mesh@I$0A@$0?0@@AAEJPAV1@@Z 0041695b f i d3dx9:createmesh.obj
 0001:00015b66       ?CloneVertexBuffer@?$GXTri3Mesh@G$00$0PPPP@@@AAEJPBU_D3DVERTEXELEMENT9@@PAUIDirect3DVertexBuffer9@@@Z 00416b66 f i d3dx9:createmesh.obj
 0001:00015b66       ?CloneVertexBuffer@?$GXTri3Mesh@I$0A@$0?0@@AAEJPBU_D3DVERTEXELEMENT9@@PAUIDirect3DVertexBuffer9@@@Z 00416b66 f i d3dx9:createmesh.obj
 0001:00015c4c       ?GenerateAdjacency@?$GXTri3Mesh@I$0A@$0?0@@UAGJMPAK@Z 00416c4c f i d3dx9:createmesh.obj
 0001:00015c92       ?GXGenerateAdjacency@?$@I$0?0@@YGJPAUIDirect3DVertexBuffer9@@PAUIDirect3DIndexBuffer9@@PBU_D3DVERTEXELEMENT9@@KIIPAU_D3DXATTRIBUTERANGE@@IMPAK@Z 00416c92 f i d3dx9:createmesh.obj
 0001:00016109       ?VertexHashAdd@@YGHPAUD3DXVECTOR3@@KPAPAUSVertexHashEntry@@PAU2@KPAK3PAV?$GXTri3Face@I@@33@Z 00417109 f i d3dx9:createmesh.obj
 0001:000161ce       ?StripReorder@?$GXTri3Mesh@G$00$0PPPP@@@AAEJKPAI0PBK@Z 004171ce f i d3dx9:createmesh.obj
 0001:000164dc       ?StripReorder@?$GXTri3Mesh@I$0A@$0?0@@AAEJKPAI0PBK@Z 004174dc f i d3dx9:createmesh.obj
 0001:000167e6       _D3DXCreateMeshFVF@24      004177e6 f   d3dx9:createmesh.obj
 0001:0001683e       ?OptimizeInternal@?$GXTri3Mesh@G$00$0PPPP@@@AAEJKPBKPAK1PAPAUID3DXBuffer@@PAUIDirect3DVertexBuffer9@@PBU_D3DVERTEXELEMENT9@@@Z 0041783e f i d3dx9:createmesh.obj
 0001:00016f93       ?OptimizeInternal@?$GXTri3Mesh@I$0A@$0?0@@AAEJKPBKPAK1PAPAUID3DXBuffer@@PAUIDirect3DVertexBuffer9@@PBU_D3DVERTEXELEMENT9@@@Z 00417f93 f i d3dx9:createmesh.obj
 0001:000176d6       ?Optimize@?$GXTri3Mesh@G$00$0PPPP@@@UAGJKPBKPAK1PAPAUID3DXBuffer@@PAPAUID3DXMesh@@@Z 004186d6 f i d3dx9:createmesh.obj
 0001:00017887       ?OptimizeInplace@?$GXTri3Mesh@G$00$0PPPP@@@UAGJKPBKPAK1PAPAUID3DXBuffer@@@Z 00418887 f i d3dx9:createmesh.obj
 0001:00017913       ?Optimize@?$GXTri3Mesh@I$0A@$0?0@@UAGJKPBKPAK1PAPAUID3DXBuffer@@PAPAUID3DXMesh@@@Z 00418913 f i d3dx9:createmesh.obj
 0001:00017ac4       ?OptimizeInplace@?$GXTri3Mesh@I$0A@$0?0@@UAGJKPBKPAK1PAPAUID3DXBuffer@@@Z 00418ac4 f i d3dx9:createmesh.obj
 0001:00017b50       ??_GCSprite@D3DXCore@@QAEPAXI@Z 00418b50 f i d3dx9:d3dx9core.obj
 0001:00017b6c       _D3DXCreateSprite@8        00418b6c f   d3dx9:d3dx9core.obj
 0001:00017fbf       _D3DXCreateCylinder@32     00418fbf f   d3dx9:shapes.obj
 0001:00018438       _D3DXCreateSphere@24       00419438 f   d3dx9:shapes.obj
 0001:0001857b       ?c_D3DXPSGPUpdateSkinnedMesh@@YGXPBUD3DXMATRIX@@0PAE1KKPAPAE2KKPAMH@Z 0041957b f   d3dx9:psgpmesh.obj
 0001:00018985       ?CalculateEdgeControlPoint@@YGXPAUD3DXVECTOR3@@00M0@Z 00419985 f i d3dx9:psgpmesh.obj
 0001:00018a22       ?c_D3DXPSGPTessellateNPatch@@YGXPAUD3DXVECTOR3@@PAUD3DXVECTOR2@@KPAM222K@Z 00419a22 f   d3dx9:psgpmesh.obj
 0001:00018db0       ?_asm_isMMX@@YGHXZ         00419db0 f   d3dx9:cpudetect.obj
 0001:00018dd5       ?isMMXprocessor@@YGHXZ     00419dd5 f   d3dx9:cpudetect.obj
 0001:00018f2a       _D3DXCpuOptimizations@4    00419f2a f   d3dx9:cpudetect.obj
 0001:00019026       ??1CPPDefine@D3DXShader@@QAE@XZ 0041a026 f   d3dx9:cpreprocessor.obj
 0001:0001905a       ??_GCPPDefine@D3DXShader@@QAEPAXI@Z 0041a05a f i d3dx9:cpreprocessor.obj
 0001:00019076       ??0CPPConditional@D3DXShader@@QAE@HH@Z 0041a076 f   d3dx9:cpreprocessor.obj
 0001:00019090       ??1CPPConditional@D3DXShader@@QAE@XZ 0041a090 f   d3dx9:cpreprocessor.obj
 0001:000190a8       ??_GCPPConditional@D3DXShader@@QAEPAXI@Z 0041a0a8 f i d3dx9:cpreprocessor.obj
 0001:000190c4       ??0CPPInclude@D3DXShader@@QAE@XZ 0041a0c4 f   d3dx9:cpreprocessor.obj
 0001:000190f7       ??1CPPInclude@D3DXShader@@QAE@XZ 0041a0f7 f   d3dx9:cpreprocessor.obj
 0001:0001914c       ??_GCPPInclude@D3DXShader@@QAEPAXI@Z 0041a14c f i d3dx9:cpreprocessor.obj
 0001:00019168       ?InitializeFromFile@CPPInclude@D3DXShader@@QAEJPBXHPAVCTAlloc@2@PAVCTErrors@2@PAUID3DXInclude@@W4_D3DXINCLUDE_TYPE@@0@Z 0041a168 f   d3dx9:cpreprocessor.obj
 0001:0001930f       ?InitializeFromResource@CPPInclude@D3DXShader@@QAEJPAUHINSTANCE__@@PBXHPAVCTAlloc@2@PAVCTErrors@2@@Z 0041a30f f   d3dx9:cpreprocessor.obj
 0001:00019375       ??1CPPBlock@D3DXShader@@QAE@XZ 0041a375 f   d3dx9:cpreprocessor.obj
 0001:0001938d       ??_GCPPBlock@D3DXShader@@QAEPAXI@Z 0041a38d f i d3dx9:cpreprocessor.obj
 0001:000193a9       ??0CPreProcessor@D3DXShader@@QAE@XZ 0041a3a9 f   d3dx9:cpreprocessor.obj
 0001:0001944e       ??1CPreProcessor@D3DXShader@@QAE@XZ 0041a44e f   d3dx9:cpreprocessor.obj
 0001:000194ee       ?Begin@CPreProcessor@D3DXShader@@QAEJK@Z 0041a4ee f   d3dx9:cpreprocessor.obj
 0001:00019532       ?GetFileLine@CPreProcessor@D3DXShader@@QAEJPAPBDPAI@Z 0041a532 f   d3dx9:cpreprocessor.obj
 0001:00019557       ?GetBufferPointer@CPreProcessor@D3DXShader@@QAEJPAPBDPAI@Z 0041a557 f   d3dx9:cpreprocessor.obj
 0001:00019590       ?Token@CPreProcessor@D3DXShader@@IAEHXZ 0041a590 f   d3dx9:cpreprocessor.obj
 0001:000198c2       ?Error@CPreProcessor@D3DXShader@@IAAXPBDZZ 0041a8c2 f   d3dx9:cpreprocessor.obj
 0001:0001996e       ?DoLine@CPreProcessor@D3DXShader@@IAEJIPBD@Z 0041a96e f   d3dx9:cpreprocessor.obj
 0001:00019997       ?DoInclude@CPreProcessor@D3DXShader@@IAEJXZ 0041a997 f   d3dx9:cpreprocessor.obj
 0001:00019b5f       ?DoError@CPreProcessor@D3DXShader@@IAEJXZ 0041ab5f f   d3dx9:cpreprocessor.obj
 0001:00019c35       ?DoIf@CPreProcessor@D3DXShader@@IAEJH@Z 0041ac35 f   d3dx9:cpreprocessor.obj
 0001:00019c8d       ?DoElif@CPreProcessor@D3DXShader@@IAEJH@Z 0041ac8d f   d3dx9:cpreprocessor.obj
 0001:00019d00       ?DoElse@CPreProcessor@D3DXShader@@IAEJXZ 0041ad00 f   d3dx9:cpreprocessor.obj
 0001:00019d62       ?DoEndif@CPreProcessor@D3DXShader@@IAEJXZ 0041ad62 f   d3dx9:cpreprocessor.obj
 0001:00019db2       ?DoPragmaPackMatrix@CPreProcessor@D3DXShader@@IAEJXZ 0041adb2 f   d3dx9:cpreprocessor.obj
 0001:00019ecf       ?DoPragmaWarning@CPreProcessor@D3DXShader@@IAEJXZ 0041aecf f   d3dx9:cpreprocessor.obj
 0001:0001a264       ?Hash@CPreProcessor@D3DXShader@@IAEIPBD@Z 0041b264 f   d3dx9:cpreprocessor.obj
 0001:0001a279       ?AddDefine@CPreProcessor@D3DXShader@@IAEJPAVCPPDefine@2@@Z 0041b279 f   d3dx9:cpreprocessor.obj
 0001:0001a2f6       ?FindDefine@CPreProcessor@D3DXShader@@IAEHPBDPAPAVCNode@2@1@Z 0041b2f6 f   d3dx9:cpreprocessor.obj
 0001:0001a367       ?Escape@CPreProcessor@D3DXShader@@IAEIPBDIPAD@Z 0041b367 f   d3dx9:cpreprocessor.obj
 0001:0001a3cc       ?NonNull@CPreProcessor@D3DXShader@@IAEPAVCNode@2@PAV32@@Z 0041b3cc f   d3dx9:cpreprocessor.obj
 0001:0001a3ff       ?DoDefine@CPreProcessor@D3DXShader@@IAEJPBDH@Z 0041b3ff f   d3dx9:cpreprocessor.obj
 0001:0001a66d       ?DoUndef@CPreProcessor@D3DXShader@@IAEJPBD@Z 0041b66d f   d3dx9:cpreprocessor.obj
 0001:0001a6db       ?DoPragma@CPreProcessor@D3DXShader@@IAEJXZ 0041b6db f   d3dx9:cpreprocessor.obj
 0001:0001a755       ?UintDefine@CPreProcessor@D3DXShader@@IAEIPBD@Z 0041b755 f   d3dx9:cpreprocessor.obj
 0001:0001a7bb       ?CallDefine@CPreProcessor@D3DXShader@@IAEHPAUD3DXTOKEN@2@PAVCNode@2@1@Z 0041b7bb f   d3dx9:cpreprocessor.obj
 0001:0001ae8c       ?InitializeDefines@CPreProcessor@D3DXShader@@IAEJPBU_D3DXMACRO@@@Z 0041be8c f   d3dx9:cpreprocessor.obj
 0001:0001b0b3       ?Production@CPreProcessor@D3DXShader@@IAEXII@Z 0041c0b3 f   d3dx9:cpreprocessor.obj
 0001:0001b4fe       ?d3dxtok_parse@D3DXShader@@YGHXZ 0041c4fe f   d3dx9:cpreprocessor.obj
 0001:0001ba11       ?InitializeFromFile@CPreProcessor@D3DXShader@@QAEJPBXHPBU_D3DXMACRO@@PAUID3DXInclude@@@Z 0041ca11 f   d3dx9:cpreprocessor.obj
 0001:0001ba7a       ?InitializeFromResource@CPreProcessor@D3DXShader@@QAEJPAUHINSTANCE__@@PBXHPBU_D3DXMACRO@@PAUID3DXInclude@@@Z 0041ca7a f   d3dx9:cpreprocessor.obj
 0001:0001badf       ?GetToken@CPreProcessor@D3DXShader@@QAEJPAUD3DXTOKEN@2@@Z 0041cadf f   d3dx9:cpreprocessor.obj
 0001:0001bde2       ?End@CPreProcessor@D3DXShader@@QAEJXZ 0041cde2 f   d3dx9:cpreprocessor.obj
 0001:0001be3c       ??1CTAlloc@D3DXShader@@QAE@XZ 0041ce3c f   d3dx9:ctokenize.obj
 0001:0001be59       ?Alloc@CTAlloc@D3DXShader@@QAEPAXI@Z 0041ce59 f   d3dx9:ctokenize.obj
 0001:0001be7b       ??0CTErrors@D3DXShader@@QAE@XZ 0041ce7b f   d3dx9:ctokenize.obj
 0001:0001be9b       ??1CTErrors@D3DXShader@@QAE@XZ 0041ce9b f   d3dx9:ctokenize.obj
 0001:0001beca       ?Push@CTErrors@D3DXShader@@IAEJIPAI@Z 0041ceca f   d3dx9:ctokenize.obj
 0001:0001c00b       ?PreformattedError@CTErrors@D3DXShader@@QAEJPBD@Z 0041d00b f   d3dx9:ctokenize.obj
 0001:0001c061       ?GetErrorBuffer@CTErrors@D3DXShader@@QAEJPAPAUID3DXBuffer@@@Z 0041d061 f   d3dx9:ctokenize.obj
 0001:0001c0ca       ?GetErrorCount@CTErrors@D3DXShader@@QAEIXZ 0041d0ca f   d3dx9:ctokenize.obj
 0001:0001c0ce       ??0CTokenize@D3DXShader@@QAE@XZ 0041d0ce f   d3dx9:ctokenize.obj
 0001:0001c0e8       ?Initialize@CTokenize@D3DXShader@@QAEJPBXIPBDIPAVCTAlloc@2@PAVCTErrors@2@@Z 0041d0e8 f   d3dx9:ctokenize.obj
 0001:0001c150       ?SkipToEOL@CTokenize@D3DXShader@@QAEHXZ 0041d150 f   d3dx9:ctokenize.obj
 0001:0001c1a9       ?LexFloat@CTokenize@D3DXShader@@IAEIPBDPAN@Z 0041d1a9 f   d3dx9:ctokenize.obj
 0001:0001c325       ?LexIdentifier@CTokenize@D3DXShader@@IAEIPBDPAPBD@Z 0041d325 f   d3dx9:ctokenize.obj
 0001:0001c3a4       ?LexOperator@CTokenize@D3DXShader@@IAEIPBDPAD@Z 0041d3a4 f   d3dx9:ctokenize.obj
 0001:0001c4b0       ?LexFloatSuffix@CTokenize@D3DXShader@@IAEIPBDPAUD3DXTOKEN@2@@Z 0041d4b0 f   d3dx9:ctokenize.obj
 0001:0001c4f6       ?LexIntegerSuffix@CTokenize@D3DXShader@@IAEIPBDPAUD3DXTOKEN@2@@Z 0041d4f6 f   d3dx9:ctokenize.obj
 0001:0001c57d       ?SetWarningSpecifier@CTErrors@D3DXShader@@QAEJII@Z 0041d57d f   d3dx9:ctokenize.obj
 0001:0001c5e5       ?Error@CTErrors@D3DXShader@@QAAJPAUD3DXTOKEN@2@IPBDZZ 0041d5e5 f   d3dx9:ctokenize.obj
 0001:0001c6ae       ?Warning@CTErrors@D3DXShader@@QAAJPAUD3DXTOKEN@2@IPBDZZ 0041d6ae f   d3dx9:ctokenize.obj
 0001:0001c80f       ?SyntaxError@CTErrors@D3DXShader@@QAEJIPAUD3DXTOKEN@2@@Z 0041d80f f   d3dx9:ctokenize.obj
 0001:0001c952       ?SkipWhitespace@CTokenize@D3DXShader@@QAEHXZ 0041d952 f   d3dx9:ctokenize.obj
 0001:0001ca82       ?LexHex@CTokenize@D3DXShader@@IAEIPBDPAI@Z 0041da82 f   d3dx9:ctokenize.obj
 0001:0001cb27       ?LexOctal@CTokenize@D3DXShader@@IAEIPBDPAI@Z 0041db27 f   d3dx9:ctokenize.obj
 0001:0001cba3       ?LexDecimal@CTokenize@D3DXShader@@IAEIPBDPAI@Z 0041dba3 f   d3dx9:ctokenize.obj
 0001:0001cc44       ?LexStringChar@CTokenize@D3DXShader@@IAEIPBDPAI@Z 0041dc44 f   d3dx9:ctokenize.obj
 0001:0001cdda       ?LexVersion@CTokenize@D3DXShader@@IAEIPBDPAK@Z 0041ddda f   d3dx9:ctokenize.obj
 0001:0001cedd       ?LexChar@CTokenize@D3DXShader@@IAEIPBDPAI@Z 0041dedd f   d3dx9:ctokenize.obj
 0001:0001cf1c       ?LexString@CTokenize@D3DXShader@@IAEIPBDPAPBD@Z 0041df1c f   d3dx9:ctokenize.obj
 0001:0001cfff       ?GetToken@CTokenize@D3DXShader@@QAEJKPAUD3DXTOKEN@2@@Z 0041dfff f   d3dx9:ctokenize.obj
 0001:0001d16b       ?GetUsageAndIndex@D3DXShader@@YGJPBDPAE1@Z 0041e16b f   d3dx9:cassembler.obj
 0001:0001d406       ?RegisterHash@D3DXShader@@YGIPBD@Z 0041e406 f   d3dx9:cassembler.obj
 0001:0001d442       ?GetElement@CFragmentRegisterAllocator@D3DXShader@@QAEPAVCRegisterEntryNode@2@PBD@Z 0041e442 f   d3dx9:cassembler.obj
 0001:0001d474       ?GetElements@CFragmentRegisterAllocator@D3DXShader@@QAEXPAPAVCRegisterEntryNode@2@@Z 0041e474 f   d3dx9:cassembler.obj
 0001:0001d499       ??0CAssembler@D3DXShader@@QAE@XZ 0041e499 f   d3dx9:cassembler.obj
 0001:0001d4b5       ?Error@CAssembler@D3DXShader@@IAAXPBDZZ 0041e4b5 f   d3dx9:cassembler.obj
 0001:0001d573       ?ValidationError@CAssembler@D3DXShader@@KGJPBDIKI0PAX@Z 0041e573 f   d3dx9:cassembler.obj
 0001:0001d5df       ?NonNull@CAssembler@D3DXShader@@IAEPAVCNode@2@PAV32@@Z 0041e5df f   d3dx9:cassembler.obj
 0001:0001d614       ?DecodeOpcode@CAssembler@D3DXShader@@IAEHPAUD3DXTOKEN@2@@Z 0041e614 f   d3dx9:cassembler.obj
 0001:0001dfa8       ?DecodeMask@CAssembler@D3DXShader@@IAEKPAUD3DXTOKEN@2@@Z 0041efa8 f   d3dx9:cassembler.obj
 0001:0001e05b       ?DecodeSwizzle@CAssembler@D3DXShader@@IAEKPAUD3DXTOKEN@2@@Z 0041f05b f   d3dx9:cassembler.obj
 0001:0001e115       ?Validate@CAssembler@D3DXShader@@IAEJPAUD3DXTOKEN@2@@Z 0041f115 f   d3dx9:cassembler.obj
 0001:0001e165       ?Assure@CAssembler@D3DXShader@@IAEJI@Z 0041f165 f   d3dx9:cassembler.obj
 0001:0001e1e3       ?Emit@CAssembler@D3DXShader@@IAEJK@Z 0041f1e3 f   d3dx9:cassembler.obj
 0001:0001e207       ?EmitInstruction@CAssembler@D3DXShader@@IAEJPAVCNode@2@@Z 0041f207 f   d3dx9:cassembler.obj
 0001:0001e981       ?compare@D3DXShader@@YAHPBX0@Z 0041f981 f   d3dx9:cassembler.obj
 0001:0001ea2d       ?EmitFragmentInfo@CAssembler@D3DXShader@@IAEJXZ 0041fa2d f   d3dx9:cassembler.obj
 0001:0001ec4d       ?EmitDebugInfo@CAssembler@D3DXShader@@IAEJXZ 0041fc4d f   d3dx9:cassembler.obj
 0001:0001ef32       ??_GCRegisterEntryNode@D3DXShader@@QAEPAXI@Z 0041ff32 f i d3dx9:cassembler.obj
 0001:0001ef4e       ??1CFragmentRegisterAllocator@D3DXShader@@QAE@XZ 0041ff4e f i d3dx9:cassembler.obj
 0001:0001ef6b       ?GetShaderCode@CAssembler@D3DXShader@@IAEJPAPAUID3DXBuffer@@@Z 0041ff6b f   d3dx9:cassembler.obj
 0001:0001efc2       ?AddElement@CFragmentRegisterAllocator@D3DXShader@@QAEJPBDII@Z 0041ffc2 f   d3dx9:cassembler.obj
 0001:0001f057       ??0CFragmentInfo@D3DXShader@@QAE@XZ 00420057 f   d3dx9:cassembler.obj
 0001:0001f083       ??1CFragmentInfo@D3DXShader@@QAE@XZ 00420083 f   d3dx9:cassembler.obj
 0001:0001f09e       ?GetRegisterInfo@CFragmentInfo@D3DXShader@@QAEJPAVCTErrors@2@PAVCFragmentConstants@2@PAUD3DXTOKEN@2@PBDPAVCNode@2@PAK55@Z 0042009e f   d3dx9:cassembler.obj
 0001:0001f2c9       ??_GCFragmentInfo@D3DXShader@@QAEPAXI@Z 004202c9 f i d3dx9:cassembler.obj
 0001:0001f2e5       ?Token@CAssembler@D3DXShader@@IAEHXZ 004202e5 f   d3dx9:cassembler.obj
 0001:0001f3c1       ?DecodeRegister@CAssembler@D3DXShader@@IAEPAVCNode@2@PAUD3DXTOKEN@2@PAV32@@Z 004203c1 f   d3dx9:cassembler.obj
 0001:0001f8c2       ??1CRegisterEntryNode@D3DXShader@@QAE@XZ 004208c2 f i d3dx9:cassembler.obj
 0001:0001f8dd       ??1CAssembler@D3DXShader@@QAE@XZ 004208dd f   d3dx9:cassembler.obj
 0001:0001f917       ?Production@CAssembler@D3DXShader@@IAEXII@Z 00420917 f   d3dx9:cassembler.obj
 0001:0001ff5d       ?d3dxasm_parse@D3DXShader@@YGHXZ 00420f5d f   d3dx9:cassembler.obj
 0001:0002052b       ?Assemble@CAssembler@D3DXShader@@QAEJPAVCPreProcessor@2@KPAVCFragmentConstants@2@PAPAUID3DXBuffer@@@Z 0042152b f   d3dx9:cassembler.obj
 0001:0002099c       ??1CBuffer@D3DXCore@@UAE@XZ 0042199c f   d3dx9:cbuffer.obj
 0001:000209ac       ?Init@CBuffer@D3DXCore@@UAEJK@Z 004219ac f   d3dx9:cbuffer.obj
 0001:000209d3       ?Release@CBuffer@D3DXCore@@UAGKXZ 004219d3 f   d3dx9:cbuffer.obj
 0001:000209f3       ?GetBufferPointer@CBuffer@D3DXCore@@UAGPAXXZ 004219f3 f   d3dx9:cbuffer.obj
 0001:000209fd       ?GetBufferSize@CBuffer@D3DXCore@@UAGKXZ 004219fd f   d3dx9:cbuffer.obj
 0001:00020a07       ??1CBufferA16@D3DXCore@@UAE@XZ 00421a07 f   d3dx9:cbuffer.obj
 0001:00020a22       ??_GCBufferA16@D3DXCore@@UAEPAXI@Z 00421a22 f i d3dx9:cbuffer.obj
 0001:00020a22       ??_ECBufferA16@D3DXCore@@UAEPAXI@Z 00421a22 f i d3dx9:cbuffer.obj
 0001:00020a3e       ?Init@CBufferA16@D3DXCore@@UAEJK@Z 00421a3e f   d3dx9:cbuffer.obj
 0001:00020a6f       ?Init@CStringBuffer@D3DXCore@@UAEJK@Z 00421a6f f   d3dx9:cbuffer.obj
 0001:00020a93       ?AddString@CStringBuffer@D3DXCore@@UAEJPAD@Z 00421a93 f   d3dx9:cbuffer.obj
 0001:00020ba0       ?QueryInterface@CBuffer@D3DXCore@@UAGJABU_GUID@@PAPAX@Z 00421ba0 f   d3dx9:cbuffer.obj
 0001:00020be7       ??0CBuffer@D3DXCore@@QAE@XZ 00421be7 f   d3dx9:cbuffer.obj
 0001:00020bff       ?Create@CBuffer@D3DXCore@@SGJKPAPAV12@@Z 00421bff f   d3dx9:cbuffer.obj
 0001:00020c5d       ??0CStringBuffer@D3DXCore@@QAE@XZ 00421c5d f   d3dx9:cbuffer.obj
 0001:00020c73       ??_GCBuffer@D3DXCore@@UAEPAXI@Z 00421c73 f i d3dx9:cbuffer.obj
 0001:00020c73       ??_ECBuffer@D3DXCore@@UAEPAXI@Z 00421c73 f i d3dx9:cbuffer.obj
 0001:00020c73       ??_ECStringBuffer@D3DXCore@@UAEPAXI@Z 00421c73 f i d3dx9:cbuffer.obj
 0001:00020c73       ??_GCStringBuffer@D3DXCore@@UAEPAXI@Z 00421c73 f i d3dx9:cbuffer.obj
 0001:00020c8f       ?Create@CStringBuffer@D3DXCore@@SGJKPAPAV12@@Z 00421c8f f   d3dx9:cbuffer.obj
 0001:00020ced       _D3DXCreateBuffer@8        00421ced f   d3dx9:cbuffer.obj
 0001:00020cf2       ?Create@CBufferA16@D3DXCore@@SGJKPAPAV12@@Z 00421cf2 f   d3dx9:cbuffer.obj
 0001:00020d56       ?D3DXDebugMute@@YGXH@Z     00421d56 f   d3dx9:d3dx9dbg.obj
 0001:00020e26       ??0CImage@D3DXTex@@QAE@XZ  00421e26 f   d3dx9:cimage.obj
 0001:00020e3f       ??1CImage@D3DXTex@@QAE@XZ  00421e3f f   d3dx9:cimage.obj
 0001:00020e98       ??_GCImage@D3DXTex@@QAEPAXI@Z 00421e98 f i d3dx9:cimage.obj
 0001:00020eb4       ?LoadDIB@CImage@D3DXTex@@AAEJPBXK@Z 00421eb4 f   d3dx9:cimage.obj
 0001:00021a46       ?LoadJPG@CImage@D3DXTex@@AAEJPBXK@Z 00422a46 f   d3dx9:cimage.obj
 0001:00021cbe       ?LoadTGA@CImage@D3DXTex@@AAEJPBXK@Z 00422cbe f   d3dx9:cimage.obj
 0001:00022236       ?LoadPPM@CImage@D3DXTex@@AAEJPBXK@Z 00423236 f   d3dx9:cimage.obj
 0001:00022509       ?LoadPNG@CImage@D3DXTex@@AAEJPBXK@Z 00423509 f   d3dx9:cimage.obj
 0001:00022a5a       ?LoadDDS@CImage@D3DXTex@@AAEJPBXK@Z 00423a5a f   d3dx9:cimage.obj
 0001:00022dc6       ?LoadBMP@CImage@D3DXTex@@AAEJPBXK@Z 00423dc6 f   d3dx9:cimage.obj
 0001:00022df6       ?Load@CImage@D3DXTex@@QAEJPBXKPAU_D3DXIMAGE_INFO@@H@Z 00423df6 f   d3dx9:cimage.obj
 0001:00022fdf       ??0CBlt@D3DXTex@@QAE@XZ    00423fdf f   d3dx9:cblt.obj
 0001:00022fe9       ??1CBlt@D3DXTex@@QAE@XZ    00423fe9 f   d3dx9:cblt.obj
 0001:00023007       _floorf@4                  00424007 f i d3dx9:cblt.obj
 0001:0002301a       ??0CResource@D3DXCore@@QAE@XZ 0042401a f i d3dx9:cresource.obj
 0001:0002301a       ??0TF_Row@D3DXTex@@QAE@XZ  0042401a f i d3dx9:cblt.obj
 0001:00023027       ??1TF_Row@D3DXTex@@QAE@XZ  00424027 f i d3dx9:cblt.obj
 0001:000232ec       ?BltSame_DXTn@CBlt@D3DXTex@@IAEJXZ 004242ec f   d3dx9:cblt.obj
 0001:0002347a       ?c_BoxFilter2D_A8R8G8B8@D3DXTex@@YGJPAI0IIII@Z 0042447a f   d3dx9:cblt.obj
 0001:000235a2       ?BltBox2D_A8R8G8B8@CBlt@D3DXTex@@IAEJXZ 004245a2 f   d3dx9:cblt.obj
 0001:00023839       ?BltBox2D_X8R8G8B8@CBlt@D3DXTex@@IAEJXZ 00424839 f   d3dx9:cblt.obj
 0001:00023867       ?BltBox2D_R5G6B5@CBlt@D3DXTex@@IAEJXZ 00424867 f   d3dx9:cblt.obj
 0001:000239b7       ?BltBox2D_X1R5G5B5@CBlt@D3DXTex@@IAEJXZ 004249b7 f   d3dx9:cblt.obj
 0001:00023adb       ?BltBox2D_A1R5G5B5@CBlt@D3DXTex@@IAEJXZ 00424adb f   d3dx9:cblt.obj
 0001:00023c2a       ?BltBox2D_A4R4G4B4@CBlt@D3DXTex@@IAEJXZ 00424c2a f   d3dx9:cblt.obj
 0001:00023d7d       ?BltBox2D_R3G3B2@CBlt@D3DXTex@@IAEJXZ 00424d7d f   d3dx9:cblt.obj
 0001:00023ebc       ?BltBox2D_A8@CBlt@D3DXTex@@IAEJXZ 00424ebc f   d3dx9:cblt.obj
 0001:00023f57       ?BltBox2D_A8R3G3B2@CBlt@D3DXTex@@IAEJXZ 00424f57 f   d3dx9:cblt.obj
 0001:000240a3       ?BltBox2D_X4R4G4B4@CBlt@D3DXTex@@IAEJXZ 004250a3 f   d3dx9:cblt.obj
 0001:000241c4       ?BltBox2D_A8L8@CBlt@D3DXTex@@IAEJXZ 004251c4 f   d3dx9:cblt.obj
 0001:00024310       ?BltBox2D_A4L4@CBlt@D3DXTex@@IAEJXZ 00425310 f   d3dx9:cblt.obj
 0001:0002444f       ?BltSame@CBlt@D3DXTex@@IAEJXZ 0042544f f   d3dx9:cblt.obj
 0001:0002458c       ?BltCopy@CBlt@D3DXTex@@IAEJXZ 0042558c f   d3dx9:cblt.obj
 0001:0002466a       ?BltNone@CBlt@D3DXTex@@IAEJXZ 0042566a f   d3dx9:cblt.obj
 0001:0002485f       ?BltPoint@CBlt@D3DXTex@@IAEJXZ 0042585f f   d3dx9:cblt.obj
 0001:00024a58       ?BltBox2D@CBlt@D3DXTex@@IAEJXZ 00425a58 f   d3dx9:cblt.obj
 0001:00024e67       ?BltBox3D@CBlt@D3DXTex@@IAEJXZ 00425e67 f   d3dx9:cblt.obj
 0001:0002538e       ?BltLinear2D@CBlt@D3DXTex@@IAEJXZ 0042638e f   d3dx9:cblt.obj
 0001:0002571d       ?BltLinear3D@CBlt@D3DXTex@@IAEJXZ 0042671d f   d3dx9:cblt.obj
 0001:00025d9c       ??_ETF_Row@D3DXTex@@QAEPAXI@Z 00426d9c f i d3dx9:cblt.obj
 0001:00025de8       ?BltTriangle3D@CBlt@D3DXTex@@IAEJXZ 00426de8 f   d3dx9:cblt.obj
 0001:000264ac       ?BltTriangle2D@CBlt@D3DXTex@@IAEJXZ 004274ac f   d3dx9:cblt.obj
 0001:00026a9a       ?Blt@CBlt@D3DXTex@@QAEJPAUD3DX_BLT@@0K@Z 00427a9a f   d3dx9:cblt.obj
 0001:00026bc9       ??0CLockSurface@D3DXTex@@QAE@XZ 00427bc9 f   d3dx9:clock.obj
 0001:00026bdc       ?InternalCopy@D3DXTex@@YGJPAUIDirect3DSurface9@@0@Z 00427bdc f   d3dx9:clock.obj
 0001:00026cb9       ?Unlock@CLockSurface@D3DXTex@@QAEJXZ 00427cb9 f   d3dx9:clock.obj
 0001:00026d6a       ??0CTAlloc@D3DXShader@@QAE@XZ 00427d6a f   d3dx9:ctokenize.obj
 0001:00026d6a       ??0CLockVolume@D3DXTex@@QAE@XZ 00427d6a f   d3dx9:clock.obj
 0001:00026d70       ?Unlock@CLockVolume@D3DXTex@@QAEJXZ 00427d70 f   d3dx9:clock.obj
 0001:00026d92       ??1CLockSurface@D3DXTex@@QAE@XZ 00427d92 f   d3dx9:clock.obj
 0001:00026d97       ?Lock@CLockSurface@D3DXTex@@QAEJPAUD3DX_BLT@@PAUIDirect3DSurface9@@PBUtagPALETTEENTRY@@PBUtagRECT@@KK@Z 00427d97 f   d3dx9:clock.obj
 0001:00027281       ??1CLockVolume@D3DXTex@@QAE@XZ 00428281 f   d3dx9:clock.obj
 0001:00027286       ?Lock@CLockVolume@D3DXTex@@QAEJPAUD3DX_BLT@@PAUIDirect3DVolume9@@PBUtagPALETTEENTRY@@PBU_D3DBOX@@KK@Z 00428286 f   d3dx9:clock.obj
 0001:000275f5       ??1CCodec@D3DXTex@@UAE@XZ  004285f5 f   d3dx9:ccodec.obj
 0001:00027608       ?Decode@CCodec@D3DXTex@@UAEXIIPAUD3DXCOLOR@@@Z 00428608 f   d3dx9:ccodec.obj
 0001:00027608       ?Encode@CCodec@D3DXTex@@UAEXIIPAUD3DXCOLOR@@@Z 00428608 f   d3dx9:ccodec.obj
 0001:0002760b       ?Convert@CCodec@D3DXTex@@IAEPAUD3DXCOLOR@@PAU3@@Z 0042860b f   d3dx9:ccodec.obj
 0001:00027bcf       ??1CCodecDXT@D3DXTex@@UAE@XZ 00428bcf f   d3dx9:ccodec.obj
 0001:00027c49       ?QuantizeColorKey@CCodecDXT@D3DXTex@@MAEXXZ 00428c49 f   d3dx9:ccodec.obj
 0001:00027d4a       ?TableEncodeGamma22@D3DXTex@@YGMM@Z 00428d4a f i d3dx9:ccodec.obj
 0001:00027d9a       ?TableDecodeGamma22@D3DXTex@@YGMM@Z 00428d9a f i d3dx9:ccodec.obj
 0001:00027de1       ??0CCodec@D3DXTex@@IAE@PAUD3DX_BLT@@IK@Z 00428de1 f   d3dx9:ccodec.obj
 0001:00028052       ?ConvertFrom@CCodec@D3DXTex@@QAEJPAV12@@Z 00429052 f   d3dx9:ccodec.obj
 0001:000280db       ?QuantizeColorKey@CCodec@D3DXTex@@MAEXXZ 004290db f   d3dx9:ccodec.obj
 0001:000281ae       ?ColorKey@CCodec@D3DXTex@@IAEXPAUD3DXCOLOR@@@Z 004291ae f   d3dx9:ccodec.obj
 0001:0002821e       ?EncodeGamma22@CCodec@D3DXTex@@IAEPAUD3DXCOLOR@@PAU3@@Z 0042921e f   d3dx9:ccodec.obj
 0001:000284a0       ?DecodeGamma22@CCodec@D3DXTex@@IAEXPAUD3DXCOLOR@@@Z 004294a0 f   d3dx9:ccodec.obj
 0001:000285d6       ?Encode@CCodec_R8G8B8@D3DXTex@@UAEXIIPAUD3DXCOLOR@@@Z 004295d6 f   d3dx9:ccodec.obj
 0001:000286e7       ?Encode@CCodec_A8R8G8B8@D3DXTex@@UAEXIIPAUD3DXCOLOR@@@Z 004296e7 f   d3dx9:ccodec.obj
 0001:00028830       ?Encode@CCodec_X8R8G8B8@D3DXTex@@UAEXIIPAUD3DXCOLOR@@@Z 00429830 f   d3dx9:ccodec.obj
 0001:00028955       ?Encode@CCodec_R5G6B5@D3DXTex@@UAEXIIPAUD3DXCOLOR@@@Z 00429955 f   d3dx9:ccodec.obj
 0001:00028a7a       ?Encode@CCodec_X1R5G5B5@D3DXTex@@UAEXIIPAUD3DXCOLOR@@@Z 00429a7a f   d3dx9:ccodec.obj
 0001:00028b9f       ?Encode@CCodec_A1R5G5B5@D3DXTex@@UAEXIIPAUD3DXCOLOR@@@Z 00429b9f f   d3dx9:ccodec.obj
 0001:00028ce2       ?Encode@CCodec_A4R4G4B4@D3DXTex@@UAEXIIPAUD3DXCOLOR@@@Z 00429ce2 f   d3dx9:ccodec.obj
 0001:00028e2b       ?Encode@CCodec_R3G3B2@D3DXTex@@UAEXIIPAUD3DXCOLOR@@@Z 00429e2b f   d3dx9:ccodec.obj
 0001:00028f50       ?Encode@CCodec_A8@D3DXTex@@UAEXIIPAUD3DXCOLOR@@@Z 00429f50 f   d3dx9:ccodec.obj
 0001:0002901c       ?Encode@CCodec_A8R3G3B2@D3DXTex@@UAEXIIPAUD3DXCOLOR@@@Z 0042a01c f   d3dx9:ccodec.obj
 0001:00029165       ?Encode@CCodec_X4R4G4B4@D3DXTex@@UAEXIIPAUD3DXCOLOR@@@Z 0042a165 f   d3dx9:ccodec.obj
 0001:0002928a       ?Encode@CCodec_A2B10G10R10@D3DXTex@@UAEXIIPAUD3DXCOLOR@@@Z 0042a28a f   d3dx9:ccodec.obj
 0001:000293d3       ?Encode@CCodec_A8B8G8R8@D3DXTex@@UAEXIIPAUD3DXCOLOR@@@Z 0042a3d3 f   d3dx9:ccodec.obj
 0001:0002951c       ?Encode@CCodec_X8B8G8R8@D3DXTex@@UAEXIIPAUD3DXCOLOR@@@Z 0042a51c f   d3dx9:ccodec.obj
 0001:00029641       ?Encode@CCodec_G16R16@D3DXTex@@UAEXIIPAUD3DXCOLOR@@@Z 0042a641 f   d3dx9:ccodec.obj
 0001:00029738       ?Encode@CCodec_A2R10G10B10@D3DXTex@@UAEXIIPAUD3DXCOLOR@@@Z 0042a738 f   d3dx9:ccodec.obj
 0001:00029881       ?Encode@CCodec_A16B16G16R16@D3DXTex@@UAEXIIPAUD3DXCOLOR@@@Z 0042a881 f   d3dx9:ccodec.obj
 0001:00029a02       ?Encode@CCodec_A8P8@D3DXTex@@UAEXIIPAUD3DXCOLOR@@@Z 0042aa02 f   d3dx9:ccodec.obj
 0001:00029b49       ?Encode@CCodec_P8@D3DXTex@@UAEXIIPAUD3DXCOLOR@@@Z 0042ab49 f   d3dx9:ccodec.obj
 0001:00029c23       ?Encode@CCodec_L8@D3DXTex@@UAEXIIPAUD3DXCOLOR@@@Z 0042ac23 f   d3dx9:ccodec.obj
 0001:00029d0b       ?Encode@CCodec_A8L8@D3DXTex@@UAEXIIPAUD3DXCOLOR@@@Z 0042ad0b f   d3dx9:ccodec.obj
 0001:00029e26       ?Encode@CCodec_A4L4@D3DXTex@@UAEXIIPAUD3DXCOLOR@@@Z 0042ae26 f   d3dx9:ccodec.obj
 0001:00029f36       ?Encode@CCodec_V8U8@D3DXTex@@UAEXIIPAUD3DXCOLOR@@@Z 0042af36 f   d3dx9:ccodec.obj
 0001:0002a031       ?Encode@CCodec_L6V5U5@D3DXTex@@UAEXIIPAUD3DXCOLOR@@@Z 0042b031 f   d3dx9:ccodec.obj
 0001:0002a15b       ?Encode@CCodec_X8L8V8U8@D3DXTex@@UAEXIIPAUD3DXCOLOR@@@Z 0042b15b f   d3dx9:ccodec.obj
 0001:0002a28d       ?Encode@CCodec_Q8W8V8U8@D3DXTex@@UAEXIIPAUD3DXCOLOR@@@Z 0042b28d f   d3dx9:ccodec.obj
 0001:0002a3ec       ?Encode@CCodec_V16U16@D3DXTex@@UAEXIIPAUD3DXCOLOR@@@Z 0042b3ec f   d3dx9:ccodec.obj
 0001:0002a4e7       ?Encode@CCodec_A2W10V10U10@D3DXTex@@UAEXIIPAUD3DXCOLOR@@@Z 0042b4e7 f   d3dx9:ccodec.obj
 0001:0002a646       ?Encode@CCodec_Q16W16V16U16@D3DXTex@@UAEXIIPAUD3DXCOLOR@@@Z 0042b646 f   d3dx9:ccodec.obj
 0001:0002a7dd       ?Encode@CCodec_CxV8U8@D3DXTex@@UAEXIIPAUD3DXCOLOR@@@Z 0042b7dd f   d3dx9:ccodec.obj
 0001:0002a8e2       ?Encode@CCodec_D16_LOCKABLE@D3DXTex@@UAEXIIPAUD3DXCOLOR@@@Z 0042b8e2 f   d3dx9:ccodec.obj
 0001:0002a8e2       ?Encode@CCodec_L16@D3DXTex@@UAEXIIPAUD3DXCOLOR@@@Z 0042b8e2 f   d3dx9:ccodec.obj
 0001:0002a9cc       ?Encode@CCodec_D32F_LOCKABLE@D3DXTex@@UAEXIIPAUD3DXCOLOR@@@Z 0042b9cc f   d3dx9:ccodec.obj
 0001:0002a9cc       ?Encode@CCodec_R32F@D3DXTex@@UAEXIIPAUD3DXCOLOR@@@Z 0042b9cc f   d3dx9:ccodec.obj
 0001:0002aa21       ?Encode@CCodec_R16F@D3DXTex@@UAEXIIPAUD3DXCOLOR@@@Z 0042ba21 f   d3dx9:ccodec.obj
 0001:0002aa83       ?Encode@CCodec_G16R16F@D3DXTex@@UAEXIIPAUD3DXCOLOR@@@Z 0042ba83 f   d3dx9:ccodec.obj
 0001:0002aae6       ?Encode@CCodec_A16B16G16R16F@D3DXTex@@UAEXIIPAUD3DXCOLOR@@@Z 0042bae6 f   d3dx9:ccodec.obj
 0001:0002ab2e       ?Encode@CCodec_G32R32F@D3DXTex@@UAEXIIPAUD3DXCOLOR@@@Z 0042bb2e f   d3dx9:ccodec.obj
 0001:0002ab8b       ?Encode@CCodec_A32B32G32R32F@D3DXTex@@UAEXIIPAUD3DXCOLOR@@@Z 0042bb8b f   d3dx9:ccodec.obj
 0001:0002abde       ?Encode@CCodec_D3DX_A16L16@D3DXTex@@UAEXIIPAUD3DXCOLOR@@@Z 0042bbde f   d3dx9:ccodec.obj
 0001:0002acf4       ?Encode@CCodec_D3DX_R16G16B16@D3DXTex@@UAEXIIPAUD3DXCOLOR@@@Z 0042bcf4 f   d3dx9:ccodec.obj
 0001:0002ae07       ?Decode@CCodec_R8G8B8@D3DXTex@@UAEXIIPAUD3DXCOLOR@@@Z 0042be07 f   d3dx9:ccodec.obj
 0001:0002aeac       ?Decode@CCodec_A8R8G8B8@D3DXTex@@UAEXIIPAUD3DXCOLOR@@@Z 0042beac f   d3dx9:ccodec.obj
 0001:0002af6b       ?Decode@CCodec_X8R8G8B8@D3DXTex@@UAEXIIPAUD3DXCOLOR@@@Z 0042bf6b f   d3dx9:ccodec.obj
 0001:0002b020       ?Decode@CCodec_R5G6B5@D3DXTex@@UAEXIIPAUD3DXCOLOR@@@Z 0042c020 f   d3dx9:ccodec.obj
 0001:0002b0da       ?Decode@CCodec_X1R5G5B5@D3DXTex@@UAEXIIPAUD3DXCOLOR@@@Z 0042c0da f   d3dx9:ccodec.obj
 0001:0002b191       ?Decode@CCodec_A1R5G5B5@D3DXTex@@UAEXIIPAUD3DXCOLOR@@@Z 0042c191 f   d3dx9:ccodec.obj
 0001:0002b256       ?Decode@CCodec_A4R4G4B4@D3DXTex@@UAEXIIPAUD3DXCOLOR@@@Z 0042c256 f   d3dx9:ccodec.obj
 0001:0002b31a       ?Decode@CCodec_A2B10G10R10@D3DXTex@@UAEXIIPAUD3DXCOLOR@@@Z 0042c31a f   d3dx9:ccodec.obj
 0001:0002b409       ?Decode@CCodec_A8B8G8R8@D3DXTex@@UAEXIIPAUD3DXCOLOR@@@Z 0042c409 f   d3dx9:ccodec.obj
 0001:0002b4c8       ?Decode@CCodec_X8B8G8R8@D3DXTex@@UAEXIIPAUD3DXCOLOR@@@Z 0042c4c8 f   d3dx9:ccodec.obj
 0001:0002b57d       ?Decode@CCodec_G16R16@D3DXTex@@UAEXIIPAUD3DXCOLOR@@@Z 0042c57d f   d3dx9:ccodec.obj
 0001:0002b628       ?Decode@CCodec_A2R10G10B10@D3DXTex@@UAEXIIPAUD3DXCOLOR@@@Z 0042c628 f   d3dx9:ccodec.obj
 0001:0002b717       ?Decode@CCodec_A16B16G16R16@D3DXTex@@UAEXIIPAUD3DXCOLOR@@@Z 0042c717 f   d3dx9:ccodec.obj
 0001:0002b81e       ?Decode@CCodec_R3G3B2@D3DXTex@@UAEXIIPAUD3DXCOLOR@@@Z 0042c81e f   d3dx9:ccodec.obj
 0001:0002b8d5       ?Decode@CCodec_A8@D3DXTex@@UAEXIIPAUD3DXCOLOR@@@Z 0042c8d5 f   d3dx9:ccodec.obj
 0001:0002b960       ?Decode@CCodec_A8R3G3B2@D3DXTex@@UAEXIIPAUD3DXCOLOR@@@Z 0042c960 f   d3dx9:ccodec.obj
 0001:0002ba27       ??0CCodec_R8G8B8@D3DXTex@@QAE@PAUD3DX_BLT@@@Z 0042ca27 f i d3dx9:ccodec.obj
 0001:0002ba43       ?Decode@CCodec_X4R4G4B4@D3DXTex@@UAEXIIPAUD3DXCOLOR@@@Z 0042ca43 f   d3dx9:ccodec.obj
 0001:0002baf7       ??0CCodec_A8R8G8B8@D3DXTex@@QAE@PAUD3DX_BLT@@@Z 0042caf7 f i d3dx9:ccodec.obj
 0001:0002bb13       ?Decode@CCodec_A8P8@D3DXTex@@UAEXIIPAUD3DXCOLOR@@@Z 0042cb13 f   d3dx9:ccodec.obj
 0001:0002bbb0       ??0CCodec_X8R8G8B8@D3DXTex@@QAE@PAUD3DX_BLT@@@Z 0042cbb0 f i d3dx9:ccodec.obj
 0001:0002bbcc       ??0CCodec_R5G6B5@D3DXTex@@QAE@PAUD3DX_BLT@@@Z 0042cbcc f i d3dx9:ccodec.obj
 0001:0002bbe8       ?Decode@CCodec_P8@D3DXTex@@UAEXIIPAUD3DXCOLOR@@@Z 0042cbe8 f   d3dx9:ccodec.obj
 0001:0002bc64       ??0CCodec_X1R5G5B5@D3DXTex@@QAE@PAUD3DX_BLT@@@Z 0042cc64 f i d3dx9:ccodec.obj
 0001:0002bc80       ?Decode@CCodec_L8@D3DXTex@@UAEXIIPAUD3DXCOLOR@@@Z 0042cc80 f   d3dx9:ccodec.obj
 0001:0002bd07       ??0CCodec_A1R5G5B5@D3DXTex@@QAE@PAUD3DX_BLT@@@Z 0042cd07 f i d3dx9:ccodec.obj
 0001:0002bd23       ?Decode@CCodec_A8L8@D3DXTex@@UAEXIIPAUD3DXCOLOR@@@Z 0042cd23 f   d3dx9:ccodec.obj
 0001:0002bdc1       ??0CCodec_A4R4G4B4@D3DXTex@@QAE@PAUD3DX_BLT@@@Z 0042cdc1 f i d3dx9:ccodec.obj
 0001:0002bddd       ?Decode@CCodec_A4L4@D3DXTex@@UAEXIIPAUD3DXCOLOR@@@Z 0042cddd f   d3dx9:ccodec.obj
 0001:0002be7b       ??0CCodec_R3G3B2@D3DXTex@@QAE@PAUD3DX_BLT@@@Z 0042ce7b f i d3dx9:ccodec.obj
 0001:0002be97       ?Decode@CCodec_L16@D3DXTex@@UAEXIIPAUD3DXCOLOR@@@Z 0042ce97 f   d3dx9:ccodec.obj
 0001:0002be97       ?Decode@CCodec_D16_LOCKABLE@D3DXTex@@UAEXIIPAUD3DXCOLOR@@@Z 0042ce97 f   d3dx9:ccodec.obj
 0001:0002bf20       ??0CCodec_A8@D3DXTex@@QAE@PAUD3DX_BLT@@@Z 0042cf20 f i d3dx9:ccodec.obj
 0001:0002bf3c       ?Decode@CCodec_V8U8@D3DXTex@@UAEXIIPAUD3DXCOLOR@@@Z 0042cf3c f   d3dx9:ccodec.obj
 0001:0002bff7       ??0CCodec_A8R3G3B2@D3DXTex@@QAE@PAUD3DX_BLT@@@Z 0042cff7 f i d3dx9:ccodec.obj
 0001:0002c013       ??_GCCodec_A8R3G3B2@D3DXTex@@UAEPAXI@Z 0042d013 f i d3dx9:ccodec.obj
 0001:0002c013       ??_ECCodec_V16U16@D3DXTex@@UAEPAXI@Z 0042d013 f i d3dx9:ccodec.obj
 0001:0002c013       ??_ECCodec_A4L4@D3DXTex@@UAEPAXI@Z 0042d013 f i d3dx9:ccodec.obj
 0001:0002c013       ??_GCCodec_A2W10V10U10@D3DXTex@@UAEPAXI@Z 0042d013 f i d3dx9:ccodec.obj
 0001:0002c013       ??_GCCodec_A2R10G10B10@D3DXTex@@UAEPAXI@Z 0042d013 f i d3dx9:ccodec.obj
 0001:0002c013       ??_ECCodec_X8L8V8U8@D3DXTex@@UAEPAXI@Z 0042d013 f i d3dx9:ccodec.obj
 0001:0002c013       ??_ECCodec_D3DX_A16L16@D3DXTex@@UAEPAXI@Z 0042d013 f i d3dx9:ccodec.obj
 0001:0002c013       ??_ECCodec_X4R4G4B4@D3DXTex@@UAEPAXI@Z 0042d013 f i d3dx9:ccodec.obj
 0001:0002c013       ??_GCCodec_L8@D3DXTex@@UAEPAXI@Z 0042d013 f i d3dx9:ccodec.obj
 0001:0002c013       ??_GCCodec_A16B16G16R16F@D3DXTex@@UAEPAXI@Z 0042d013 f i d3dx9:ccodec.obj
 0001:0002c013       ??_GCCodec_X1R5G5B5@D3DXTex@@UAEPAXI@Z 0042d013 f i d3dx9:ccodec.obj
 0001:0002c013       ??_ECCodec_A8B8G8R8@D3DXTex@@UAEPAXI@Z 0042d013 f i d3dx9:ccodec.obj
 0001:0002c013       ??_ECCodec_G16R16@D3DXTex@@UAEPAXI@Z 0042d013 f i d3dx9:ccodec.obj
 0001:0002c013       ??_ECCodec_R5G6B5@D3DXTex@@UAEPAXI@Z 0042d013 f i d3dx9:ccodec.obj
 0001:0002c013       ??_ECCodec_P8@D3DXTex@@UAEPAXI@Z 0042d013 f i d3dx9:ccodec.obj
 0001:0002c013       ??_GCCodec_R32F@D3DXTex@@UAEPAXI@Z 0042d013 f i d3dx9:ccodec.obj
 0001:0002c013       ??_GCCodec_A8P8@D3DXTex@@UAEPAXI@Z 0042d013 f i d3dx9:ccodec.obj
 0001:0002c013       ??_GCCodec_L16@D3DXTex@@UAEPAXI@Z 0042d013 f i d3dx9:ccodec.obj
 0001:0002c013       ??_GCCodec_X8L8V8U8@D3DXTex@@UAEPAXI@Z 0042d013 f i d3dx9:ccodec.obj
 0001:0002c013       ??_ECCodec_A16B16G16R16F@D3DXTex@@UAEPAXI@Z 0042d013 f i d3dx9:ccodec.obj
 0001:0002c013       ??_GCCodec_V16U16@D3DXTex@@UAEPAXI@Z 0042d013 f i d3dx9:ccodec.obj
 0001:0002c013       ??_GCCodec_A8R8G8B8@D3DXTex@@UAEPAXI@Z 0042d013 f i d3dx9:ccodec.obj
 0001:0002c013       ??_ECCodec_A32B32G32R32F@D3DXTex@@UAEPAXI@Z 0042d013 f i d3dx9:ccodec.obj
 0001:0002c013       ??_ECCodec_A2W10V10U10@D3DXTex@@UAEPAXI@Z 0042d013 f i d3dx9:ccodec.obj
 0001:0002c013       ??_GCCodec_A8B8G8R8@D3DXTex@@UAEPAXI@Z 0042d013 f i d3dx9:ccodec.obj
 0001:0002c013       ??_ECCodec_X8R8G8B8@D3DXTex@@UAEPAXI@Z 0042d013 f i d3dx9:ccodec.obj
 0001:0002c013       ??_ECCodec@D3DXTex@@UAEPAXI@Z 0042d013 f i d3dx9:ccodec.obj
 0001:0002c013       ??_ECCodec_V8U8@D3DXTex@@UAEPAXI@Z 0042d013 f i d3dx9:ccodec.obj
 0001:0002c013       ??_ECCodec_A2B10G10R10@D3DXTex@@UAEPAXI@Z 0042d013 f i d3dx9:ccodec.obj
 0001:0002c013       ??_GCCodec_A8L8@D3DXTex@@UAEPAXI@Z 0042d013 f i d3dx9:ccodec.obj
 0001:0002c013       ??_ECCodec_L6V5U5@D3DXTex@@UAEPAXI@Z 0042d013 f i d3dx9:ccodec.obj
 0001:0002c013       ??_GCCodec_Q16W16V16U16@D3DXTex@@UAEPAXI@Z 0042d013 f i d3dx9:ccodec.obj
 0001:0002c013       ??_ECCodec_G16R16F@D3DXTex@@UAEPAXI@Z 0042d013 f i d3dx9:ccodec.obj
 0001:0002c013       ??_ECCodec_Q8W8V8U8@D3DXTex@@UAEPAXI@Z 0042d013 f i d3dx9:ccodec.obj
 0001:0002c013       ??_GCCodec_A4R4G4B4@D3DXTex@@UAEPAXI@Z 0042d013 f i d3dx9:ccodec.obj
 0001:0002c013       ??_GCCodec_X4R4G4B4@D3DXTex@@UAEPAXI@Z 0042d013 f i d3dx9:ccodec.obj
 0001:0002c013       ??_ECCodec_D3DX_R16G16B16@D3DXTex@@UAEPAXI@Z 0042d013 f i d3dx9:ccodec.obj
 0001:0002c013       ??_GCCodec_A32B32G32R32F@D3DXTex@@UAEPAXI@Z 0042d013 f i d3dx9:ccodec.obj
 0001:0002c013       ??_ECCodec_R32F@D3DXTex@@UAEPAXI@Z 0042d013 f i d3dx9:ccodec.obj
 0001:0002c013       ??_ECCodec_A8@D3DXTex@@UAEPAXI@Z 0042d013 f i d3dx9:ccodec.obj
 0001:0002c013       ??_ECCodec_R3G3B2@D3DXTex@@UAEPAXI@Z 0042d013 f i d3dx9:ccodec.obj
 0001:0002c013       ??_GCCodec_A16B16G16R16@D3DXTex@@UAEPAXI@Z 0042d013 f i d3dx9:ccodec.obj
 0001:0002c013       ??_GCCodec_R8G8B8@D3DXTex@@UAEPAXI@Z 0042d013 f i d3dx9:ccodec.obj
 0001:0002c013       ??_ECCodec_D32F_LOCKABLE@D3DXTex@@UAEPAXI@Z 0042d013 f i d3dx9:ccodec.obj
 0001:0002c013       ??_GCCodec_Q8W8V8U8@D3DXTex@@UAEPAXI@Z 0042d013 f i d3dx9:ccodec.obj
 0001:0002c013       ??_GCCodec_A2B10G10R10@D3DXTex@@UAEPAXI@Z 0042d013 f i d3dx9:ccodec.obj
 0001:0002c013       ??_GCCodec_CxV8U8@D3DXTex@@UAEPAXI@Z 0042d013 f i d3dx9:ccodec.obj
 0001:0002c013       ??_ECCodec_Q16W16V16U16@D3DXTex@@UAEPAXI@Z 0042d013 f i d3dx9:ccodec.obj
 0001:0002c013       ??_ECCodec_D16_LOCKABLE@D3DXTex@@UAEPAXI@Z 0042d013 f i d3dx9:ccodec.obj
 0001:0002c013       ??_ECCodec_A8R3G3B2@D3DXTex@@UAEPAXI@Z 0042d013 f i d3dx9:ccodec.obj
 0001:0002c013       ??_GCCodec_D32F_LOCKABLE@D3DXTex@@UAEPAXI@Z 0042d013 f i d3dx9:ccodec.obj
 0001:0002c013       ??_GCCodec_A1R5G5B5@D3DXTex@@UAEPAXI@Z 0042d013 f i d3dx9:ccodec.obj
 0001:0002c013       ??_GCCodec_V8U8@D3DXTex@@UAEPAXI@Z 0042d013 f i d3dx9:ccodec.obj
 0001:0002c013       ??_ECCodec_A16B16G16R16@D3DXTex@@UAEPAXI@Z 0042d013 f i d3dx9:ccodec.obj
 0001:0002c013       ??_ECCodec_L16@D3DXTex@@UAEPAXI@Z 0042d013 f i d3dx9:ccodec.obj
 0001:0002c013       ??_GCCodec_G16R16F@D3DXTex@@UAEPAXI@Z 0042d013 f i d3dx9:ccodec.obj
 0001:0002c013       ??_GCCodec_A4L4@D3DXTex@@UAEPAXI@Z 0042d013 f i d3dx9:ccodec.obj
 0001:0002c013       ??_GCCodec_R5G6B5@D3DXTex@@UAEPAXI@Z 0042d013 f i d3dx9:ccodec.obj
 0001:0002c013       ??_ECCodec_X8B8G8R8@D3DXTex@@UAEPAXI@Z 0042d013 f i d3dx9:ccodec.obj
 0001:0002c013       ??_ECCodec_L8@D3DXTex@@UAEPAXI@Z 0042d013 f i d3dx9:ccodec.obj
 0001:0002c013       ??_ECCodec_A8P8@D3DXTex@@UAEPAXI@Z 0042d013 f i d3dx9:ccodec.obj
 0001:0002c013       ??_ECCodec_A1R5G5B5@D3DXTex@@UAEPAXI@Z 0042d013 f i d3dx9:ccodec.obj
 0001:0002c013       ??_GCCodec_R3G3B2@D3DXTex@@UAEPAXI@Z 0042d013 f i d3dx9:ccodec.obj
 0001:0002c013       ??_ECCodec_R8G8B8@D3DXTex@@UAEPAXI@Z 0042d013 f i d3dx9:ccodec.obj
 0001:0002c013       ??_GCCodec_G16R16@D3DXTex@@UAEPAXI@Z 0042d013 f i d3dx9:ccodec.obj
 0001:0002c013       ??_GCCodec_R16F@D3DXTex@@UAEPAXI@Z 0042d013 f i d3dx9:ccodec.obj
 0001:0002c013       ??_GCCodec_X8R8G8B8@D3DXTex@@UAEPAXI@Z 0042d013 f i d3dx9:ccodec.obj
 0001:0002c013       ??_ECCodec_A4R4G4B4@D3DXTex@@UAEPAXI@Z 0042d013 f i d3dx9:ccodec.obj
 0001:0002c013       ??_GCCodec_G32R32F@D3DXTex@@UAEPAXI@Z 0042d013 f i d3dx9:ccodec.obj
 0001:0002c013       ??_GCCodec_X8B8G8R8@D3DXTex@@UAEPAXI@Z 0042d013 f i d3dx9:ccodec.obj
 0001:0002c013       ??_ECCodec_G32R32F@D3DXTex@@UAEPAXI@Z 0042d013 f i d3dx9:ccodec.obj
 0001:0002c013       ??_ECCodec_A8R8G8B8@D3DXTex@@UAEPAXI@Z 0042d013 f i d3dx9:ccodec.obj
 0001:0002c013       ??_ECCodec_A8L8@D3DXTex@@UAEPAXI@Z 0042d013 f i d3dx9:ccodec.obj
 0001:0002c013       ??_GCCodec_D3DX_A16L16@D3DXTex@@UAEPAXI@Z 0042d013 f i d3dx9:ccodec.obj
 0001:0002c013       ??_GCCodec_L6V5U5@D3DXTex@@UAEPAXI@Z 0042d013 f i d3dx9:ccodec.obj
 0001:0002c013       ??_ECCodec_R16F@D3DXTex@@UAEPAXI@Z 0042d013 f i d3dx9:ccodec.obj
 0001:0002c013       ??_GCCodec_D16_LOCKABLE@D3DXTex@@UAEPAXI@Z 0042d013 f i d3dx9:ccodec.obj
 0001:0002c013       ??_ECCodec_A2R10G10B10@D3DXTex@@UAEPAXI@Z 0042d013 f i d3dx9:ccodec.obj
 0001:0002c013       ??_GCCodec@D3DXTex@@UAEPAXI@Z 0042d013 f i d3dx9:ccodec.obj
 0001:0002c013       ??_GCCodec_P8@D3DXTex@@UAEPAXI@Z 0042d013 f i d3dx9:ccodec.obj
 0001:0002c013       ??_ECCodec_CxV8U8@D3DXTex@@UAEPAXI@Z 0042d013 f i d3dx9:ccodec.obj
 0001:0002c013       ??_GCCodec_A8@D3DXTex@@UAEPAXI@Z 0042d013 f i d3dx9:ccodec.obj
 0001:0002c013       ??_GCCodec_D3DX_R16G16B16@D3DXTex@@UAEPAXI@Z 0042d013 f i d3dx9:ccodec.obj
 0001:0002c013       ??_ECCodec_X1R5G5B5@D3DXTex@@UAEPAXI@Z 0042d013 f i d3dx9:ccodec.obj
 0001:0002c02f       ??0CCodec_X4R4G4B4@D3DXTex@@QAE@PAUD3DX_BLT@@@Z 0042d02f f i d3dx9:ccodec.obj
 0001:0002c04b       ?Decode@CCodec_L6V5U5@D3DXTex@@UAEXIIPAUD3DXCOLOR@@@Z 0042d04b f   d3dx9:ccodec.obj
 0001:0002c12b       ??0CCodec_A2B10G10R10@D3DXTex@@QAE@PAUD3DX_BLT@@@Z 0042d12b f i d3dx9:ccodec.obj
 0001:0002c147       ?Decode@CCodec_X8L8V8U8@D3DXTex@@UAEXIIPAUD3DXCOLOR@@@Z 0042d147 f   d3dx9:ccodec.obj
 0001:0002c213       ??0CCodec_A8B8G8R8@D3DXTex@@QAE@PAUD3DX_BLT@@@Z 0042d213 f i d3dx9:ccodec.obj
 0001:0002c22f       ??0CCodec_X8B8G8R8@D3DXTex@@QAE@PAUD3DX_BLT@@@Z 0042d22f f i d3dx9:ccodec.obj
 0001:0002c24b       ?Decode@CCodec_Q8W8V8U8@D3DXTex@@UAEXIIPAUD3DXCOLOR@@@Z 0042d24b f   d3dx9:ccodec.obj
 0001:0002c346       ??0CCodec_G16R16@D3DXTex@@QAE@PAUD3DX_BLT@@@Z 0042d346 f i d3dx9:ccodec.obj
 0001:0002c362       ?Decode@CCodec_V16U16@D3DXTex@@UAEXIIPAUD3DXCOLOR@@@Z 0042d362 f   d3dx9:ccodec.obj
 0001:0002c424       ??0CCodec_A2R10G10B10@D3DXTex@@QAE@PAUD3DX_BLT@@@Z 0042d424 f i d3dx9:ccodec.obj
 0001:0002c440       ??0CCodec_A16B16G16R16@D3DXTex@@QAE@PAUD3DX_BLT@@@Z 0042d440 f i d3dx9:ccodec.obj
 0001:0002c45c       ?Decode@CCodec_A2W10V10U10@D3DXTex@@UAEXIIPAUD3DXCOLOR@@@Z 0042d45c f   d3dx9:ccodec.obj
 0001:0002c575       ??0CCodec_A8P8@D3DXTex@@QAE@PAUD3DX_BLT@@@Z 0042d575 f i d3dx9:ccodec.obj
 0001:0002c591       ??0CCodec_P8@D3DXTex@@QAE@PAUD3DX_BLT@@@Z 0042d591 f i d3dx9:ccodec.obj
 0001:0002c5ad       ?Decode@CCodec_Q16W16V16U16@D3DXTex@@UAEXIIPAUD3DXCOLOR@@@Z 0042d5ad f   d3dx9:ccodec.obj
 0001:0002c6c4       ??0CCodec_L8@D3DXTex@@QAE@PAUD3DX_BLT@@@Z 0042d6c4 f i d3dx9:ccodec.obj
 0001:0002c6e0       ?Decode@CCodec_CxV8U8@D3DXTex@@UAEXIIPAUD3DXCOLOR@@@Z 0042d6e0 f   d3dx9:ccodec.obj
 0001:0002c7c1       ??0CCodec_A8L8@D3DXTex@@QAE@PAUD3DX_BLT@@@Z 0042d7c1 f i d3dx9:ccodec.obj
 0001:0002c7dd       ??0CCodec_A4L4@D3DXTex@@QAE@PAUD3DX_BLT@@@Z 0042d7dd f i d3dx9:ccodec.obj
 0001:0002c7f9       ??0CCodec_D16_LOCKABLE@D3DXTex@@QAE@PAUD3DX_BLT@@@Z 0042d7f9 f i d3dx9:ccodec.obj
 0001:0002c7f9       ??0CCodec_L16@D3DXTex@@QAE@PAUD3DX_BLT@@@Z 0042d7f9 f i d3dx9:ccodec.obj
 0001:0002c815       ?Decode@CCodec_D32F_LOCKABLE@D3DXTex@@UAEXIIPAUD3DXCOLOR@@@Z 0042d815 f   d3dx9:ccodec.obj
 0001:0002c815       ?Decode@CCodec_R32F@D3DXTex@@UAEXIIPAUD3DXCOLOR@@@Z 0042d815 f   d3dx9:ccodec.obj
 0001:0002c895       ??0CCodec_V8U8@D3DXTex@@QAE@PAUD3DX_BLT@@@Z 0042d895 f i d3dx9:ccodec.obj
 0001:0002c8b1       ?Decode@CCodec_R16F@D3DXTex@@UAEXIIPAUD3DXCOLOR@@@Z 0042d8b1 f   d3dx9:ccodec.obj
 0001:0002c942       ??0CCodec_L6V5U5@D3DXTex@@QAE@PAUD3DX_BLT@@@Z 0042d942 f i d3dx9:ccodec.obj
 0001:0002c95e       ??0CCodec_X8L8V8U8@D3DXTex@@QAE@PAUD3DX_BLT@@@Z 0042d95e f i d3dx9:ccodec.obj
 0001:0002c97a       ?Decode@CCodec_G16R16F@D3DXTex@@UAEXIIPAUD3DXCOLOR@@@Z 0042d97a f   d3dx9:ccodec.obj
 0001:0002ca07       ??0CCodec_Q8W8V8U8@D3DXTex@@QAE@PAUD3DX_BLT@@@Z 0042da07 f i d3dx9:ccodec.obj
 0001:0002ca23       ?Decode@CCodec_A16B16G16R16F@D3DXTex@@UAEXIIPAUD3DXCOLOR@@@Z 0042da23 f   d3dx9:ccodec.obj
 0001:0002ca7a       ??0CCodec_V16U16@D3DXTex@@QAE@PAUD3DX_BLT@@@Z 0042da7a f i d3dx9:ccodec.obj
 0001:0002ca96       ?Decode@CCodec_G32R32F@D3DXTex@@UAEXIIPAUD3DXCOLOR@@@Z 0042da96 f   d3dx9:ccodec.obj
 0001:0002cb17       ?Decode@CCodec_A32B32G32R32F@D3DXTex@@UAEXIIPAUD3DXCOLOR@@@Z 0042db17 f   d3dx9:ccodec.obj
 0001:0002cb79       ?Decode@CCodec_D3DX_A16L16@D3DXTex@@UAEXIIPAUD3DXCOLOR@@@Z 0042db79 f   d3dx9:ccodec.obj
 0001:0002cc20       ??0CCodec_A2W10V10U10@D3DXTex@@QAE@PAUD3DX_BLT@@@Z 0042dc20 f i d3dx9:ccodec.obj
 0001:0002cc3c       ??0CCodec_Q16W16V16U16@D3DXTex@@QAE@PAUD3DX_BLT@@@Z 0042dc3c f i d3dx9:ccodec.obj
 0001:0002cc58       ?Decode@CCodec_D3DX_R16G16B16@D3DXTex@@UAEXIIPAUD3DXCOLOR@@@Z 0042dc58 f   d3dx9:ccodec.obj
 0001:0002ccfd       ??0CCodec_CxV8U8@D3DXTex@@QAE@PAUD3DX_BLT@@@Z 0042dcfd f i d3dx9:ccodec.obj
 0001:0002cd19       ??0CCodecYUV@D3DXTex@@QAE@PAUD3DX_BLT@@@Z 0042dd19 f   d3dx9:ccodec.obj
 0001:0002ce0b       ??0CCodec_R16F@D3DXTex@@QAE@PAUD3DX_BLT@@@Z 0042de0b f i d3dx9:ccodec.obj
 0001:0002ce27       ?Commit@CCodecYUV@D3DXTex@@QAEJXZ 0042de27 f   d3dx9:ccodec.obj
 0001:0002d137       ??0CCodec_G16R16F@D3DXTex@@QAE@PAUD3DX_BLT@@@Z 0042e137 f i d3dx9:ccodec.obj
 0001:0002d153       ??0CCodec_A16B16G16R16F@D3DXTex@@QAE@PAUD3DX_BLT@@@Z 0042e153 f i d3dx9:ccodec.obj
 0001:0002d16f       ??0CCodec_R32F@D3DXTex@@QAE@PAUD3DX_BLT@@@Z 0042e16f f i d3dx9:ccodec.obj
 0001:0002d16f       ??0CCodec_D32F_LOCKABLE@D3DXTex@@QAE@PAUD3DX_BLT@@@Z 0042e16f f i d3dx9:ccodec.obj
 0001:0002d18b       ??0CCodec_G32R32F@D3DXTex@@QAE@PAUD3DX_BLT@@@Z 0042e18b f i d3dx9:ccodec.obj
 0001:0002d1a7       ?Fetch@CCodecYUV@D3DXTex@@QAEJIIH@Z 0042e1a7 f   d3dx9:ccodec.obj
 0001:0002d573       ??0CCodec_A32B32G32R32F@D3DXTex@@QAE@PAUD3DX_BLT@@@Z 0042e573 f i d3dx9:ccodec.obj
 0001:0002d592       ??0CCodec_D3DX_A16L16@D3DXTex@@QAE@PAUD3DX_BLT@@@Z 0042e592 f i d3dx9:ccodec.obj
 0001:0002d5ae       ??0CCodec_D3DX_R16G16B16@D3DXTex@@QAE@PAUD3DX_BLT@@@Z 0042e5ae f i d3dx9:ccodec.obj
 0001:0002d5ca       ?Encode@CCodecYUV@D3DXTex@@UAEXIIPAUD3DXCOLOR@@@Z 0042e5ca f   d3dx9:ccodec.obj
 0001:0002d668       ?Decode@CCodecYUV@D3DXTex@@UAEXIIPAUD3DXCOLOR@@@Z 0042e668 f   d3dx9:ccodec.obj
 0001:0002d6e7       ??0CCodecDXT@D3DXTex@@QAE@PAUD3DX_BLT@@@Z 0042e6e7 f   d3dx9:ccodec.obj
 0001:0002d8d3       ?Encode@CCodecDXT@D3DXTex@@UAEXIIPAUD3DXCOLOR@@@Z 0042e8d3 f   d3dx9:ccodec.obj
 0001:0002dd18       ?Decode@CCodecDXT@D3DXTex@@UAEXIIPAUD3DXCOLOR@@@Z 0042ed18 f   d3dx9:ccodec.obj
 0001:0002dfd7       ??1CCodecYUV@D3DXTex@@UAE@XZ 0042efd7 f   d3dx9:ccodec.obj
 0001:0002dffe       ??0CCodec_R8G8_B8G8@D3DXTex@@QAE@PAUD3DX_BLT@@@Z 0042effe f i d3dx9:ccodec.obj
 0001:0002dffe       ??0CCodec_G8R8_G8B8@D3DXTex@@QAE@PAUD3DX_BLT@@@Z 0042effe f i d3dx9:ccodec.obj
 0001:0002dffe       ??0CCodec_UYVY@D3DXTex@@QAE@PAUD3DX_BLT@@@Z 0042effe f i d3dx9:ccodec.obj
 0001:0002dffe       ??0CCodec_YUY2@D3DXTex@@QAE@PAUD3DX_BLT@@@Z 0042effe f i d3dx9:ccodec.obj
 0001:0002e016       ??0CCodec_DXT2@D3DXTex@@QAE@PAUD3DX_BLT@@@Z 0042f016 f i d3dx9:ccodec.obj
 0001:0002e016       ??0CCodec_DXT4@D3DXTex@@QAE@PAUD3DX_BLT@@@Z 0042f016 f i d3dx9:ccodec.obj
 0001:0002e016       ??0CCodec_DXT5@D3DXTex@@QAE@PAUD3DX_BLT@@@Z 0042f016 f i d3dx9:ccodec.obj
 0001:0002e016       ??0CCodec_DXT3@D3DXTex@@QAE@PAUD3DX_BLT@@@Z 0042f016 f i d3dx9:ccodec.obj
 0001:0002e016       ??0CCodec_DXT1@D3DXTex@@QAE@PAUD3DX_BLT@@@Z 0042f016 f i d3dx9:ccodec.obj
 0001:0002e02e       ??_GCCodec_DXT2@D3DXTex@@UAEPAXI@Z 0042f02e f i d3dx9:ccodec.obj
 0001:0002e02e       ??_ECCodec_DXT3@D3DXTex@@UAEPAXI@Z 0042f02e f i d3dx9:ccodec.obj
 0001:0002e02e       ??_ECCodec_DXT4@D3DXTex@@UAEPAXI@Z 0042f02e f i d3dx9:ccodec.obj
 0001:0002e02e       ??_ECCodec_DXT2@D3DXTex@@UAEPAXI@Z 0042f02e f i d3dx9:ccodec.obj
 0001:0002e02e       ??_GCCodec_DXT4@D3DXTex@@UAEPAXI@Z 0042f02e f i d3dx9:ccodec.obj
 0001:0002e02e       ??_GCCodec_DXT3@D3DXTex@@UAEPAXI@Z 0042f02e f i d3dx9:ccodec.obj
 0001:0002e02e       ??_GCCodec_DXT1@D3DXTex@@UAEPAXI@Z 0042f02e f i d3dx9:ccodec.obj
 0001:0002e02e       ??_ECCodec_DXT1@D3DXTex@@UAEPAXI@Z 0042f02e f i d3dx9:ccodec.obj
 0001:0002e02e       ??_ECCodecDXT@D3DXTex@@UAEPAXI@Z 0042f02e f i d3dx9:ccodec.obj
 0001:0002e02e       ??_ECCodec_DXT5@D3DXTex@@UAEPAXI@Z 0042f02e f i d3dx9:ccodec.obj
 0001:0002e02e       ??_GCCodec_DXT5@D3DXTex@@UAEPAXI@Z 0042f02e f i d3dx9:ccodec.obj
 0001:0002e02e       ??_GCCodecDXT@D3DXTex@@UAEPAXI@Z 0042f02e f i d3dx9:ccodec.obj
 0001:0002e04a       ?Create@CCodec@D3DXTex@@SGPAV12@PAUD3DX_BLT@@@Z 0042f04a f   d3dx9:ccodec.obj
 0001:0002e7f6       ??_ECCodecYUV@D3DXTex@@UAEPAXI@Z 0042f7f6 f i d3dx9:ccodec.obj
 0001:0002e7f6       ??_ECCodec_YUY2@D3DXTex@@UAEPAXI@Z 0042f7f6 f i d3dx9:ccodec.obj
 0001:0002e7f6       ??_GCCodec_YUY2@D3DXTex@@UAEPAXI@Z 0042f7f6 f i d3dx9:ccodec.obj
 0001:0002e7f6       ??_ECCodec_UYVY@D3DXTex@@UAEPAXI@Z 0042f7f6 f i d3dx9:ccodec.obj
 0001:0002e7f6       ??_ECCodec_R8G8_B8G8@D3DXTex@@UAEPAXI@Z 0042f7f6 f i d3dx9:ccodec.obj
 0001:0002e7f6       ??_GCCodec_R8G8_B8G8@D3DXTex@@UAEPAXI@Z 0042f7f6 f i d3dx9:ccodec.obj
 0001:0002e7f6       ??_GCCodecYUV@D3DXTex@@UAEPAXI@Z 0042f7f6 f i d3dx9:ccodec.obj
 0001:0002e7f6       ??_ECCodec_G8R8_G8B8@D3DXTex@@UAEPAXI@Z 0042f7f6 f i d3dx9:ccodec.obj
 0001:0002e7f6       ??_GCCodec_UYVY@D3DXTex@@UAEPAXI@Z 0042f7f6 f i d3dx9:ccodec.obj
 0001:0002e7f6       ??_GCCodec_G8R8_G8B8@D3DXTex@@UAEPAXI@Z 0042f7f6 f i d3dx9:ccodec.obj
 0001:0002e812       ??0CFile@D3DXCore@@QAE@XZ  0042f812 f   d3dx9:cfile.obj
 0001:0002e824       ?Open@CFile@D3DXCore@@QAEJPBXH@Z 0042f824 f   d3dx9:cfile.obj
 0001:0002e945       ?Close@CFile@D3DXCore@@QAEJXZ 0042f945 f   d3dx9:cfile.obj
 0001:0002e986       ??1CFile@D3DXCore@@QAE@XZ  0042f986 f   d3dx9:cfile.obj
 0001:0002e991       ??1CResource@D3DXCore@@QAE@XZ 0042f991 f   d3dx9:cresource.obj
 0001:0002e99f       ?Close@CResource@D3DXCore@@QAEJXZ 0042f99f f   d3dx9:cresource.obj
 0001:0002e9be       ?Open@CResource@D3DXCore@@QAEJPAUHINSTANCE__@@PBXHH@Z 0042f9be f   d3dx9:cresource.obj
 0001:0002ea4c       ??0CD3DXCrackDecl@@QAE@XZ  0042fa4c f   d3dx9:crackdecl.obj
 0001:0002ea5d       ?SetDeclaration@CD3DXCrackDecl@@QAEJPBU_D3DVERTEXELEMENT9@@@Z 0042fa5d f   d3dx9:crackdecl.obj
 0001:0002ea75       ?SetStreamSource@CD3DXCrackDecl@@QAEJIPAXI@Z 0042fa75 f   d3dx9:crackdecl.obj
 0001:0002eaa0       ?Decode@CD3DXCrackDecl@@QAEXPBU_D3DVERTEXELEMENT9@@IPAMI@Z 0042faa0 f   d3dx9:crackdecl.obj
 0001:0002eeba       ?Encode@CD3DXCrackDecl@@QAEXPBU_D3DVERTEXELEMENT9@@IPBMI@Z 0042feba f   d3dx9:crackdecl.obj
 0001:0002f33c       ?FindPoint@@YGKPAKKPAUSLoadVertex@@@Z 0043033c f   d3dx9:loadutil.obj
 0001:0002f368       ?ConvertColor@@YGKAAUD3DXCOLOR@@@Z 00430368 f   d3dx9:loadutil.obj
 0001:0002f46f       ?CreateMaterialBuffer@@YGJPAU_D3DXMATERIAL@@KPAPAUID3DXBuffer@@@Z 0043046f f   d3dx9:loadutil.obj
 0001:0002f56a       ?MergeMaterialBuffers@@YGJPAUID3DXBuffer@@K0KPAPAU1@@Z 0043056a f   d3dx9:loadutil.obj
 0001:0002f63d       ?CreateEffectBuffer@@YGJPAU_D3DXEFFECTINSTANCE@@KPAPAUID3DXBuffer@@@Z 0043063d f   d3dx9:loadutil.obj
 0001:0002f869       ?MergeEffectBuffers@@YGJPAUID3DXBuffer@@K0KPAPAU1@@Z 00430869 f   d3dx9:loadutil.obj
 0001:0002f93c       ??0SLoadedFace@@QAE@XZ     0043093c f i d3dx9:loadutil.obj
 0001:0002f94e       ?InitVertices@@YGJAAPAUSLoadVertex@@K@Z 0043094e f   d3dx9:loadutil.obj
 0001:0002fa4f       ?InitFaces@@YGJAAPAUSLoadedFace@@K@Z 00430a4f f   d3dx9:loadutil.obj
 0001:0002fab6       ?BEqualWedges@@YG_NAAUSLoadVertex@@0@Z 00430ab6 f   d3dx9:loadutil.obj
 0001:0002fb3d       ?AddToDynamicArray@@YGHPAPAUSLoadVertex@@ABU1@PAK2@Z 00430b3d f i d3dx9:loadutil.obj
 0001:0002fc34       ?SetVertexColor@@YGJPAUSLoadedFace@@KAAUD3DXCOLOR@@PAPAUSLoadVertex@@PAK3@Z 00430c34 f   d3dx9:loadutil.obj
 0001:0002fd5f       ?SetVertexAttributes@@YGJPAUSLoadedFace@@KPAUD3DXVECTOR3@@PAUD3DXVECTOR2@@PAPAUSLoadVertex@@PAK4@Z 00430d5f f   d3dx9:loadutil.obj
 0001:0002fecb       ?SetSmoothingGroup@@YGJPAUSLoadedFace@@KGAAUD3DXVECTOR3@@PAPAUSLoadVertex@@PAK3@Z 00430ecb f   d3dx9:loadutil.obj
 0001:0003002b       ?InitCorners@@YGJAAPAUSCorner@@K@Z 0043102b f   d3dx9:loadutil.obj
 0001:000300dd       ?SetMesh@@YGJAAPAUSLoadedFace@@KAAPAUSLoadVertex@@KPAUSCorner@@KPAUSFVFData@@PAUSDeclData@@HPAKKQAU_D3DVERTEXELEMENT9@@PAUIDirect3DDevice9@@PAPAUID3DXMesh@@PAPAUID3DXBuffer@@@Z 004310dd f   d3dx9:loadutil.obj
 0001:000309a0       ??1CSprite@D3DXCore@@QAE@XZ 004319a0 f   d3dx9:csprite.obj
 0001:000309dc       ?AddRef@CBuffer@D3DXCore@@UAGKXZ 004319dc f   d3dx9:cbuffer.obj
 0001:000309dc       ?AddRef@CSprite@D3DXCore@@UAGKXZ 004319dc f   d3dx9:csprite.obj
 0001:000309e9       ?Initialize@CSprite@D3DXCore@@QAEJPAUIDirect3DDevice9@@@Z 004319e9 f   d3dx9:csprite.obj
 0001:00030a65       ?GetDevice@CSprite@D3DXCore@@UAGJPAPAUIDirect3DDevice9@@@Z 00431a65 f   d3dx9:csprite.obj
 0001:00030a8b       ?End@CSprite@D3DXCore@@UAGJXZ 00431a8b f   d3dx9:csprite.obj
 0001:00030ab0       ?OnLostDevice@CSprite@D3DXCore@@UAGJXZ 00431ab0 f   d3dx9:csprite.obj
 0001:00030ae3       ?QueryInterface@CSprite@D3DXCore@@UAGJABU_GUID@@PAPAX@Z 00431ae3 f   d3dx9:csprite.obj
 0001:00030b27       ?Release@CSprite@D3DXCore@@UAGKXZ 00431b27 f   d3dx9:csprite.obj
 0001:00030b3f       ?Begin@CSprite@D3DXCore@@UAGJXZ 00431b3f f   d3dx9:csprite.obj
 0001:00030fe4       ?Draw@CSprite@D3DXCore@@UAGJPAUIDirect3DTexture9@@PBUtagRECT@@PBUD3DXVECTOR2@@2M2K@Z 00431fe4 f   d3dx9:csprite.obj
 0001:000310bb       ?DrawTransform@CSprite@D3DXCore@@UAGJPAUIDirect3DTexture9@@PBUtagRECT@@PBUD3DXMATRIX@@K@Z 004320bb f   d3dx9:csprite.obj
 0001:000314b1       ??0CSprite@D3DXCore@@QAE@XZ 004324b1 f   d3dx9:csprite.obj
 0001:000314cf       ?sse_D3DXInitFastTable@@YAXPAUD3DXFASTTABLE@@@Z 004324cf f   d3dx9:ssefasttable.obj
 0001:0003163d       ?sse2_D3DXInitFastTable@@YAXPAUD3DXFASTTABLE@@@Z 0043263d f   d3dx9:ssefasttable2.obj
 0001:000317a1       ?get_feature_flags@@YGIXZ  004327a1 f   d3dx9:d3dxmathx3d.obj
 0001:00031885       ?x3d_D3DXInitFastTable@@YAXPAUD3DXFASTTABLE@@@Z 00432885 f   d3dx9:d3dxmathx3d.obj
 0001:00031b13       ?x86_D3DXVec2Transform@@YGPAUD3DXVECTOR4@@PAU1@PBUD3DXVECTOR2@@PBUD3DXMATRIX@@@Z 00432b13 f   d3dx9:d3dxmathx86.obj
 0001:00031b7c       ?x86_D3DXVec2TransformNormal@@YGPAUD3DXVECTOR2@@PAU1@PBU1@PBUD3DXMATRIX@@@Z 00432b7c f   d3dx9:d3dxmathx86.obj
 0001:00031bb1       ?x86_D3DXVec3Transform@@YGPAUD3DXVECTOR4@@PAU1@PBUD3DXVECTOR3@@PBUD3DXMATRIX@@@Z 00432bb1 f   d3dx9:d3dxmathx86.obj
 0001:00031c3c       ?x86_D3DXVec3TransformNormal@@YGPAUD3DXVECTOR3@@PAU1@PBU1@PBUD3DXMATRIX@@@Z 00432c3c f   d3dx9:d3dxmathx86.obj
 0001:00031c9b       ?x86_D3DXVec4Transform@@YGPAUD3DXVECTOR4@@PAU1@PBU1@PBUD3DXMATRIX@@@Z 00432c9b f   d3dx9:d3dxmathx86.obj
 0001:00031d34       ?TableInvSqrt@@YIMM@Z      00432d34 f   d3dx9:d3dxmathx86.obj
 0001:00031d79       ?x86_D3DXVec3Normalize@@YGPAUD3DXVECTOR3@@PAU1@PBU1@@Z 00432d79 f   d3dx9:d3dxmathx86.obj
 0001:00031e43       ?x86_D3DXMatrixMultiply@@YGPAUD3DXMATRIX@@PAU1@PBU1@1@Z 00432e43 f   d3dx9:d3dxmathx86.obj
 0001:00031f26       ?x86_D3DXMatrixMultiplyTranspose@@YGPAUD3DXMATRIX@@PAU1@PBU1@1@Z 00432f26 f   d3dx9:d3dxmathx86.obj
 0001:00031fb4       ?x86_D3DXInitFastTable@@YGXPAUD3DXFASTTABLE@@@Z 00432fb4 f   d3dx9:d3dxmathx86.obj
 0001:00031ff9       ??0CNode@D3DXShader@@QAE@W4_D3DXNODE_TYPE@1@@Z 00432ff9 f   d3dx9:cnode.obj
 0001:00032013       ??1CNode@D3DXShader@@UAE@XZ 00433013 f   d3dx9:cnode.obj
 0001:00032040       ?IsEqual@CNode@D3DXShader@@UAEHPAV12@@Z 00433040 f   d3dx9:cnode.obj
 0001:00032056       ?Copy@CNode@D3DXShader@@UAEPAV12@XZ 00433056 f   d3dx9:cnode.obj
 0001:00032075       ?IsEqual@CNode@D3DXShader@@SGHPAV12@0@Z 00433075 f   d3dx9:cnode.obj
 0001:00032094       ?Copy@CNode@D3DXShader@@SGPAV12@PAV12@@Z 00433094 f   d3dx9:cnode.obj
 0001:000320a8       ?Append@CNode@D3DXShader@@SGPAV12@PAV12@0@Z 004330a8 f   d3dx9:cnode.obj
 0001:000320cf       ??0CNodeList@D3DXShader@@QAE@XZ 004330cf f   d3dx9:cnode.obj
 0001:000320ea       ??0CNodeList@D3DXShader@@QAE@PAVCNode@1@0PBD@Z 004330ea f   d3dx9:cnode.obj
 0001:00032111       ?IsEqual@CNodeList@D3DXShader@@UAEHPAVCNode@2@@Z 00433111 f   d3dx9:cnode.obj
 0001:00032169       ?Copy@CNodeList@D3DXShader@@UAEPAV12@XZ 00433169 f   d3dx9:cnode.obj
 0001:000322b9       ??0CNodeToken@D3DXShader@@QAE@XZ 004332b9 f   d3dx9:cnode.obj
 0001:000322d1       ??0CNodeToken@D3DXShader@@QAE@PBUD3DXTOKEN@1@@Z 004332d1 f   d3dx9:cnode.obj
 0001:000322fb       ?IsEqual@CNodeToken@D3DXShader@@UAEHPAVCNode@2@@Z 004332fb f   d3dx9:cnode.obj
 0001:0003231d       ?Copy@CNodeToken@D3DXShader@@UAEPAV12@XZ 0043331d f   d3dx9:cnode.obj
 0001:0003234c       ??0CNodeType@D3DXShader@@QAE@XZ 0043334c f   d3dx9:cnode.obj
 0001:00032377       ??0CNodeType@D3DXShader@@QAE@W4_D3DXTYPE_TEMPLATE@1@W4_D3DXCOMPONENT_TYPE@1@IIK@Z 00433377 f   d3dx9:cnode.obj
 0001:000323b3       ??1CNodeType@D3DXShader@@UAE@XZ 004333b3 f   d3dx9:cnode.obj
 0001:000323be       ?IsEqual@CNodeType@D3DXShader@@UAEHPAVCNode@2@@Z 004333be f   d3dx9:cnode.obj
 0001:000323fe       ?Copy@CNodeType@D3DXShader@@UAEPAV12@XZ 004333fe f   d3dx9:cnode.obj
 0001:0003243e       ??0CNodeVariable@D3DXShader@@QAE@XZ 0043343e f   d3dx9:cnode.obj
 0001:00032477       ??1CNodeVariable@D3DXShader@@UAE@XZ 00433477 f   d3dx9:cnode.obj
 0001:000324d2       ?IsEqual@CNodeVariable@D3DXShader@@UAEHPAVCNode@2@@Z 004334d2 f   d3dx9:cnode.obj
 0001:0003257b       ?Copy@CNodeVariable@D3DXShader@@UAEPAV12@XZ 0043357b f   d3dx9:cnode.obj
 0001:00032661       ??0CNodeValue@D3DXShader@@QAE@XZ 00433661 f   d3dx9:cnode.obj
 0001:0003269a       ??0CNodeValue@D3DXShader@@QAE@W4_D3DXVALUE_TYPE@1@IPBUD3DXTOKEN@1@@Z 0043369a f   d3dx9:cnode.obj
 0001:000326d2       ??0CNodeValue@D3DXShader@@QAE@W4_D3DXVALUE_TYPE@1@PAUID3DXBuffer@@PBUD3DXTOKEN@1@@Z 004336d2 f   d3dx9:cnode.obj
 0001:00032718       ??1CNodeValue@D3DXShader@@UAE@XZ 00433718 f   d3dx9:cnode.obj
 0001:00032753       ?IsEqual@CNodeValue@D3DXShader@@UAEHPAVCNode@2@@Z 00433753 f   d3dx9:cnode.obj
 0001:0003279e       ?Copy@CNodeValue@D3DXShader@@UAEPAV12@XZ 0043379e f   d3dx9:cnode.obj
 0001:00032818       ??_ECNode@D3DXShader@@UAEPAXI@Z 00433818 f i d3dx9:cnode.obj
 0001:00032818       ??_GCNode@D3DXShader@@UAEPAXI@Z 00433818 f i d3dx9:cnode.obj
 0001:00032834       ??_GCNodeList@D3DXShader@@UAEPAXI@Z 00433834 f i d3dx9:cnode.obj
 0001:00032834       ??_ECNodeList@D3DXShader@@UAEPAXI@Z 00433834 f i d3dx9:cnode.obj
 0001:00032856       ??_GCNodeToken@D3DXShader@@UAEPAXI@Z 00433856 f i d3dx9:cnode.obj
 0001:00032856       ??_ECNodeToken@D3DXShader@@UAEPAXI@Z 00433856 f i d3dx9:cnode.obj
 0001:00032878       ??_GCNodeType@D3DXShader@@UAEPAXI@Z 00433878 f i d3dx9:cnode.obj
 0001:00032878       ??_ECNodeType@D3DXShader@@UAEPAXI@Z 00433878 f i d3dx9:cnode.obj
 0001:0003289a       ??_GCNodeVariable@D3DXShader@@UAEPAXI@Z 0043389a f i d3dx9:cnode.obj
 0001:0003289a       ??_ECNodeVariable@D3DXShader@@UAEPAXI@Z 0043389a f i d3dx9:cnode.obj
 0001:000328b6       ??_ECNodeValue@D3DXShader@@UAEPAXI@Z 004338b6 f i d3dx9:cnode.obj
 0001:000328b6       ??_GCNodeValue@D3DXShader@@UAEPAXI@Z 004338b6 f i d3dx9:cnode.obj
 0001:000328d2       ??0CCommentBlock@D3DXShader@@QAE@K@Z 004338d2 f   d3dx9:ccommentblock.obj
 0001:000328ea       ??1CCommentBlock@D3DXShader@@QAE@XZ 004338ea f   d3dx9:ccommentblock.obj
 0001:00032920       ?Add@CCommentBlock@D3DXShader@@QAEJPBXIKPAK@Z 00433920 f   d3dx9:ccommentblock.obj
 0001:00032a57       ?SizeInDwords@CCommentBlock@D3DXShader@@QAEIXZ 00433a57 f   d3dx9:ccommentblock.obj
 0001:00032a63       ?WriteComment@CCommentBlock@D3DXShader@@QAEJPAKI@Z 00433a63 f   d3dx9:ccommentblock.obj
 0001:00032b4e       ?CalcNumRegisters@D3DXShader@@YGJPAVCNode@1@PAI1@Z 00433b4e f   d3dx9:d3dx9fragment.obj
 0001:00032c03       ?GetConstantSize@CFragmentConstants@D3DXShader@@QAEJPAUD3DXTOKEN@2@PBDPAI@Z 00433c03 f   d3dx9:d3dx9fragment.obj
 0001:00032cfc       ?EmitDefaultValue@D3DXShader@@YGJPAVCCommentBlock@1@IIPAVCNode@1@PAK@Z 00433cfc f   d3dx9:d3dx9fragment.obj
 0001:00032dba       ?AddRegister@CFragmentConstants@D3DXShader@@QAEJPAVCCommentBlock@2@PAU_D3DXSHADER_CONSTANTINFO@@PBDIK@Z 00433dba f   d3dx9:d3dx9fragment.obj
 0001:0003309b       ??0CNodeAsmInstruction@D3DXShader@@QAE@XZ 0043409b f   d3dx9:cnodeasm.obj
 0001:000330d7       ??0CNodeAsmInstruction@D3DXShader@@QAE@PBUD3DXTOKEN@1@KKK@Z 004340d7 f   d3dx9:cnodeasm.obj
 0001:00033127       ??1CNodeAsmInstruction@D3DXShader@@UAE@XZ 00434127 f   d3dx9:cnodeasm.obj
 0001:0003316e       ?Copy@CNodeAsmInstruction@D3DXShader@@UAEPAV12@XZ 0043416e f   d3dx9:cnodeasm.obj
 0001:00033232       ?Print@CNodeType@D3DXShader@@UAEXXZ 00434232 f   d3dx9:cnode.obj
 0001:00033232       ?Print@CNodeValue@D3DXShader@@UAEXXZ 00434232 f   d3dx9:cnode.obj
 0001:00033232       ?Print@CNodeToken@D3DXShader@@UAEXXZ 00434232 f   d3dx9:cnode.obj
 0001:00033232       ??1CTokenize@D3DXShader@@QAE@XZ 00434232 f   d3dx9:ctokenize.obj
 0001:00033232       ?Print@CNode@D3DXShader@@UAEXXZ 00434232 f   d3dx9:cnode.obj
 0001:00033232       ?Print@CNodeAsmRegister@D3DXShader@@UAEXXZ 00434232 f   d3dx9:cnodeasm.obj
 0001:00033232       ?Print@CNodeAsmInstruction@D3DXShader@@UAEXXZ 00434232 f   d3dx9:cnodeasm.obj
 0001:00033232       __fpclear                  00434232 f   LIBC:fpinit.obj
 0001:00033232       ?Print@CNodeVariable@D3DXShader@@UAEXXZ 00434232 f   d3dx9:cnode.obj
 0001:00033232       ?Print@CNodeList@D3DXShader@@UAEXXZ 00434232 f   d3dx9:cnode.obj
 0001:00033232       ?QuantizeColorKey@CCodecYUV@D3DXTex@@MAEXXZ 00434232 f   d3dx9:ccodec.obj
 0001:00033233       ??0CNodeAsmRegister@D3DXShader@@QAE@XZ 00434233 f   d3dx9:cnodeasm.obj
 0001:00033266       ??0CNodeAsmRegister@D3DXShader@@QAE@KKKHPAVCNode@1@@Z 00434266 f   d3dx9:cnodeasm.obj
 0001:000332ac       ??1CNodeAsmRegister@D3DXShader@@UAE@XZ 004342ac f   d3dx9:cnodeasm.obj
 0001:000332ca       ?Copy@CNodeAsmRegister@D3DXShader@@UAEPAV12@XZ 004342ca f   d3dx9:cnodeasm.obj
 0001:00033333       ??_GCNodeAsmInstruction@D3DXShader@@UAEPAXI@Z 00434333 f i d3dx9:cnodeasm.obj
 0001:00033333       ??_ECNodeAsmInstruction@D3DXShader@@UAEPAXI@Z 00434333 f i d3dx9:cnodeasm.obj
 0001:0003334f       ??_ECNodeAsmRegister@D3DXShader@@UAEPAXI@Z 0043434f f i d3dx9:cnodeasm.obj
 0001:0003334f       ??_GCNodeAsmRegister@D3DXShader@@UAEPAXI@Z 0043434f f i d3dx9:cnodeasm.obj
 0001:0003336b       ?Error@CParse@D3DXShader@@IAAXPAUD3DXTOKEN@2@IPBDZZ 0043436b f   d3dx9:cparse.obj
 0001:000333bf       ?Warning@CParse@D3DXShader@@IAAXPAUD3DXTOKEN@2@IPBDZZ 004343bf f   d3dx9:cparse.obj
 0001:0003340a       ?FatalError@CParse@D3DXShader@@IAAXPAUD3DXTOKEN@2@IPBDZZ 0043440a f   d3dx9:cparse.obj
 0001:00033460       ?IsConst@CParse@D3DXShader@@IAEHPAVCNode@2@@Z 00434460 f   d3dx9:cparse.obj
 0001:000334ce       ?IsNumeric@CParse@D3DXShader@@IAEHPAVCNode@2@@Z 004344ce f   d3dx9:cparse.obj
 0001:00033540       ?TypeSize@CParse@D3DXShader@@IAEIPAVCNode@2@@Z 00434540 f   d3dx9:cparse.obj
 0001:000335c9       ?IsTypeEqual@CParse@D3DXShader@@IAEHPAVCNode@2@0@Z 004345c9 f   d3dx9:cparse.obj
 0001:00033677       ?GetSubType@CParse@D3DXShader@@IAEJPAVCNode@2@IPAVCNodeType@2@@Z 00434677 f   d3dx9:cparse.obj
 0001:0003373f       ?GetComponentType@CParse@D3DXShader@@IAEJPAVCNode@2@0PAW4_D3DXCOMPONENT_TYPE@2@@Z 0043473f f   d3dx9:cparse.obj
 0001:000338f4       ?ScoreFunctionDecl@CParse@D3DXShader@@IAEIPAVCNodeFunction@2@PAVCNode@2@1K@Z 004348f4 f   d3dx9:cparse.obj
 0001:00033a01       ?ScoreCast@CParse@D3DXShader@@IAEIPAVCNode@2@0@Z 00434a01 f   d3dx9:cparse.obj
 0001:00033b16       ?IsSupportedCast@CParse@D3DXShader@@IAEHPAVCNode@2@0H@Z 00434b16 f   d3dx9:cparse.obj
 0001:00033e44       ?ScoreFunctionCall@CParse@D3DXShader@@IAEIPAVCNodeFunction@2@PAVCNode@2@1K@Z 00434e44 f   d3dx9:cparse.obj
 0001:00034011       ?FindDecl@CParse@D3DXShader@@IAEJW4_D3DXDECL_TYPE@2@PAUD3DXTOKEN@2@PAVCNode@2@2PAVCNodeScope@2@KPAPAV52@4@Z 00435011 f   d3dx9:cparse.obj
 0001:00034820       ?jpeg_read_scanlines@D3DX@@YGIPAUjpeg_decompress_struct@1@PAPAEI@Z 00435820 f   d3dx9:jdapistd.obj
 0001:000348b0       ?jpeg_start_decompress@D3DX@@YGHPAUjpeg_decompress_struct@1@@Z 004358b0 f   d3dx9:jdapistd.obj
 0001:00034990       ?jpeg_CreateDecompress@D3DX@@YGXPAUjpeg_decompress_struct@1@HI@Z 00435990 f   d3dx9:jdapimin.obj
 0001:00034a60       ?jpeg_destroy_decompress@D3DX@@YGXPAUjpeg_decompress_struct@1@@Z 00435a60 f   d3dx9:jdapimin.obj
 0001:00034be0       ?jpeg_consume_input@D3DX@@YGHPAUjpeg_decompress_struct@1@@Z 00435be0 f   d3dx9:jdapimin.obj
 0001:00034c90       ?jpeg_finish_decompress@D3DX@@YGHPAUjpeg_decompress_struct@1@@Z 00435c90 f   d3dx9:jdapimin.obj
 0001:00034d50       ?jpeg_read_header@D3DX@@YGHPAUjpeg_decompress_struct@1@H@Z 00435d50 f   d3dx9:jdapimin.obj
 0001:00036360       ?jpeg_resync_to_restart@D3DX@@YGHPAUjpeg_decompress_struct@1@H@Z 00437360 f   d3dx9:jdmarker.obj
 0001:00036490       ?jinit_marker_reader@D3DX@@YGXPAUjpeg_decompress_struct@1@@Z 00437490 f   d3dx9:jdmarker.obj
 0001:00036660       ?jpeg_std_error@D3DX@@YGPAUjpeg_error_mgr@1@PAU21@@Z 00437660 f   d3dx9:jerror.obj
 0001:00036739       ?png_set_error_fn@D3DX@@YGXPAUpng_struct_def@1@PAXP6AX0PBD@Z3@Z 00437739 f   d3dx9:pngerror.obj
 0001:00036755       ?png_error@D3DX@@YGXPAUpng_struct_def@1@PBD@Z 00437755 f   d3dx9:pngerror.obj
 0001:00036773       ?png_warning@D3DX@@YGXPAUpng_struct_def@1@PBD@Z 00437773 f   d3dx9:pngerror.obj
 0001:0003678a       ?png_chunk_error@D3DX@@YGXPAUpng_struct_def@1@PBD@Z 0043778a f   d3dx9:pngerror.obj
 0001:000367ae       ?png_chunk_warning@D3DX@@YGXPAUpng_struct_def@1@PBD@Z 004377ae f   d3dx9:pngerror.obj
 0001:000367d2       ?png_create_read_struct@D3DX@@YGPAUpng_struct_def@1@PBDPAXP6AXPAU21@0@Z3@Z 004377d2 f   d3dx9:pngread.obj
 0001:000368c6       ?png_read_info@D3DX@@YGXPAUpng_struct_def@1@PAUpng_info_struct@1@@Z 004378c6 f   d3dx9:pngread.obj
 0001:00036a34       ?png_read_update_info@D3DX@@YGXPAUpng_struct_def@1@PAUpng_info_struct@1@@Z 00437a34 f   d3dx9:pngread.obj
 0001:00036a53       ?png_read_row@D3DX@@YGXPAUpng_struct_def@1@PAE1@Z 00437a53 f   d3dx9:pngread.obj
 0001:00036dd6       ?png_read_image@D3DX@@YGXPAUpng_struct_def@1@PAPAE@Z 00437dd6 f   d3dx9:pngread.obj
 0001:00036e21       ?png_read_destroy@D3DX@@YGXPAUpng_struct_def@1@PAUpng_info_struct@1@1@Z 00437e21 f   d3dx9:pngread.obj
 0001:00036f36       ?png_destroy_read_struct@D3DX@@YGXPAPAUpng_struct_def@1@PAPAUpng_info_struct@1@1@Z 00437f36 f   d3dx9:pngread.obj
 0001:00036fb3       ?png_get_valid@D3DX@@YGKPAUpng_struct_def@1@PAUpng_info_struct@1@K@Z 00437fb3 f   d3dx9:pngget.obj
 0001:00036fd0       ?png_get_rowbytes@D3DX@@YGKPAUpng_struct_def@1@PAUpng_info_struct@1@@Z 00437fd0 f   d3dx9:pngget.obj
 0001:00036fe9       ?png_get_channels@D3DX@@YGEPAUpng_struct_def@1@PAUpng_info_struct@1@@Z 00437fe9 f   d3dx9:pngget.obj
 0001:00037002       ?png_get_gAMA@D3DX@@YGKPAUpng_struct_def@1@PAUpng_info_struct@1@PAN@Z 00438002 f   d3dx9:pngget.obj
 0001:0003702e       ?png_get_sRGB@D3DX@@YGKPAUpng_struct_def@1@PAUpng_info_struct@1@PAH@Z 0043802e f   d3dx9:pngget.obj
 0001:0003705c       ?png_get_IHDR@D3DX@@YGKPAUpng_struct_def@1@PAUpng_info_struct@1@PAK2PAH3333@Z 0043805c f   d3dx9:pngget.obj
 0001:0003712d       ?png_get_PLTE@D3DX@@YGKPAUpng_struct_def@1@PAUpng_info_struct@1@PAPAUpng_color_struct@1@PAH@Z 0043812d f   d3dx9:pngget.obj
 0001:00037163       ?png_get_tRNS@D3DX@@YGKPAUpng_struct_def@1@PAUpng_info_struct@1@PAPAEPAHPAPAUpng_color_16_struct@1@@Z 00438163 f   d3dx9:pngget.obj
 0001:000371cc       ?png_set_bgr@D3DX@@YGXPAUpng_struct_def@1@@Z 004381cc f   d3dx9:pngtrans.obj
 0001:000371d7       ?png_set_swap@D3DX@@YGXPAUpng_struct_def@1@@Z 004381d7 f   d3dx9:pngtrans.obj
 0001:000371eb       ?png_set_packing@D3DX@@YGXPAUpng_struct_def@1@@Z 004381eb f   d3dx9:pngtrans.obj
 0001:00037206       ?png_set_interlace_handling@D3DX@@YGHPAUpng_struct_def@1@@Z 00438206 f   d3dx9:pngtrans.obj
 0001:00037222       ?png_set_filler@D3DX@@YGXPAUpng_struct_def@1@KH@Z 00438222 f   d3dx9:pngtrans.obj
 0001:00037271       ?png_do_swap@D3DX@@YGXPAUpng_row_info_struct@1@PAE@Z 00438271 f   d3dx9:pngtrans.obj
 0001:000372a0       ?png_do_bgr@D3DX@@YGXPAUpng_row_info_struct@1@PAE@Z 004382a0 f   d3dx9:pngtrans.obj
 0001:00037361       ?png_set_gamma@D3DX@@YGXPAUpng_struct_def@1@NN@Z 00438361 f   d3dx9:pngrtran.obj
 0001:00037399       ?png_set_gray_1_2_4_to_8@D3DX@@YGXPAUpng_struct_def@1@@Z 00438399 f   d3dx9:pngrtran.obj
 0001:00037399       ?png_set_tRNS_to_alpha@D3DX@@YGXPAUpng_struct_def@1@@Z 00438399 f   d3dx9:pngrtran.obj
 0001:000373a4       ?png_read_transform_info@D3DX@@YGXPAUpng_struct_def@1@PAUpng_info_struct@1@@Z 004383a4 f   d3dx9:pngrtran.obj
 0001:00037491       ?png_do_unpack@D3DX@@YGXPAUpng_row_info_struct@1@PAE@Z 00438491 f   d3dx9:pngrtran.obj
 0001:000375a2       ?png_do_unshift@D3DX@@YGXPAUpng_row_info_struct@1@PAEPAUpng_color_8_struct@1@@Z 004385a2 f   d3dx9:pngrtran.obj
 0001:0003771b       ?png_do_chop@D3DX@@YGXPAUpng_row_info_struct@1@PAE@Z 0043871b f   d3dx9:pngrtran.obj
 0001:00037761       ?png_do_read_filler@D3DX@@YGXPAUpng_row_info_struct@1@PAEKK@Z 00438761 f   d3dx9:pngrtran.obj
 0001:0003799a       ?png_do_gamma@D3DX@@YGXPAUpng_row_info_struct@1@PAE1PAPAGH@Z 0043899a f   d3dx9:pngrtran.obj
 0001:00037cea       ?png_do_expand_palette@D3DX@@YGXPAUpng_row_info_struct@1@PAEPAUpng_color_struct@1@1H@Z 00438cea f   d3dx9:pngrtran.obj
 0001:00037ef3       ?png_do_expand@D3DX@@YGXPAUpng_row_info_struct@1@PAEPAUpng_color_16_struct@1@@Z 00438ef3 f   d3dx9:pngrtran.obj
 0001:00038246       ?png_do_dither@D3DX@@YGXPAUpng_row_info_struct@1@PAE11@Z 00439246 f   d3dx9:pngrtran.obj
 0001:00038355       ?png_build_gamma_table@D3DX@@YGXPAUpng_struct_def@1@@Z 00439355 f   d3dx9:pngrtran.obj
 0001:00038658       ?png_init_read_transformations@D3DX@@YGXPAUpng_struct_def@1@@Z 00439658 f   d3dx9:pngrtran.obj
 0001:0003876c       ?png_do_read_transformations@D3DX@@YGXPAUpng_struct_def@1@@Z 0043976c f   d3dx9:pngrtran.obj
 0001:00038908       ?png_set_gAMA@D3DX@@YGXPAUpng_struct_def@1@PAUpng_info_struct@1@N@Z 00439908 f   d3dx9:pngset.obj
 0001:00038925       ?png_set_IHDR@D3DX@@YGXPAUpng_struct_def@1@PAUpng_info_struct@1@KKHHHHH@Z 00439925 f   d3dx9:pngset.obj
 0001:000389c6       ?png_set_PLTE@D3DX@@YGXPAUpng_struct_def@1@PAUpng_info_struct@1@PAUpng_color_struct@1@H@Z 004399c6 f   d3dx9:pngset.obj
 0001:000389ec       ?png_set_sRGB@D3DX@@YGXPAUpng_struct_def@1@PAUpng_info_struct@1@H@Z 004399ec f   d3dx9:pngset.obj
 0001:00038a09       ?png_set_sRGB_gAMA_and_cHRM@D3DX@@YGXPAUpng_struct_def@1@PAUpng_info_struct@1@H@Z 00439a09 f   d3dx9:pngset.obj
 0001:00038a40       ?png_set_tRNS@D3DX@@YGXPAUpng_struct_def@1@PAUpng_info_struct@1@PAEHPAUpng_color_16_struct@1@@Z 00439a40 f   d3dx9:pngset.obj
 0001:00038a89       ?png_read_data@D3DX@@YGXPAUpng_struct_def@1@PAEI@Z 00439a89 f   d3dx9:pngrio.obj
 0001:00038ab2       ?png_set_read_fn@D3DX@@YGXPAUpng_struct_def@1@PAXP6AX0PAEI@Z@Z 00439ab2 f   d3dx9:pngrio.obj
 0001:00038af0       ?png_sig_cmp@D3DX@@YGHPAEII@Z 00439af0 f   d3dx9:png.obj
 0001:00038b3b       ?png_zalloc@D3DX@@YGPAXPAXII@Z 00439b3b f   d3dx9:png.obj
 0001:00038b8e       ?png_zfree@D3DX@@YGXPAX0@Z 00439b8e f   d3dx9:png.obj
 0001:00038b93       ?png_reset_crc@D3DX@@YGXPAUpng_struct_def@1@@Z 00439b93 f   d3dx9:png.obj
 0001:00038baa       ?png_calculate_crc@D3DX@@YGXPAUpng_struct_def@1@PAEI@Z 00439baa f   d3dx9:png.obj
 0001:00038be9       ?png_info_destroy@D3DX@@YGXPAUpng_struct_def@1@PAUpng_info_struct@1@@Z 00439be9 f   d3dx9:png.obj
 0001:00038bf9       ?png_create_info_struct@D3DX@@YGPAUpng_info_struct@1@PAUpng_struct_def@1@@Z 00439bf9 f   d3dx9:png.obj
 0001:00039ee5       ?D3DXDecodeDXT1@D3DXTex@@YGJPAUD3DXCOLOR@@PBE@Z 0043aee5 f   d3dx9:dxtn.obj
 0001:0003a025       ?D3DXDecodeDXT3@D3DXTex@@YGJPAUD3DXCOLOR@@PBE@Z 0043b025 f   d3dx9:dxtn.obj
 0001:0003a0a8       ?D3DXDecodeDXT5@D3DXTex@@YGJPAUD3DXCOLOR@@PBE@Z 0043b0a8 f   d3dx9:dxtn.obj
 0001:0003a1e4       ?D3DXEncodeDXT1@D3DXTex@@YGJPAEPBUD3DXCOLOR@@@Z 0043b1e4 f   d3dx9:dxtn.obj
 0001:0003a2fc       ?D3DXEncodeDXT3@D3DXTex@@YGJPAEPBUD3DXCOLOR@@@Z 0043b2fc f   d3dx9:dxtn.obj
 0001:0003a422       ?D3DXEncodeDXT5@D3DXTex@@YGJPAEPBUD3DXCOLOR@@@Z 0043b422 f   d3dx9:dxtn.obj
 0001:0003a8ab       ?D3DXDecodeDXT2@D3DXTex@@YGJPAUD3DXCOLOR@@PBE@Z 0043b8ab f   d3dx9:dxtn.obj
 0001:0003a8ce       ?D3DXDecodeDXT4@D3DXTex@@YGJPAUD3DXCOLOR@@PBE@Z 0043b8ce f   d3dx9:dxtn.obj
 0001:0003a8f1       ?D3DXEncodeDXT2@D3DXTex@@YGJPAEPBUD3DXCOLOR@@@Z 0043b8f1 f   d3dx9:dxtn.obj
 0001:0003a925       ?D3DXEncodeDXT4@D3DXTex@@YGJPAEPBUD3DXCOLOR@@@Z 0043b925 f   d3dx9:dxtn.obj
 0001:0003a959       ?sse_D3DXQuaternionMultiply@@YGPAUD3DXQUATERNION@@PAU1@PBU1@1@Z 0043b959 f   d3dx9:d3dxquatsse.obj
 0001:0003a9d2       ?sse_D3DXQuaternionNormalize@@YGPAUD3DXQUATERNION@@PAU1@PBU1@@Z 0043b9d2 f   d3dx9:d3dxquatsse.obj
 0001:0003aa6c       ?sse_D3DXQuaternionInverse@@YGPAUD3DXQUATERNION@@PAU1@PBU1@@Z 0043ba6c f   d3dx9:d3dxquatsse.obj
 0001:0003aaea       ?sse_D3DXQuaternionRotationYawPitchRoll@@YGPAUD3DXQUATERNION@@PAU1@MMM@Z 0043baea f   d3dx9:d3dxquatsse.obj
 0001:0003abac       ?sse_D3DXQuaternionRotationMatrix@@YGPAUD3DXQUATERNION@@PAU1@PBUD3DXMATRIX@@@Z 0043bbac f   d3dx9:d3dxquatsse.obj
 0001:0003acd6       ??0KMATRIX@@QAE@ABUD3DXMATRIX@@@Z 0043bcd6 f i d3dx9:arraymath.obj
 0001:0003ae50       ?sse_D3DXVec3TransformArray@@YGPAUD3DXVECTOR4@@PAU1@IPBUD3DXVECTOR3@@IPBUD3DXMATRIX@@I@Z 0043be50 f   d3dx9:arraymath.obj
 0001:0003b056       ?sse_D3DXVec2TransformArray@@YGPAUD3DXVECTOR4@@PAU1@IPBUD3DXVECTOR2@@IPBUD3DXMATRIX@@I@Z 0043c056 f   d3dx9:arraymath.obj
 0001:0003b1e4       ?sse_D3DXVec2TransformCoordArray@@YGPAUD3DXVECTOR2@@PAU1@IPBU1@IPBUD3DXMATRIX@@I@Z 0043c1e4 f   d3dx9:arraymath.obj
 0001:0003b34a       ?sse_D3DXVec2TransformNormalArray@@YGPAUD3DXVECTOR2@@PAU1@IPBU1@IPBUD3DXMATRIX@@I@Z 0043c34a f   d3dx9:arraymath.obj
 0001:0003b45a       ?sse_D3DXVec4TransformArray@@YGPAUD3DXVECTOR4@@PAU1@IPBU1@IPBUD3DXMATRIX@@I@Z 0043c45a f   d3dx9:arraymath.obj
 0001:0003b698       ?sse_D3DXVec3TransformNormalArray@@YGPAUD3DXVECTOR3@@PAU1@IPBU1@IPBUD3DXMATRIX@@I@Z 0043c698 f   d3dx9:arraymath.obj
 0001:0003b868       ?sse_D3DXVec3TransformCoordArray@@YGPAUD3DXVECTOR3@@PAU1@IPBU1@IPBUD3DXMATRIX@@I@Z 0043c868 f   d3dx9:arraymath.obj
 0001:0003ba99       ?sse_D3DXPSGPUpdateSkinnedMesh@@YGXPBUD3DXMATRIX@@0PAE1KKPAPAE2KKPAMH@Z 0043ca99 f   d3dx9:skinning.obj
 0001:0003c11b       ?sse_D3DXFloat16To32Array@@YGPAMPAMPBUD3DXFLOAT16@@I@Z 0043d11b f   d3dx9:float16.obj
 0001:0003c1ef       ?sse_D3DXVec2Transform@@YGPAUD3DXVECTOR4@@PAU1@PBUD3DXVECTOR2@@PBUD3DXMATRIX@@@Z 0043d1ef f   d3dx9:d3dxmathsse.obj
 0001:0003c22d       ?sse_D3DXVec2TransformCoord@@YGPAUD3DXVECTOR2@@PAU1@PBU1@PBUD3DXMATRIX@@@Z 0043d22d f   d3dx9:d3dxmathsse.obj
 0001:0003c284       ?sse_D3DXVec2TransformNormal@@YGPAUD3DXVECTOR2@@PAU1@PBU1@PBUD3DXMATRIX@@@Z 0043d284 f   d3dx9:d3dxmathsse.obj
 0001:0003c2bb       ?sse_D3DXVec4Transform@@YGPAUD3DXVECTOR4@@PAU1@PBU1@PBUD3DXMATRIX@@@Z 0043d2bb f   d3dx9:d3dxmathsse.obj
 0001:0003c2bb       ?sse2_D3DXVec4Transform@@YGPAUD3DXVECTOR4@@PAU1@PBU1@PBUD3DXMATRIX@@@Z 0043d2bb f   d3dx9:d3dxmathsse2.obj
 0001:0003c387       ?sse2_D3DXMatrixMultiply@@YGPAUD3DXMATRIX@@PAU1@PBU1@1@Z 0043d387 f   d3dx9:d3dxmathsse2.obj
 0001:0003c387       ?sse_D3DXMatrixMultiply@@YGPAUD3DXMATRIX@@PAU1@PBU1@1@Z 0043d387 f   d3dx9:d3dxmathsse.obj
 0001:0003c4bb       ?sse2_D3DXMatrixInverse@@YGPAUD3DXMATRIX@@PAU1@PAMPBU1@@Z 0043d4bb f   d3dx9:d3dxmathsse2.obj
 0001:0003c4bb       ?sse_D3DXMatrixInverse@@YGPAUD3DXMATRIX@@PAU1@PAMPBU1@@Z 0043d4bb f   d3dx9:d3dxmathsse.obj
 0001:0003c7b7       ?sse_D3DXVec4Cross@@YGPAUD3DXVECTOR4@@PAU1@PBU1@11@Z 0043d7b7 f   d3dx9:d3dxmathsse.obj
 0001:0003c877       ?sse_D3DXVec4Normalize@@YGPAUD3DXVECTOR4@@PAU1@PBU1@@Z 0043d877 f   d3dx9:d3dxmathsse.obj
 0001:0003c911       ?sse_D3DXVec3CatmullRom@@YGPAUD3DXVECTOR3@@PAU1@PBU1@111M@Z 0043d911 f   d3dx9:d3dxmathsse.obj
 0001:0003c9c3       ?sse_D3DXVec2CatmullRom@@YGPAUD3DXVECTOR2@@PAU1@PBU1@111M@Z 0043d9c3 f   d3dx9:d3dxmathsse.obj
 0001:0003ca48       ?sse_D3DXVec4CatmullRom@@YGPAUD3DXVECTOR4@@PAU1@PBU1@111M@Z 0043da48 f   d3dx9:d3dxmathsse.obj
 0001:0003caed       ?sse_D3DXVec3Hermite@@YGPAUD3DXVECTOR3@@PAU1@PBU1@111M@Z 0043daed f   d3dx9:d3dxmathsse.obj
 0001:0003cba0       ?sse_D3DXVec4Hermite@@YGPAUD3DXVECTOR4@@PAU1@PBU1@111M@Z 0043dba0 f   d3dx9:d3dxmathsse.obj
 0001:0003cc3a       ?sse_D3DXVec2Hermite@@YGPAUD3DXVECTOR2@@PAU1@PBU1@111M@Z 0043dc3a f   d3dx9:d3dxmathsse.obj
 0001:0003ccc0       ?sse_D3DXVec3BaryCentric@@YGPAUD3DXVECTOR3@@PAU1@PBU1@11MM@Z 0043dcc0 f   d3dx9:d3dxmathsse.obj
 0001:0003cd1d       ?sse_D3DXVec4BaryCentric@@YGPAUD3DXVECTOR4@@PAU1@PBU1@11MM@Z 0043dd1d f   d3dx9:d3dxmathsse.obj
 0001:0003cd66       ?sse_D3DXVec2BaryCentric@@YGPAUD3DXVECTOR2@@PAU1@PBU1@11MM@Z 0043dd66 f   d3dx9:d3dxmathsse.obj
 0001:0003cdb8       ?sse_D3DXPlaneIntersectLine@@YGPAUD3DXVECTOR3@@PAU1@PBUD3DXPLANE@@PBU1@2@Z 0043ddb8 f   d3dx9:d3dxmathsse.obj
 0001:0003ce66       ?sse_D3DXMatrixDeterminant@@YGMPBUD3DXMATRIX@@@Z 0043de66 f   d3dx9:d3dxmathsse.obj
 0001:0003ce66       ?sse2_D3DXMatrixDeterminant@@YGMPBUD3DXMATRIX@@@Z 0043de66 f   d3dx9:d3dxmathsse2.obj
 0001:0003cf71       ?sse_D3DXPlaneFromPoints@@YGPAUD3DXPLANE@@PAU1@PBUD3DXVECTOR3@@11@Z 0043df71 f   d3dx9:d3dxmathsse.obj
 0001:0003d071       ?sse_D3DXMatrixReflect@@YGPAUD3DXMATRIX@@PAU1@PBUD3DXPLANE@@@Z 0043e071 f   d3dx9:d3dxmathsse.obj
 0001:0003d17d       ?sse_D3DXVec3TransformNormal@@YGPAUD3DXVECTOR3@@PAU1@PBU1@PBUD3DXMATRIX@@@Z 0043e17d f   d3dx9:d3dxmathsse.obj
 0001:0003d17d       ?sse2_D3DXVec3TransformNormal@@YGPAUD3DXVECTOR3@@PAU1@PBU1@PBUD3DXMATRIX@@@Z 0043e17d f   d3dx9:d3dxmathsse2.obj
 0001:0003d252       ?sse2_D3DXVec3Transform@@YGPAUD3DXVECTOR4@@PAU1@PBUD3DXVECTOR3@@PBUD3DXMATRIX@@@Z 0043e252 f   d3dx9:d3dxmathsse2.obj
 0001:0003d252       ?sse_D3DXVec3Transform@@YGPAUD3DXVECTOR4@@PAU1@PBUD3DXVECTOR3@@PBUD3DXMATRIX@@@Z 0043e252 f   d3dx9:d3dxmathsse.obj
 0001:0003d326       ?sse_D3DXMatrixShadow@@YGPAU_D3DMATRIX@@PAU1@PBUD3DXVECTOR4@@PBUD3DXPLANE@@@Z 0043e326 f   d3dx9:d3dxmathsse.obj
 0001:0003d4ed       ?sse2_D3DXVec3TransformArray@@YGPAUD3DXVECTOR4@@PAU1@IPBUD3DXVECTOR3@@IPBUD3DXMATRIX@@I@Z 0043e4ed f   d3dx9:arraymath2.obj
 0001:0003d6f3       ?sse2_D3DXVec2TransformArray@@YGPAUD3DXVECTOR4@@PAU1@IPBUD3DXVECTOR2@@IPBUD3DXMATRIX@@I@Z 0043e6f3 f   d3dx9:arraymath2.obj
 0001:0003d881       ?sse2_D3DXVec2TransformCoordArray@@YGPAUD3DXVECTOR2@@PAU1@IPBU1@IPBUD3DXMATRIX@@I@Z 0043e881 f   d3dx9:arraymath2.obj
 0001:0003d9e7       ?sse2_D3DXVec2TransformNormalArray@@YGPAUD3DXVECTOR2@@PAU1@IPBU1@IPBUD3DXMATRIX@@I@Z 0043e9e7 f   d3dx9:arraymath2.obj
 0001:0003daf7       ?sse2_D3DXVec4TransformArray@@YGPAUD3DXVECTOR4@@PAU1@IPBU1@IPBUD3DXMATRIX@@I@Z 0043eaf7 f   d3dx9:arraymath2.obj
 0001:0003dd35       ?sse2_D3DXVec3TransformNormalArray@@YGPAUD3DXVECTOR3@@PAU1@IPBU1@IPBUD3DXMATRIX@@I@Z 0043ed35 f   d3dx9:arraymath2.obj
 0001:0003df05       ?sse2_D3DXVec3TransformCoordArray@@YGPAUD3DXVECTOR3@@PAU1@IPBU1@IPBUD3DXMATRIX@@I@Z 0043ef05 f   d3dx9:arraymath2.obj
 0001:0003e227       ?sse2_D3DXFloat16To32Array@@YGPAMPAMPBUD3DXFLOAT16@@I@Z 0043f227 f   d3dx9:float162.obj
 0001:0003e2f9       ?sse2_D3DXVec4Cross@@YGPAUD3DXVECTOR4@@PAU1@PBU1@11@Z 0043f2f9 f   d3dx9:d3dxmathsse2.obj
 0001:0003e3b9       ?sse2_D3DXPlaneFromPoints@@YGPAUD3DXPLANE@@PAU1@PBUD3DXVECTOR3@@11@Z 0043f3b9 f   d3dx9:d3dxmathsse2.obj
 0001:0003e4b9       ?sse2_D3DXMatrixReflect@@YGPAUD3DXMATRIX@@PAU1@PBUD3DXPLANE@@@Z 0043f4b9 f   d3dx9:d3dxmathsse2.obj
 0001:0003e5c5       ?sse_D3DXVec3TransformCoord@@YGPAUD3DXVECTOR3@@PAU1@PBU1@PBUD3DXMATRIX@@@Z 0043f5c5 f   d3dx9:d3dxmathsse.obj
 0001:0003e5c5       ?sse2_D3DXVec3TransformCoord@@YGPAUD3DXVECTOR3@@PAU1@PBU1@PBUD3DXMATRIX@@@Z 0043f5c5 f   d3dx9:d3dxmathsse2.obj
 0001:0003e6c8       ?sse2_D3DXVec3Normalize@@YGPAUD3DXVECTOR3@@PAU1@PBU1@@Z 0043f6c8 f   d3dx9:d3dxmathsse2.obj
 0001:0003e6c8       ?sse_D3DXVec3Normalize@@YGPAUD3DXVECTOR3@@PAU1@PBU1@@Z 0043f6c8 f   d3dx9:d3dxmathsse.obj
 0001:0003e7b8       ?sse2_D3DXPlaneNormalize@@YGPAUD3DXPLANE@@PAU1@PBU1@@Z 0043f7b8 f   d3dx9:d3dxmathsse2.obj
 0001:0003e7b8       ?sse_D3DXPlaneNormalize@@YGPAUD3DXPLANE@@PAU1@PBU1@@Z 0043f7b8 f   d3dx9:d3dxmathsse.obj
 0001:0003e8cd       ?sse_D3DXMatrixMultiplyTranspose@@YGPAUD3DXMATRIX@@PAU1@PBU1@1@Z 0043f8cd f   d3dx9:d3dxmathsse.obj
 0001:0003e8cd       ?sse2_D3DXMatrixMultiplyTranspose@@YGPAUD3DXMATRIX@@PAU1@PBU1@1@Z 0043f8cd f   d3dx9:d3dxmathsse2.obj
 0001:0003eb01       ?sse2_D3DXMatrixShadow@@YGPAU_D3DMATRIX@@PAU1@PBUD3DXVECTOR4@@PBUD3DXPLANE@@@Z 0043fb01 f   d3dx9:d3dxmathsse2.obj
 0001:0003ecc8       ?sse2_D3DXQuaternionRotationYawPitchRoll@@YGPAUD3DXQUATERNION@@PAU1@MMM@Z 0043fcc8 f   d3dx9:d3dxquatsse2.obj
 0001:0003ed8a       ?sse2_D3DXQuaternionRotationMatrix@@YGPAUD3DXQUATERNION@@PAU1@PBUD3DXMATRIX@@@Z 0043fd8a f   d3dx9:d3dxquatsse2.obj
 0001:0003eec0       _AMDSSE_D3DXPlaneTransformArray@24 0043fec0 f   d3dx9:d3dxplane.obj
 0001:0003ef80       _AMDSSE_D3DXVec4TransformArray@24 0043ff80 f   d3dx9:d3dxvec4.obj
 0001:0003f040       _AMDSSE_D3DXVec2TransformArray@24 00440040 f   d3dx9:d3dxvec2.obj
 0001:0003f2a0       _AMDSSE_D3DXVec2TransformCoordArray@24 004402a0 f   d3dx9:d3dxvec2.obj
 0001:0003f500       _AMDSSE_D3DXVec2TransformNormalArray@24 00440500 f   d3dx9:d3dxvec2.obj
 0001:0003f6c0       _AMDSSE_D3DXVec3TransformArray@24 004406c0 f   d3dx9:d3dxvec3.obj
 0001:0003f760       _AMDSSE_D3DXVec3TransformCoordArray@24 00440760 f   d3dx9:d3dxvec3.obj
 0001:0003fa80       _AMDSSE_D3DXVec3TransformNormalArray@24 00440a80 f   d3dx9:d3dxvec3.obj
 0001:0003fcfc       ?x3d_D3DXQuaternionMultiply@@YGPAUD3DXQUATERNION@@PAU1@PBU1@1@Z 00440cfc f   d3dx9:x3d_quat.obj
 0001:0003fd95       ?x3d_D3DXQuaternionNormalize@@YGPAUD3DXQUATERNION@@PAU1@PBU1@@Z 00440d95 f   d3dx9:x3d_quat.obj
 0001:0003fdf2       ?x3d_D3DXQuaternionToAxisAngle@@YGXPBUD3DXQUATERNION@@PAUD3DXVECTOR3@@PAM@Z 00440df2 f   d3dx9:x3d_quat.obj
 0001:0003fe36       ?x3d_D3DXQuaternionRotationMatrix@@YGPAUD3DXQUATERNION@@PAU1@PBUD3DXMATRIX@@@Z 00440e36 f   d3dx9:x3d_quat.obj
 0001:00040052       ?x3d_D3DXQuaternionRotationMatrix_K7@@YGPAUD3DXQUATERNION@@PAU1@PBUD3DXMATRIX@@@Z 00441052 f   d3dx9:x3d_quat.obj
 0001:00040267       ?x3d_D3DXQuaternionRotationYawPitchRoll@@YGPAUD3DXQUATERNION@@PAU1@MMM@Z 00441267 f   d3dx9:x3d_quat.obj
 0001:0004032c       ?x3d_D3DXQuaternionRotationAxis@@YGPAUD3DXQUATERNION@@PAU1@PBUD3DXVECTOR3@@M@Z 0044132c f   d3dx9:x3d_quat.obj
 0001:00040398       ?x3d_D3DXQuaternionSlerp@@YGPAUD3DXQUATERNION@@PAU1@PBU1@1M@Z 00441398 f   d3dx9:x3d_quat.obj
 0001:000404cf       ?x3d_D3DXQuaternionBaryCentric@@YGPAUD3DXQUATERNION@@PAU1@PBU1@11MM@Z 004414cf f   d3dx9:x3d_quat.obj
 0001:0004055c       ?x3d_D3DXQuaternionSquad@@YGPAUD3DXQUATERNION@@PAU1@PBU1@111M@Z 0044155c f   d3dx9:x3d_quat.obj
 0001:000405ee       ?x3d_D3DXQuaternionInverse@@YGPAUD3DXQUATERNION@@PAU1@PBU1@@Z 004415ee f   d3dx9:x3d_quat.obj
 0001:00040652       ?x3d_D3DXQuaternionLn@@YGPAUD3DXQUATERNION@@PAU1@PBU1@@Z 00441652 f   d3dx9:x3d_quat.obj
 0001:000406f9       ?x3d_D3DXQuaternionExp@@YGPAUD3DXQUATERNION@@PAU1@PBU1@@Z 004416f9 f   d3dx9:x3d_quat.obj
 0001:0004079e       ?x3d_D3DXQuaternionSquadSetup@@YGXPAUD3DXQUATERNION@@00PBU1@111@Z 0044179e f   d3dx9:x3d_quat.obj
 0001:000411d7       ?x3d_D3DXMatrixMultiply@@YGPAUD3DXMATRIX@@PAU1@PBU1@1@Z 004421d7 f   d3dx9:x3d_matx.obj
 0001:00041409       ?x3d_D3DXMatrixfDeterminant@@YGMPBUD3DXMATRIX@@@Z 00442409 f   d3dx9:x3d_matx.obj
 0001:000414d8       ?x3d_D3DXMatrixTranslation@@YGPAUD3DXMATRIX@@PAU1@MMM@Z 004424d8 f   d3dx9:x3d_matx.obj
 0001:00041528       ?x3d_D3DXMatrixShadow@@YGPAUD3DXMATRIX@@PAU1@PBUD3DXVECTOR4@@PBUD3DXPLANE@@@Z 00442528 f   d3dx9:x3d_matx.obj
 0001:00041613       ?x3d_D3DXMatrixReflect@@YGPAUD3DXMATRIX@@PAU1@PBUD3DXPLANE@@@Z 00442613 f   d3dx9:x3d_matx.obj
 0001:000416ef       ?x3d_D3DXMatrixRotationX@@YGPAUD3DXMATRIX@@PAU1@M@Z 004426ef f   d3dx9:x3d_matx.obj
 0001:00041752       ?x3d_D3DXMatrixRotationY@@YGPAUD3DXMATRIX@@PAU1@M@Z 00442752 f   d3dx9:x3d_matx.obj
 0001:000417b0       ?x3d_D3DXMatrixRotationZ@@YGPAUD3DXMATRIX@@PAU1@M@Z 004427b0 f   d3dx9:x3d_matx.obj
 0001:00041809       ?x3d_D3DXMatrixScaling@@YGPAUD3DXMATRIX@@PAU1@MMM@Z 00442809 f   d3dx9:x3d_matx.obj
 0001:00041850       ?x3d_D3DXMatrixTranspose@@YGPAUD3DXMATRIX@@PAU1@PBU1@@Z 00442850 f   d3dx9:x3d_matx.obj
 0001:000418bf       ?x3d_D3DXMatrixIdentity@@YGPAUD3DXMATRIX@@PAU1@@Z 004428bf f   d3dx9:x3d_matx.obj
 0001:000418f8       ?x3d_D3DXMatrixRotationQuaternion@@YGPAUD3DXMATRIX@@PAU1@PBUD3DXQUATERNION@@@Z 004428f8 f   d3dx9:x3d_matx.obj
 0001:000419ca       ?x3d_D3DXMatrixRotationQuaternion_K7@@YGPAUD3DXMATRIX@@PAU1@PBUD3DXQUATERNION@@@Z 004429ca f   d3dx9:x3d_matx.obj
 0001:00041a7f       ?x3d_D3DXMatrixTransformation@@YGPAUD3DXMATRIX@@PAU1@PBUD3DXVECTOR3@@PBUD3DXQUATERNION@@1121@Z 00442a7f f   d3dx9:x3d_matx.obj
 0001:00042c17       ?x3d_D3DXMatrixRotationYawPitchRoll@@YGPAUD3DXMATRIX@@PAU1@MMM@Z 00443c17 f   d3dx9:x3d_matx.obj
 0001:00042dbc       ?x3d_D3DXMatrixAffineTransformation@@YGPAUD3DXMATRIX@@PAU1@MPBUD3DXVECTOR3@@PBUD3DXQUATERNION@@1@Z 00443dbc f   d3dx9:x3d_matx.obj
 0001:000432f0       ?x3d_D3DXMatrixRotationAxis@@YGPAUD3DXMATRIX@@PAU1@PBUD3DXVECTOR3@@M@Z 004442f0 f   d3dx9:x3d_matx.obj
 0001:00043409       ?x3d_D3DXMatrixTransformation_K7@@YGPAUD3DXMATRIX@@PAU1@PBUD3DXVECTOR3@@PBUD3DXQUATERNION@@1121@Z 00444409 f   d3dx9:x3d_matx.obj
 0001:0004455d       ?x3d_D3DXMatrixInverse_K7@@YGPAUD3DXMATRIX@@PAU1@PAMPBU1@@Z 0044555d f   d3dx9:x3d_matx.obj
 0001:0004483f       ?x3d_D3DXMatrixMultiplyTranspose@@YGPAUD3DXMATRIX@@PAU1@PBU1@1@Z 0044583f f   d3dx9:x3d_matx.obj
 0001:00044c37       ?x3d_D3DXMatrixInverse_inline@@YGPAUD3DXMATRIX@@PAU1@PAMPBU1@@Z 00445c37 f i d3dx9:x3d_matx.obj
 0001:00044f6b       ?x3d_D3DXMatrixInverse@@YGPAUD3DXMATRIX@@PAU1@PAMPBU1@@Z 00445f6b f   d3dx9:x3d_matx.obj
 0001:00044f87       _x3d_D3DXVec3Transform@12  00445f87 f   d3dx9:x3d_vec3.obj
 0001:00044ff8       _x3d_D3DXVec3TransformNormal@12 00445ff8 f   d3dx9:x3d_vec3.obj
 0001:0004505f       ?x3d_D3DXVec3Normalize@@YGPAUD3DXVECTOR3@@PAU1@PBU1@@Z 0044605f f   d3dx9:x3d_vec3.obj
 0001:000450be       ?x3d_D3DXVec3BaryCentric@@YGPAUD3DXVECTOR3@@PAU1@PBU1@11MM@Z 004460be f   d3dx9:x3d_vec3.obj
 0001:0004512f       ?x3d_D3DXVec3Hermite@@YGPAUD3DXVECTOR3@@PAU1@PBU1@111M@Z 0044612f f   d3dx9:x3d_vec3.obj
 0001:00045203       ?x3d_D3DXVec3CatmullRom@@YGPAUD3DXVECTOR3@@PAU1@PBU1@111M@Z 00446203 f   d3dx9:x3d_vec3.obj
 0001:000452ed       ?x3d_D3DXVec3TransformCoord_inline@@YGPAUD3DXVECTOR3@@PAU1@PBU1@PBUD3DXMATRIX@@@Z 004462ed f i d3dx9:x3d_vec3.obj
 0001:00045378       ?x3d_D3DXMatrixMultiply_inline@@YGPAUD3DXMATRIX@@PAU1@PBU1@1@Z 00446378 f i d3dx9:x3d_vec3.obj
 0001:0004553f       _x3d_D3DXVec3TransformCoord@12 0044653f f   d3dx9:x3d_vec3.obj
 0001:00045544       ?x3d_D3DXVec3Project@@YGPAUD3DXVECTOR3@@PAU1@PBU1@PBU_D3DVIEWPORT9@@PBUD3DXMATRIX@@33@Z 00446544 f   d3dx9:x3d_vec3.obj
 0001:000456cc       ?x3d_D3DXVec3Unproject@@YGPAUD3DXVECTOR3@@PAU1@PBU1@PBU_D3DVIEWPORT9@@PBUD3DXMATRIX@@33@Z 004466cc f   d3dx9:x3d_vec3.obj
 0001:000458f2       ?x3d_D3DXVec3Unproject_K7@@YGPAUD3DXVECTOR3@@PAU1@PBU1@PBU_D3DVIEWPORT9@@PBUD3DXMATRIX@@33@Z 004468f2 f   d3dx9:x3d_vec3.obj
 0001:00045a80       _AMDX3D_D3DXFloat16To32Array@12 00446a80 f   d3dx9:d3dxfloat16.obj
 0001:00045bc0       _AMDX3D_D3DXFloat32To16Array@12 00446bc0 f   d3dx9:d3dxfloat16.obj
 0001:00045d3b       _x3d_D3DXVec2Transform@12  00446d3b f   d3dx9:x3d_vec2.obj
 0001:00045d90       _x3d_D3DXVec2TransformNormal@12 00446d90 f   d3dx9:x3d_vec2.obj
 0001:00045dc9       _x3d_D3DXVec2TransformCoord@12 00446dc9 f   d3dx9:x3d_vec2.obj
 0001:00045e2d       ?x3d_D3DXVec2Hermite@@YGPAUD3DXVECTOR2@@PAU1@PBU1@111M@Z 00446e2d f   d3dx9:x3d_vec2.obj
 0001:00045ec5       ?x3d_D3DXVec2BaryCentric@@YGPAUD3DXVECTOR2@@PAU1@PBU1@11MM@Z 00446ec5 f   d3dx9:x3d_vec2.obj
 0001:00045f0e       ?x3d_D3DXVec2Normalize@@YGPAUD3DXVECTOR2@@PAU1@PBU1@@Z 00446f0e f   d3dx9:x3d_vec2.obj
 0001:00045f51       ?x3d_D3DXVec2CatmullRom@@YGPAUD3DXVECTOR2@@PAU1@PBU1@111M@Z 00446f51 f   d3dx9:x3d_vec2.obj
 0001:00045ffc       _x3d_D3DXVec4Transform@12  00446ffc f   d3dx9:x3d_vec4.obj
 0001:0004607e       ?x3d_D3DXVec4Normalize@@YGPAUD3DXVECTOR4@@PAU1@PBU1@@Z 0044707e f   d3dx9:x3d_vec4.obj
 0001:000460dd       ?x3d_D3DXVec4Cross@@YGPAUD3DXVECTOR4@@PAU1@PBU1@11@Z 004470dd f   d3dx9:x3d_vec4.obj
 0001:0004620f       ?x3d_D3DXVec4BaryCentric@@YGPAUD3DXVECTOR4@@PAU1@PBU1@11MM@Z 0044720f f   d3dx9:x3d_vec4.obj
 0001:00046280       ?x3d_D3DXVec4Hermite@@YGPAUD3DXVECTOR4@@PAU1@PBU1@111M@Z 00447280 f   d3dx9:x3d_vec4.obj
 0001:00046348       ?x3d_D3DXVec4CatmullRom@@YGPAUD3DXVECTOR4@@PAU1@PBU1@111M@Z 00447348 f   d3dx9:x3d_vec4.obj
 0001:00046426       ?x3d_D3DXPlaneFromPointNormal@@YGPAUD3DXPLANE@@PAU1@PBUD3DXVECTOR3@@1@Z 00447426 f   d3dx9:x3d_plane.obj
 0001:00046469       ?x3d_D3DXPlaneFromPoints@@YGPAUD3DXPLANE@@PAU1@PBUD3DXVECTOR3@@11@Z 00447469 f   d3dx9:x3d_plane.obj
 0001:0004654d       ?x3d_D3DXPlaneIntersectLine@@YGPAUD3DXVECTOR3@@PAU1@PBUD3DXPLANE@@PBU1@2@Z 0044754d f   d3dx9:x3d_plane.obj
 0001:0004660b       ?x3d_D3DXPlaneNormalize@@YGPAUD3DXPLANE@@PAU1@PBU1@@Z 0044760b f   d3dx9:x3d_plane.obj
 0001:0004666f       _x3d_D3DXPlaneTransform@12 0044766f f   d3dx9:x3d_plane.obj
 0001:000466ed       ?TypeSize@D3DXShader@@YGIPAVCNode@1@@Z 004476ed f   d3dx9:cshaderprogram.obj
 0001:0004674b       ?EmitTypeInfo@D3DXShader@@YGJPAVCCommentBlock@1@PAVCNode@1@IPAK@Z 0044774b f   d3dx9:cshaderprogram.obj
 0001:00046aa0       ?jpeg_calc_output_dimensions@D3DX@@YGXPAUjpeg_decompress_struct@1@@Z 00447aa0 f   d3dx9:jdmaster.obj
 0001:00047030       ?jinit_master_decompress@D3DX@@YGXPAUjpeg_decompress_struct@1@@Z 00448030 f   d3dx9:jdmaster.obj
 0001:000475f0       ?jinit_input_controller@D3DX@@YGXPAUjpeg_decompress_struct@1@@Z 004485f0 f   d3dx9:jdinput.obj
 0001:00048070       ?jinit_memory_mgr@D3DX@@YGXPAUjpeg_common_struct@1@@Z 00449070 f   d3dx9:jmemmgr.obj
 0001:00048130       ?jpeg_abort@D3DX@@YGXPAUjpeg_common_struct@1@@Z 00449130 f   d3dx9:jcomapi.obj
 0001:00048170       ?jpeg_destroy@D3DX@@YGXPAUjpeg_common_struct@1@@Z 00449170 f   d3dx9:jcomapi.obj
 0001:00048190       ?jpeg_alloc_quant_table@D3DX@@YGPAUJQUANT_TBL@1@PAUjpeg_common_struct@1@@Z 00449190 f   d3dx9:jcomapi.obj
 0001:000481b0       ?jpeg_alloc_huff_table@D3DX@@YGPAUJHUFF_TBL@1@PAUjpeg_common_struct@1@@Z 004491b0 f   d3dx9:jcomapi.obj
 0001:000481d0       ?jdiv_round_up@D3DX@@YGJJJ@Z 004491d0 f   d3dx9:jutils.obj
 0001:000481f0       ?jround_up@D3DX@@YGJJJ@Z   004491f0 f   d3dx9:jutils.obj
 0001:00048210       ?jcopy_sample_rows@D3DX@@YGXPAPAEH0HHI@Z 00449210 f   d3dx9:jutils.obj
 0001:00048260       ?jcopy_block_row@D3DX@@YGXPAY0EA@F0I@Z 00449260 f   d3dx9:jutils.obj
 0001:00048290       ?jzero_far@D3DX@@YGXPAXI@Z 00449290 f   d3dx9:jutils.obj
 0001:000482b0       _d3dx_inflateReset@4       004492b0 f   d3dx9:inflate.obj
 0001:000482ef       _d3dx_inflateEnd@4         004492ef f   d3dx9:inflate.obj
 0001:0004832c       _d3dx_inflateInit2_@16     0044932c f   d3dx9:inflate.obj
 0001:0004840b       _d3dx_inflateInit_@12      0044940b f   d3dx9:inflate.obj
 0001:00048421       _d3dx_inflate@8            00449421 f   d3dx9:inflate.obj
 0001:00048784       ?png_create_struct@D3DX@@YGPAXH@Z 00449784 f   d3dx9:pngmem.obj
 0001:000487c8       ?png_destroy_struct@D3DX@@YGXPAX@Z 004497c8 f   d3dx9:pngmem.obj
 0001:000487dc       ?png_malloc@D3DX@@YGPAXPAUpng_struct_def@1@K@Z 004497dc f   d3dx9:pngmem.obj
 0001:00048813       ?png_free@D3DX@@YGXPAUpng_struct_def@1@PAX@Z 00449813 f   d3dx9:pngmem.obj
 0001:0004882e       ?png_memcpy_check@D3DX@@YGPAXPAUpng_struct_def@1@PAX1K@Z 0044982e f   d3dx9:pngmem.obj
 0001:00048853       ?png_memset_check@D3DX@@YGPAXPAUpng_struct_def@1@PAXHK@Z 00449853 f   d3dx9:pngmem.obj
 0001:00048886       ?png_get_uint_32@D3DX@@YGKPAE@Z 00449886 f   d3dx9:pngrutil.obj
 0001:000488ab       ?png_crc_read@D3DX@@YGXPAUpng_struct_def@1@PAEI@Z 004498ab f   d3dx9:pngrutil.obj
 0001:000488c2       ?png_crc_error@D3DX@@YGHPAUpng_struct_def@1@@Z 004498c2 f   d3dx9:pngrutil.obj
 0001:0004891e       ?png_check_chunk_name@D3DX@@YGXPAUpng_struct_def@1@PAE@Z 0044991e f   d3dx9:pngrutil.obj
 0001:00048980       ?png_combine_row@D3DX@@YGXPAUpng_struct_def@1@PAEH@Z 00449980 f   d3dx9:pngrutil.obj
 0001:00048b96       ?png_do_read_interlace@D3DX@@YGXPAUpng_row_info_struct@1@PAEHK@Z 00449b96 f   d3dx9:pngrutil.obj
 0001:00048e61       ?png_read_filter_row@D3DX@@YGXPAUpng_struct_def@1@PAUpng_row_info_struct@1@PAE2H@Z 00449e61 f   d3dx9:pngrutil.obj
 0001:00048fda       ?png_read_start_row@D3DX@@YGXPAUpng_struct_def@1@@Z 00449fda f   d3dx9:pngrutil.obj
 0001:00049174       ?png_crc_finish@D3DX@@YGHPAUpng_struct_def@1@K@Z 0044a174 f   d3dx9:pngrutil.obj
 0001:000491f9       ?png_handle_IHDR@D3DX@@YGXPAUpng_struct_def@1@PAUpng_info_struct@1@K@Z 0044a1f9 f   d3dx9:pngrutil.obj
 0001:000493d9       ?png_handle_PLTE@D3DX@@YGXPAUpng_struct_def@1@PAUpng_info_struct@1@K@Z 0044a3d9 f   d3dx9:pngrutil.obj
 0001:000494f2       ?png_handle_IEND@D3DX@@YGXPAUpng_struct_def@1@PAUpng_info_struct@1@K@Z 0044a4f2 f   d3dx9:pngrutil.obj
 0001:00049538       ?png_handle_gAMA@D3DX@@YGXPAUpng_struct_def@1@PAUpng_info_struct@1@K@Z 0044a538 f   d3dx9:pngrutil.obj
 0001:00049639       ?png_handle_sRGB@D3DX@@YGXPAUpng_struct_def@1@PAUpng_info_struct@1@K@Z 0044a639 f   d3dx9:pngrutil.obj
 0001:0004971b       ?png_handle_tRNS@D3DX@@YGXPAUpng_struct_def@1@PAUpng_info_struct@1@K@Z 0044a71b f   d3dx9:pngrutil.obj
 0001:000498bc       ?png_handle_unknown@D3DX@@YGXPAUpng_struct_def@1@PAUpng_info_struct@1@K@Z 0044a8bc f   d3dx9:pngrutil.obj
 0001:00049902       ?png_read_finish_row@D3DX@@YGXPAUpng_struct_def@1@@Z 0044a902 f   d3dx9:pngrutil.obj
 0001:00049b12       _d3dx_crc32@12             0044ab12 f   d3dx9:crc32.obj
 0001:00049c07       ?sse_SinCos4@@YGXQBMQAM1@Z 0044ac07 f   d3dx9:d3dxtrigsse.obj
 0001:00049df0       ?sse2_SinCos4@@YGXQBMQAM1@Z 0044adf0 f   d3dx9:d3dxtrigsse2.obj
 0001:00049f40       _a_atan                    0044af40 f   d3dx9:amdmath.obj
 0001:0004a000       _a_atan2                   0044b000 f   d3dx9:amdmath.obj
 0001:0004a100       _a_acos                    0044b100 f   d3dx9:amdmath.obj
 0001:0004a200       _a_asin                    0044b200 f   d3dx9:amdmath.obj
 0001:0004a300       _a_log                     0044b300 f   d3dx9:amdmath.obj
 0001:0004a400       _a_log10                   0044b400 f   d3dx9:amdmath.obj
 0001:0004a420       _a_exp                     0044b420 f   d3dx9:amdmath.obj
 0001:0004a500       _a_sqrt                    0044b500 f   d3dx9:amdmath.obj
 0001:0004a520       _a_fabs                    0044b520 f   d3dx9:amdmath.obj
 0001:0004a540       _a_ceil                    0044b540 f   d3dx9:amdmath.obj
 0001:0004a580       _a_floor                   0044b580 f   d3dx9:amdmath.obj
 0001:0004a5c0       _a_frexp                   0044b5c0 f   d3dx9:amdmath.obj
 0001:0004a600       _a_ldexp                   0044b600 f   d3dx9:amdmath.obj
 0001:0004a660       _a_modf                    0044b660 f   d3dx9:amdmath.obj
 0001:0004a680       _a_fmod                    0044b680 f   d3dx9:amdmath.obj
 0001:0004a6e0       _a_sincos                  0044b6e0 f   d3dx9:amdmath.obj
 0001:0004a6e0       _a_cos                     0044b6e0 f   d3dx9:amdmath.obj
 0001:0004a7e0       _a_sin                     0044b7e0 f   d3dx9:amdmath.obj
 0001:0004a8e0       _a_tan                     0044b8e0 f   d3dx9:amdmath.obj
 0001:0004aa00       _a_pow                     0044ba00 f   d3dx9:amdmath.obj
 0001:0004b140       ?jinit_d_main_controller@D3DX@@YGXPAUjpeg_decompress_struct@1@H@Z 0044c140 f   d3dx9:jdmainct.obj
 0001:0004c100       ?jinit_d_coef_controller@D3DX@@YGXPAUjpeg_decompress_struct@1@H@Z 0044d100 f   d3dx9:jdcoefct.obj
 0001:0004c240       ?jpeg_make_d_derived_tbl@D3DX@@YGXPAUjpeg_decompress_struct@1@HHPAPAUd_derived_tbl@1@@Z 0044d240 f   d3dx9:jdhuff.obj
 0001:0004c510       ?jpeg_fill_bit_buffer@D3DX@@YGHPAUbitread_working_state@1@JHH@Z 0044d510 f   d3dx9:jdhuff.obj
 0001:0004c630       ?jpeg_huff_decode@D3DX@@YGHPAUbitread_working_state@1@JHPAUd_derived_tbl@1@H@Z 0044d630 f   d3dx9:jdhuff.obj
 0001:0004ccd0       ?jinit_huff_decoder@D3DX@@YGXPAUjpeg_decompress_struct@1@@Z 0044dcd0 f   d3dx9:jdhuff.obj
 0001:0004d910       ?jinit_phuff_decoder@D3DX@@YGXPAUjpeg_decompress_struct@1@@Z 0044e910 f   d3dx9:jdphuff.obj
 0001:0004dd80       ?jinit_inverse_dct@D3DX@@YGXPAUjpeg_decompress_struct@1@@Z 0044ed80 f   d3dx9:jddctmgr.obj
 0001:0004df00       ?jinit_d_post_controller@D3DX@@YGXPAUjpeg_decompress_struct@1@H@Z 0044ef00 f   d3dx9:jdpostct.obj
 0001:0004edf0       ?jinit_upsampler@D3DX@@YGXPAUjpeg_decompress_struct@1@@Z 0044fdf0 f   d3dx9:jdsample.obj
 0001:00050650       ?jinit_color_deconverter@D3DX@@YGXPAUjpeg_decompress_struct@1@@Z 00451650 f   d3dx9:jdcolor.obj
 0001:000512f0       ?jinit_merged_upsampler@D3DX@@YGXPAUjpeg_decompress_struct@1@@Z 004522f0 f   d3dx9:jdmerge.obj
 0001:00051370       ?jpeg_free_large@D3DX@@YGXPAUjpeg_common_struct@1@PAXI@Z 00452370 f   d3dx9:jmemansi.obj
 0001:00051370       ?jpeg_free_small@D3DX@@YGXPAUjpeg_common_struct@1@PAXI@Z 00452370 f   d3dx9:jmemansi.obj
 0001:00051390       ?jpeg_get_large@D3DX@@YGPAXPAUjpeg_common_struct@1@I@Z 00452390 f   d3dx9:jmemansi.obj
 0001:00051390       ?jpeg_get_small@D3DX@@YGPAXPAUjpeg_common_struct@1@I@Z 00452390 f   d3dx9:jmemansi.obj
 0001:000513c0       ?jpeg_mem_available@D3DX@@YGJPAUjpeg_common_struct@1@JJJ@Z 004523c0 f   d3dx9:jmemansi.obj
 0001:000514c0       ?jpeg_open_backing_store@D3DX@@YGXPAUjpeg_common_struct@1@PAUbacking_store_struct@1@J@Z 004524c0 f   d3dx9:jmemansi.obj
 0001:00051510       ?jpeg_mem_init@D3DX@@YGJPAUjpeg_common_struct@1@@Z 00452510 f   d3dx9:jmemansi.obj
 0001:00051520       ?jpeg_mem_term@D3DX@@YGXPAUjpeg_common_struct@1@@Z 00452520 f   d3dx9:jmemansi.obj
 0001:00051530       _d3dx_inflate_blocks_reset@12 00452530 f   d3dx9:infblock.obj
 0001:00051596       _d3dx_inflate_blocks_new@12 00452596 f   d3dx9:infblock.obj
 0001:00051614       _d3dx_inflate_blocks@12    00452614 f   d3dx9:infblock.obj
 0001:00051d60       _d3dx_inflate_blocks_free@8 00452d60 f   d3dx9:infblock.obj
 0001:00051d93       _d3dx_adler32@12           00452d93 f   d3dx9:adler32.obj
 0001:00051eae       _d3dx_zcalloc@12           00452eae f   d3dx9:default_allocator.obj
 0001:00051eca       _d3dx_zcfree@8             00452eca f   d3dx9:default_allocator.obj
 0001:00051ee0       ?jpeg_idct_float@D3DX@@YGXPAUjpeg_decompress_struct@1@PAUjpeg_component_info@1@PAFPAPAEI@Z 00452ee0 f   d3dx9:jidctflt.obj
 0001:00052ff0       ?jpeg_idct_ifast@D3DX@@YGXPAUjpeg_decompress_struct@1@PAUjpeg_component_info@1@PAFPAPAEI@Z 00453ff0 f   d3dx9:jidctfst.obj
 0001:00053a40       ?jpeg_idct_islow@D3DX@@YGXPAUjpeg_decompress_struct@1@PAUjpeg_component_info@1@PAFPAPAEI@Z 00454a40 f   d3dx9:jidctint.obj
 0001:00054730       ?pidct8x8llm@D3DX@@YGXPAF00PAPAEIPAE@Z 00455730 f   d3dx9:piint.obj
 0001:00054ba0       ?jpeg_idct_islow_x86@D3DX@@YGXPAUjpeg_decompress_struct@1@PAUjpeg_component_info@1@PAFPAPAEI@Z 00455ba0 f   d3dx9:piint.obj
 0001:00054bf0       ?midct8x8llm@D3DX@@YGXPAF00PAPAEIPAE@Z 00455bf0 f   d3dx9:miint.obj
 0001:000552b0       ?jpeg_idct_islow_mmx@D3DX@@YGXPAUjpeg_decompress_struct@1@PAUjpeg_component_info@1@PAFPAPAEI@Z 004562b0 f   d3dx9:miint.obj
 0001:00055300       ?jpeg_idct_4x4@D3DX@@YGXPAUjpeg_decompress_struct@1@PAUjpeg_component_info@1@PAFPAPAEI@Z 00456300 f   d3dx9:jidctred.obj
 0001:000559c0       ?jpeg_idct_2x2@D3DX@@YGXPAUjpeg_decompress_struct@1@PAUjpeg_component_info@1@PAFPAPAEI@Z 004569c0 f   d3dx9:jidctred.obj
 0001:00055b90       ?jpeg_idct_1x1@D3DX@@YGXPAUjpeg_decompress_struct@1@PAUjpeg_component_info@1@PAFPAPAEI@Z 00456b90 f   d3dx9:jidctred.obj
 0001:00055be0       ?MYCbCr2RGB@D3DX@@YGXHPAE000@Z 00456be0 f   d3dx9:mcbcr.obj
 0001:00055d20       _d3dx_inflate_codes_new@20 00456d20 f   d3dx9:infcodes.obj
 0001:00055d53       _d3dx_inflate_codes@12     00456d53 f   d3dx9:infcodes.obj
 0001:000562aa       _d3dx_inflate_codes_free@8 004572aa f   d3dx9:infcodes.obj
 0001:0005663a       _d3dx_inflate_trees_bits@20 0045763a f   d3dx9:inftrees.obj
 0001:000566b3       _d3dx_inflate_trees_dynamic@36 004576b3 f   d3dx9:inftrees.obj
 0001:000567ad       _d3dx_inflate_trees_fixed@20 004577ad f   d3dx9:inftrees.obj
 0001:000567de       _d3dx_inflate_flush@12     004577de f   d3dx9:infutil.obj
 0001:000568ef       _d3dx_inflate_fast@24      004578ef f   d3dx9:inffast.obj
 0001:00056bb1       __cfltcvt_init             00457bb1 f   LIBC:fpinit.obj
 0001:00056be9       __fpmath                   00457be9 f   LIBC:fpinit.obj
 0001:00056c00       ??3@YAXPAX@Z               00457c00 f   LIBC:delete.obj
 0001:00056c05       _sprintf                   00457c05 f   LIBC:sprintf.obj
 0001:00056c5d       ??2@YAPAXI@Z               00457c5d f   LIBC:new.obj
 0001:00056c9c       @__security_check_cookie@4 00457c9c f   LIBC:seccook.obj
 0001:00056caa       ?_JumpToContinuation@@YGXPAXPAUEHRegistrationNode@@@Z 00457caa f   LIBC:trnsctrl.obj
 0001:00056cda       ?_CallMemberFunction0@@YGXPAX0@Z 00457cda f   LIBC:trnsctrl.obj
 0001:00056cda       ?_CallMemberFunction1@@YGXPAX00@Z 00457cda f   LIBC:trnsctrl.obj
 0001:00056cda       ?_CallMemberFunction2@@YGXPAX00H@Z 00457cda f   LIBC:trnsctrl.obj
 0001:00056ce1       ?_UnwindNestedFrames@@YGXPAUEHRegistrationNode@@PAUEHExceptionRecord@@@Z 00457ce1 f   LIBC:trnsctrl.obj
 0001:00056d33       ___CxxFrameHandler         00457d33 f   LIBC:trnsctrl.obj
 0001:00056dfe       ?_GetRangeOfTrysToCheck@@YAPBU_s_TryBlockMapEntry@@PBU_s_FuncInfo@@HHPAI1@Z 00457dfe f   LIBC:trnsctrl.obj
 0001:00056e78       ?_CreateFrameInfo@@YAPAUFrameInfo@@PAU1@PAX@Z 00457e78 f   LIBC:trnsctrl.obj
 0001:00056e91       ?IsExceptionObjectToBeDestroyed@@YAHPAX@Z 00457e91 f   LIBC:trnsctrl.obj
 0001:00056eac       ?_FindAndUnlinkFrame@@YAXPAUFrameInfo@@@Z 00457eac f   LIBC:trnsctrl.obj
 0001:00056ee5       ?_CallCatchBlock2@@YAPAXPAUEHRegistrationNode@@PBU_s_FuncInfo@@PAXHK@Z 00457ee5 f   LIBC:trnsctrl.obj
 0001:00056f36       ?_CallSETranslator@@YAHPAUEHExceptionRecord@@PAUEHRegistrationNode@@PAX2PBU_s_FuncInfo@@H1@Z 00457f36 f   LIBC:trnsctrl.obj
 0001:00056fe4       __global_unwind2           00457fe4 f   LIBC:exsup.obj
 0001:00057026       __local_unwind2            00458026 f   LIBC:exsup.obj
 0001:0005707e       __NLG_Return2              0045807e     LIBC:exsup.obj
 0001:0005708e       __abnormal_termination     0045808e f   LIBC:exsup.obj
 0001:000570b1       __NLG_Notify1              004580b1 f   LIBC:exsup.obj
 0001:000570ba       __NLG_Notify               004580ba f   LIBC:exsup.obj
 0001:000570cd       __NLG_Dispatch             004580cd     LIBC:exsup.obj
 0001:000570d2       __mbsnbcpy                 004580d2 f   LIBC:mbsnbcpy.obj
 0001:00057154       __ftol2                    00458154 f   LIBC:ftol2.obj
 0001:000571d0       _ceil                      004581d0 f   LIBC:ceil_pentium4.obj
 0001:00057210       __ceil_pentium4            00458210 f   LIBC:ceil_pentium4.obj
 0001:000572f0       __CIasin                   004582f0 f   LIBC:asin.obj
 0001:00057304       _asin                      00458304     LIBC:asin.obj
 0001:000573bb       _rand                      004583bb f   LIBC:rand.obj
 0001:000573de       __mbsrchr                  004583de f   LIBC:mbsrchr.obj
 0001:00057440       __alldiv                   00458440 f   LIBC:lldiv.obj
 0001:000574f0       _strncpy                   004584f0 f   LIBC:strncpy.obj
 0001:00057614       __snprintf                 00458614 f   LIBC:snprintf.obj
 0001:00057670       _memmove                   00458670 f   LIBC:memmove.obj
 0001:000579ad       __onexit                   004589ad f   LIBC:onexit.obj
 0001:00057a2f       _atexit                    00458a2f f   LIBC:onexit.obj
 0001:00057a41       ___onexitinit              00458a41 f   LIBC:onexit.obj
 0001:00057a69       __amsg_exit                00458a69 f   LIBC:wincrt0.obj
 0001:00057a8e       _WinMainCRTStartup         00458a8e f   LIBC:wincrt0.obj
 0001:00057c70       __CIacos                   00458c70 f   LIBC:acos.obj
 0001:00057c84       _acos                      00458c84     LIBC:acos.obj
 0001:00057d3b       __copysign                 00458d3b f   LIBC:ieeemisc.obj
 0001:00057d5c       __finite                   00458d5c f   LIBC:ieeemisc.obj
 0001:00057d71       __fpclass                  00458d71 f   LIBC:ieeemisc.obj
 0001:00057e0c       __ftol                     00458e0c f   LIBC:ftol.obj
 0001:00057f53       __control87                00458f53 f   LIBC:ieee87.obj
 0001:00057f85       __controlfp                00458f85 f   LIBC:ieee87.obj
 0001:00057f9b       _free                      00458f9b f   LIBC:free.obj
 0001:00057fd3       __strdup                   00458fd3 f   LIBC:strdup.obj
 0001:00057fd3       _strdup                    00458fd3 f   LIBC:strdup.obj
 0001:00057ffe       __strcats                  00458ffe f   LIBC:setlocal.obj
 0001:00058022       ___lc_strtolc              00459022 f   LIBC:setlocal.obj
 0001:000580f4       ___lc_lctostr              004590f4 f   LIBC:setlocal.obj
 0001:00058201       __expandlocale             00459201 f   LIBC:setlocal.obj
 0001:0005854b       _setlocale                 0045954b f   LIBC:setlocal.obj
 0001:000587c0       _qsort                     004597c0 f   LIBC:qsort.obj
 0001:00058a50       __alloca_probe             00459a50     LIBC:chkstk.obj
 0001:00058a50       __chkstk                   00459a50 f   LIBC:chkstk.obj
 0001:00058a90       _pow                       00459a90 f   LIBC:pow.obj
 0001:00058ad0       __CIpow                    00459ad0 f   LIBC:pow.obj
 0001:00058b0b       __CIpow_default            00459b0b f   LIBC:pow.obj
 0001:00058b24       __pow_default              00459b24     LIBC:pow.obj
 0001:00058d1c       __EH_prolog                00459d1c f   LIBC:ehprolog.obj
 0001:00058d3b       __vsnprintf                00459d3b f   LIBC:vsnprint.obj
 0001:00058d91       _atof                      00459d91 f   LIBC:atof.obj
 0001:00058ddc       _tolower                   00459ddc f   LIBC:tolower.obj
 0001:00058eb1       _isalpha                   00459eb1 f   LIBC:_ctype.obj
 0001:00058edf       _isdigit                   00459edf f   LIBC:_ctype.obj
 0001:00058f08       _isxdigit                  00459f08 f   LIBC:_ctype.obj
 0001:00058f36       _isspace                   00459f36 f   LIBC:_ctype.obj
 0001:00058f5f       _isalnum                   00459f5f f   LIBC:_ctype.obj
 0001:00058f90       _strncmp                   00459f90 f   LIBC:strncmp.obj
 0001:00058fc9       _toupper                   00459fc9 f   LIBC:toupper.obj
 0001:000590a0       _atol                      0045a0a0 f   LIBC:atox.obj
 0001:000590f8       _atoi                      0045a0f8 f   LIBC:atox.obj
 0001:00059100       _floor                     0045a100 f   LIBC:floor_pentium4.obj
 0001:00059140       __floor_pentium4           0045a140 f   LIBC:floor_pentium4.obj
 0001:00059224       _longjmp                   0045a224 f   LIBC:longjmp.obj
 0001:000592a0       __setjmp3                  0045a2a0 f   LIBC:setjmp3.obj
 0001:00059320       __aullshr                  0045a320 f   LIBC:ullshr.obj
 0001:00059340       _modf                      0045a340 f   LIBC:modf_pentium4.obj
 0001:00059380       __modf_pentium4            0045a380 f   LIBC:modf_pentium4.obj
 0001:00059490       __except_handler3          0045a490 f   LIBC:exsup3.obj
 0001:0005954d       __seh_longjmp_unwind@4     0045a54d f   LIBC:exsup3.obj
 0001:00059570       _sinh                      0045a570 f   LIBC:87ctrigh.obj
 0001:0005957a       _cosh                      0045a57a f   LIBC:87ctrigh.obj
 0001:00059581       _tanh                      0045a581 f   LIBC:87ctrigh.obj
 0001:00059588       __CIsinh                   0045a588 f   LIBC:87ctrigh.obj
 0001:00059592       __CIcosh                   0045a592 f   LIBC:87ctrigh.obj
 0001:00059599       __CItanh                   0045a599 f   LIBC:87ctrigh.obj
 0001:000595a0       _fmod                      0045a5a0 f   LIBC:87fmod.obj
 0001:000595aa       __CIfmod                   0045a5aa f   LIBC:87fmod.obj
 0001:000595e0       _exp                       0045a5e0 f   LIBC:87ctran.obj
 0001:0005961c       __CIexp                    0045a61c f   LIBC:87ctran.obj
 0001:00059657       __exp_default              0045a657 f   LIBC:87ctran.obj
 0001:00059661       __CIexp_default            0045a661 f   LIBC:87ctran.obj
 0001:0005966b       __stricmp                  0045a66b f   LIBC:stricmp.obj
 0001:000596ae       ___crtExitProcess          0045a6ae f   LIBC:crt0dat.obj
 0001:000596de       __cinit                    0045a6de f   LIBC:crt0dat.obj
 0001:00059805       _exit                      0045a805 f   LIBC:crt0dat.obj
 0001:00059816       __exit                     0045a816 f   LIBC:crt0dat.obj
 0001:00059827       __cexit                    0045a827 f   LIBC:crt0dat.obj
 0001:00059836       __c_exit                   0045a836 f   LIBC:crt0dat.obj
 0001:00059845       __heap_alloc               0045a845 f   LIBC:malloc.obj
 0001:0005988b       __nh_malloc                0045a88b f   LIBC:malloc.obj
 0001:000598b7       _malloc                    0045a8b7 f   LIBC:malloc.obj
 0001:000598c9       _fread                     0045a8c9 f   LIBC:fread.obj
 0001:000599b2       _fseek                     0045a9b2 f   LIBC:fseek.obj
 0001:00059a40       _fwrite                    0045aa40 f   LIBC:fwrite.obj
 0001:00059b47       _fclose                    0045ab47 f   LIBC:fclose.obj
 0001:00059c45       _tmpfile                   0045ac45 f   LIBC:tmpfile.obj
 0001:00059d1d       __forcdecpt                0045ad1d f   LIBC:cvt.obj
 0001:00059d75       __cropzeros                0045ad75 f   LIBC:cvt.obj
 0001:00059dc0       __positive                 0045adc0 f   LIBC:cvt.obj
 0001:00059dda       __fassign                  0045adda f   LIBC:cvt.obj
 0001:00059e35       __cftoe                    0045ae35 f   LIBC:cvt.obj
 0001:00059f28       __cftof                    0045af28 f   LIBC:cvt.obj
 0001:0005a005       __cftog                    0045b005 f   LIBC:cvt.obj
 0001:0005a0af       __cfltcvt                  0045b0af f   LIBC:cvt.obj
 0001:0005a100       __setdefaultprecision      0045b100 f   LIBC:fp8.obj
 0001:0005a112       __ms_p5_test_fdiv          0045b112 f   LIBC:testfdiv.obj
 0001:0005a152       __ms_p5_mp_test_fdiv       0045b152 f   LIBC:testfdiv.obj
 0001:0005a17b       __flsbuf                   0045b17b f   LIBC:_flsbuf.obj
 0001:0005a31f       __output                   0045b31f f   LIBC:output.obj
 0001:0005aab4       ___security_init_cookie    0045bab4 f   LIBC:seccinit.obj
 0001:0005ab0a       ___security_error_handler  0045bb0a f   LIBC:secfail.obj
 0001:0005ac54       __SEH_prolog               0045bc54 f   LIBC:sehprolg.obj
 0001:0005ac8f       __SEH_epilog               0045bc8f f   LIBC:sehprolg.obj
 0001:0005ad08       ___FrameUnwindToState      0045bd08 f   LIBC:frame.obj
 0001:0005adc5       ___DestructExceptionObject 0045bdc5 f   LIBC:frame.obj
 0001:0005b439       ___InternalCxxFrameHandler 0045c439 f   LIBC:frame.obj
 0001:0005b4db       ?terminate@@YAXXZ          0045c4db f   LIBC:hooks.obj
 0001:0005b508       ?_inconsistency@@YAXXZ     0045c508 f   LIBC:hooks.obj
 0001:0005b540       __CallSettingFrame@12      0045c540 f   LIBC:lowhelpr.obj
 0001:0005b567       __NLG_Return               0045c567     LIBC:lowhelpr.obj
 0001:0005b776       __setmbcp                  0045c776 f   LIBC:mbctype.obj
 0001:0005b962       ___initmbctable            0045c962 f   LIBC:mbctype.obj
 0001:0005b980       ___libm_error_support      0045c980 f   LIBC:libm_error.obj
 0001:0005bc47       ___sse2_available_init     0045cc47 f   LIBC:cpu_disp.obj
 0001:0005bc9e       __ceil_default             0045cc9e f   LIBC:ceil.obj
 0001:0005bd70       _strlen                    0045cd70 f   LIBC:strlen.obj
 0001:0005be00       _strstr                    0045ce00 f   LIBC:strstr.obj
 0001:0005be90       __trandisp1                0045ce90 f   LIBC:87disp.obj
 0001:0005bef7       __trandisp2                0045cef7 f   LIBC:87disp.obj
 0001:0005bf83       __rttospopde               0045cf83     LIBC:87disp.obj
 0001:0005bf88       __rttospop                 0045cf88     LIBC:87disp.obj
 0001:0005bf8a       __rtnospop                 0045cf8a     LIBC:87disp.obj
 0001:0005bf8c       __rttosnpop                0045cf8c     LIBC:87disp.obj
 0001:0005bf8d       __rtnospopde               0045cf8d     LIBC:87disp.obj
 0001:0005bf94       __rtzeropop                0045cf94     LIBC:87disp.obj
 0001:0005bf96       __rtzeronpop               0045cf96     LIBC:87disp.obj
 0001:0005bf9b       __rtonepop                 0045cf9b     LIBC:87disp.obj
 0001:0005bf9d       __rtonenpop                0045cf9d     LIBC:87disp.obj
 0001:0005bfa2       __tosnan1                  0045cfa2     LIBC:87disp.obj
 0001:0005bfcd       __nosnan2                  0045cfcd     LIBC:87disp.obj
 0001:0005bfcf       __tosnan2                  0045cfcf     LIBC:87disp.obj
 0001:0005bff7       __nan2                     0045cff7     LIBC:87disp.obj
 0001:0005c036       __rtindfpop                0045d036     LIBC:87disp.obj
 0001:0005c038       __rtindfnpop               0045d038     LIBC:87disp.obj
 0001:0005c049       __rttosnpopde              0045d049     LIBC:87disp.obj
 0001:0005c053       __rtchsifneg               0045d053     LIBC:87disp.obj
 0001:0005c060       __startTwoArgErrorHandling 0045d060 f   LIBC:genexcep.obj
 0001:0005c077       __startOneArgErrorHandling 0045d077 f   LIBC:genexcep.obj
 0001:0005c0c0       __twoToTOS                 0045d0c0 f   LIBC:common.obj
 0001:0005c0d5       __load_CW                  0045d0d5 f   LIBC:common.obj
 0001:0005c0ec       __convertTOStoQNaN         0045d0ec f   LIBC:common.obj
 0001:0005c105       __fload_withFB             0045d105 f   LIBC:common.obj
 0001:0005c148       __checkTOS_withFB          0045d148 f   LIBC:common.obj
 0001:0005c15e       __fast_exit                0045d15e f   LIBC:common.obj
 0001:0005c16b       __math_exit                0045d16b f   LIBC:common.obj
 0001:0005c195       __check_overflow_exit      0045d195 f   LIBC:common.obj
 0001:0005c1a9       __check_range_exit         0045d1a9 f   LIBC:common.obj
 0001:0005c250       _strrchr                   0045d250 f   LIBC:strrchr.obj
 0001:0005c27d       _realloc                   0045d27d f   LIBC:realloc.obj
 0001:0005c3df       __msize                    0045d3df f   LIBC:msize.obj
 0001:0005c417       __NMSG_WRITE               0045d417 f   LIBC:crt0msg.obj
 0001:0005c58e       __FF_MSGBANNER             0045d58e f   LIBC:crt0msg.obj
 0001:0005c5c7       __XcptFilter               0045d5c7 f   LIBC:winxfltr.obj
 0001:0005c738       __wincmdln                 0045d738 f   LIBC:wincmdln.obj
 0001:0005c7a1       __setenvp                  0045d7a1 f   LIBC:stdenvp.obj
 0001:0005c9d4       __setargv                  0045d9d4 f   LIBC:stdargv.obj
 0001:0005ca76       ___crtGetEnvironmentStringsA 0045da76 f   LIBC:a_env.obj
 0001:0005cb98       __ioinit                   0045db98 f   LIBC:ioinit.obj
 0001:0005cd43       __RTC_Initialize           0045dd43 f   LIBC:initsect.obj
 0001:0005cd87       __RTC_Terminate            0045dd87 f   LIBC:initsect.obj
 0001:0005cdcb       ___heap_select             0045ddcb f   LIBC:heapinit.obj
 0001:0005cde5       __heap_init                0045dde5 f   LIBC:heapinit.obj
 0001:0005ce36       __set_exp                  0045de36 f   LIBC:util.obj
 0001:0005ce60       __sptype                   0045de60 f   LIBC:util.obj
 0001:0005cebb       __decomp                   0045debb f   LIBC:util.obj
 0001:0005cf75       __raise_exc                0045df75 f   LIBC:fpexcept.obj
 0001:0005d21a       __handle_exc               0045e21a f   LIBC:fpexcept.obj
 0001:0005d43c       __set_errno                0045e43c f   LIBC:fpexcept.obj
 0001:0005d462       __errcode                  0045e462 f   LIBC:fpexcept.obj
 0001:0005d48f       __umatherr                 0045e48f f   LIBC:fpexcept.obj
 0001:0005d52f       __handle_qnan1             0045e52f f   LIBC:fpexcept.obj
 0001:0005d581       __except1                  0045e581 f   LIBC:fpexcept.obj
 0001:0005d63f       __statfp                   0045e63f f   LIBC:fpctrl.obj
 0001:0005d64c       __clrfp                    0045e64c f   LIBC:fpctrl.obj
 0001:0005d65a       __ctrlfp                   0045e65a f   LIBC:fpctrl.obj
 0001:0005d67e       __set_statfp               0045e67e f   LIBC:fpctrl.obj
 0001:0005d6d7       ___sbh_heap_init           0045e6d7 f   LIBC:sbheap.obj
 0001:0005d71f       ___sbh_find_block          0045e71f f   LIBC:sbheap.obj
 0001:0005d74a       ___sbh_free_block          0045e74a f   LIBC:sbheap.obj
 0001:0005da62       ___sbh_alloc_new_region    0045ea62 f   LIBC:sbheap.obj
 0001:0005db19       ___sbh_alloc_new_group     0045eb19 f   LIBC:sbheap.obj
 0001:0005dc1f       ___sbh_resize_block        0045ec1f f   LIBC:sbheap.obj
 0001:0005defe       ___sbh_alloc_block         0045eefe f   LIBC:sbheap.obj
 0001:0005e200       _strcpy                    0045f200 f   LIBC:strcat.obj
 0001:0005e210       _strcat                    0045f210 f   LIBC:strcat.obj
 0001:0005e65f       ___free_lc_time            0045f65f f   LIBC:inittime.obj
 0001:0005e7ef       ___init_time               0045f7ef f   LIBC:inittime.obj
 0001:0005e87b       ___free_lconv_num          0045f87b f   LIBC:initnum.obj
 0001:0005e8bb       ___init_numeric            0045f8bb f   LIBC:initnum.obj
 0001:0005ea01       ___free_lconv_mon          0045fa01 f   LIBC:initmon.obj
 0001:0005ea8a       ___init_monetary           0045fa8a f   LIBC:initmon.obj
 0001:0005ec89       ___init_ctype              0045fc89 f   LIBC:initctyp.obj
 0001:0005ee39       ___init_collate            0045fe39 f   LIBC:initcoll.obj
 0001:0005ee39       ___init_dummy              0045fe39 f   LIBC:setlocal.obj
 0001:0005ee39       __matherr                  0045fe39 f   LIBC:matherr.obj
 0001:0005ee40       _strcspn                   0045fe40 f   LIBC:strcspn.obj
 0001:0005ee90       _memset                    0045fe90 f   LIBC:memset.obj
 0001:0005eef0       _strcmp                    0045fef0 f   LIBC:strcmp.obj
 0001:0005ef80       _memcpy                    0045ff80 f   LIBC:memcpy.obj
 0001:0005fa1a       ___get_qualified_locale    00460a1a f   LIBC:getqloc.obj
 0001:0005fbd0       _memcmp                    00460bd0 f   LIBC:memcmp.obj
 0001:0005fc88       ___crtGetStringTypeA       00460c88 f   LIBC:a_str.obj
 0001:0005fe50       _strpbrk                   00460e50 f   LIBC:strpbrk.obj
 0001:0005fe90       __CIpow_pentium4           00460e90 f   LIBC:pow_pentium4.obj
 0001:0005fea9       __pow_pentium4             00460ea9     LIBC:pow_pentium4.obj
 0001:000609f1       __fFEXP                    004619f1     LIBC:87tran.obj
 0001:00060a58       __rtinfpopse               00461a58     LIBC:87tran.obj
 0001:00060a5a       __rtinfnpopse              00461a5a     LIBC:87tran.obj
 0001:00060a6a       __fFLN                     00461a6a     LIBC:87tran.obj
 0001:00060b1f       __rtinfpop                 00461b1f     LIBC:87tran.obj
 0001:00060b21       __rtinfnpop                00461b21     LIBC:87tran.obj
 0001:00060b3e       __ffexpm1                  00461b3e     LIBC:87tran.obj
 0001:00060be7       __d_inttype                00461be7 f   LIBC:powhlp.obj
 0001:00060c51       __powhlp                   00461c51 f   LIBC:powhlp.obj
 0001:00060db3       __fltin                    00461db3 f   LIBC:cfin.obj
 0001:00060e50       __isctype                  00461e50 f   LIBC:isctype.obj
 0001:00060ece       ___crtLCMapStringA         00461ece f   LIBC:a_map.obj
 0001:0006128a       __ismbcspace               0046228a f   LIBC:ismbspc.obj
 0001:00061320       __allmul                   00462320 f   LIBC:llmul.obj
 0001:00061354       __floor_default            00462354 f   LIBC:floor.obj
 0001:00061425       __rt_probe_read4@4         00462425 f   LIBC:sehsupp.obj
 0001:00061467       __modf_default             00462467 f   LIBC:modf.obj
 0001:00061590       __fFSINH                   00462590     LIBC:87trigh.obj
 0001:000615e2       __fFCOSH                   004625e2     LIBC:87trigh.obj
 0001:00061690       __cintrindisp2             00462690 f   LIBC:87cdisp.obj
 0001:000616ce       __cintrindisp1             004626ce f   LIBC:87cdisp.obj
 0001:00061704       __ctrandisp2               00462704 f   LIBC:87cdisp.obj
 0001:0006188a       __ctrandisp1               0046288a f   LIBC:87cdisp.obj
 0001:000618b6       __fload                    004628b6 f   LIBC:87cdisp.obj
 0001:00061900       _fdiv_main_routine         00462900 f   LIBC:adj_fdiv.obj
 0001:00061a17       __adj_fdiv_r               00462a17 f   LIBC:adj_fdiv.obj
 0001:00061eb6       __fdivp_sti_st             00462eb6 f   LIBC:adj_fdiv.obj
 0001:00061ec9       __fdivrp_sti_st            00462ec9 f   LIBC:adj_fdiv.obj
 0001:00061edc       __adj_fdiv_m32             00462edc f   LIBC:adj_fdiv.obj
 0001:00061f28       __adj_fdiv_m64             00462f28 f   LIBC:adj_fdiv.obj
 0001:00061f74       __adj_fdiv_m16i            00462f74 f   LIBC:adj_fdiv.obj
 0001:00061fa8       __adj_fdiv_m32i            00462fa8 f   LIBC:adj_fdiv.obj
 0001:00061fdc       __adj_fdivr_m32            00462fdc f   LIBC:adj_fdiv.obj
 0001:00062028       __adj_fdivr_m64            00463028 f   LIBC:adj_fdiv.obj
 0001:00062074       __adj_fdivr_m16i           00463074 f   LIBC:adj_fdiv.obj
 0001:000620a8       __adj_fdivr_m32i           004630a8 f   LIBC:adj_fdiv.obj
 0001:000620dc       __safe_fdiv                004630dc f   LIBC:adj_fdiv.obj
 0001:000620f1       __safe_fdivr               004630f1 f   LIBC:adj_fdiv.obj
 0001:00062106       __fprem_common             00463106 f   LIBC:adj_fdiv.obj
 0001:0006230c       __adj_fprem                0046330c f   LIBC:adj_fdiv.obj
 0001:000623be       __fprem1_common            004633be f   LIBC:adj_fdiv.obj
 0001:000625c4       __adj_fprem1               004635c4 f   LIBC:adj_fdiv.obj
 0001:00062679       __safe_fprem               00463679 f   LIBC:adj_fdiv.obj
 0001:0006267f       __safe_fprem1              0046367f f   LIBC:adj_fdiv.obj
 0001:00062685       __adj_fpatan               00463685 f   LIBC:adj_fdiv.obj
 0001:00062688       __adj_fptan                00463688 f   LIBC:adj_fdiv.obj
 0001:00062690       __CIexp_pentium4           00463690 f   LIBC:exp_pentium4.obj
 0001:000626a8       __exp_pentium4             004636a8     LIBC:exp_pentium4.obj
 0001:00062950       ___ascii_stricmp           00463950 f   LIBC:_stricmp.obj
 0001:0006299e       __callnewh                 0046399e f   LIBC:handler.obj
 0001:000629b9       __filbuf                   004639b9 f   LIBC:_filbuf.obj
 0001:00062a97       __read                     00463a97 f   LIBC:read.obj
 0001:00062c77       __lseek                    00463c77 f   LIBC:lseek.obj
 0001:00062d03       __flush                    00463d03 f   LIBC:fflush.obj
 0001:00062d60       _fflush                    00463d60 f   LIBC:fflush.obj
 0001:00062e08       __flushall                 00463e08 f   LIBC:fflush.obj
 0001:00062e11       _ftell                     00463e11 f   LIBC:ftell.obj
 0001:00062f6a       __write                    00463f6a f   LIBC:write.obj
 0001:0006311e       __close                    0046411e f   LIBC:close.obj
 0001:000631d1       __freebuf                  004641d1 f   LIBC:_freebuf.obj
 0001:0006323a       __itoa                     0046423a f   LIBC:xtoa.obj
 0001:00063264       __ultoa                    00464264 f   LIBC:xtoa.obj
 0001:0006327e       __getpid                   0046427e f   LIBC:getpid.obj
 0001:00063431       _strtoul                   00464431 f   LIBC:strtol.obj
 0001:00063448       __rmtmp                    00464448 f   LIBC:rmtmp.obj
 0001:00063484       __sopen                    00464484 f   LIBC:open.obj
 0001:00063754       __getstream                00464754 f   LIBC:stream.obj
 0001:000637c6       __ZeroTail                 004647c6 f   LIBC:intrncvt.obj
 0001:000637f8       __IncMan                   004647f8 f   LIBC:intrncvt.obj
 0001:00063845       __RoundMan                 00464845 f   LIBC:intrncvt.obj
 0001:000638b7       __CopyMan                  004648b7 f   LIBC:intrncvt.obj
 0001:000638d2       __IsZeroMan                004648d2 f   LIBC:intrncvt.obj
 0001:000638eb       __ShrMan                   004648eb f   LIBC:intrncvt.obj
 0001:00063966       __ld12cvt                  00464966 f   LIBC:intrncvt.obj
 0001:00063abe       __ld12tod                  00464abe f   LIBC:intrncvt.obj
 0001:00063ad4       __ld12tof                  00464ad4 f   LIBC:intrncvt.obj
 0001:00063aea       __atodbl                   00464aea f   LIBC:intrncvt.obj
 0001:00063b2d       __atoflt                   00464b2d f   LIBC:intrncvt.obj
 0001:00063b70       __fptostr                  00464b70 f   LIBC:_fptostr.obj
 0001:00063be7       ___dtold                   00464be7 f   LIBC:cfout.obj
 0001:00063ca1       __fltout                   00464ca1 f   LIBC:cfout.obj
 0001:00063d1b       __fptrap                   00464d1b f   LIBC:crt0fp.obj
 0001:00063d24       __getbuf                   00464d24 f   LIBC:_getbuf.obj
 0001:00063d68       __isatty                   00464d68 f   LIBC:isatty.obj
 0001:00063d8f       ___initstdio               00464d8f f   LIBC:_file.obj
 0001:00063e35       ___endstdio                00464e35 f   LIBC:_file.obj
 0001:00063e49       _wctomb                    00464e49 f   LIBC:wctomb.obj
 0001:00063eb0       __aulldvrm                 00464eb0 f   LIBC:ulldvrm.obj
 0001:00063f45       ___crtMessageBoxA          00464f45 f   LIBC:crtmbox.obj
 0001:0006403e       ?__CxxUnhandledExceptionFilter@@YGJPAU_EXCEPTION_POINTERS@@@Z 0046503e f   LIBC:unhandld.obj
 0001:00064084       ?__CxxSetUnhandledExceptionFilter@@YAHXZ 00465084 f   LIBC:unhandld.obj
 0001:00064097       ?__CxxRestoreUnhandledExceptionFilter@@YAXXZ 00465097 f   LIBC:unhandld.obj
 0001:000640a4       ?_ValidateRead@@YAHPBXI@Z  004650a4 f   LIBC:validate.obj
 0001:000640c0       ?_ValidateWrite@@YAHPAXI@Z 004650c0 f   LIBC:validate.obj
 0001:000640dc       ?_ValidateExecute@@YAHP6GHXZ@Z 004650dc f   LIBC:validate.obj
 0001:000640f4       _abort                     004650f4 f   LIBC:abort.obj
 0001:0006410c       __frnd                     0046510c f   LIBC:frnd.obj
 0001:00064130       _strchr                    00465130 f   LIBC:strchr.obj
 0001:00064136       ___from_strstr_to_strchr   00465136     LIBC:strchr.obj
 0001:000641ee       __87except                 004651ee f   LIBC:87except.obj
 0001:000642ec       __resetstkoflw             004652ec f   LIBC:resetstk.obj
 0001:000643ee       __ismbblead                004653ee f   LIBC:ismbbyte.obj
 0001:000643ff       ___getlocaleinfo           004653ff f   LIBC:inithelp.obj
 0001:00064551       _calloc                    00465551 f   LIBC:calloc.obj
 0001:000645cc       __strnicmp                 004655cc f   LIBC:strnicmp.obj
 0001:00064621       ___ansicp                  00465621 f   LIBC:convrtcp.obj
 0001:0006466a       ___convertcp               0046566a f   LIBC:convrtcp.obj
 0001:00064839       ___strgtold12              00465839 f   LIBC:strgtold.obj
 0001:00064cc6       __dosmaperr                00465cc6 f   LIBC:dosmap.obj
 0001:00064d25       __alloc_osfhnd             00465d25 f   LIBC:osfinfo.obj
 0001:00064dc2       __set_osfhnd               00465dc2 f   LIBC:osfinfo.obj
 0001:00064e39       __free_osfhnd              00465e39 f   LIBC:osfinfo.obj
 0001:00064eb3       __get_osfhandle            00465eb3 f   LIBC:osfinfo.obj
 0001:00064eef       __commit                   00465eef f   LIBC:commit.obj
 0001:00064f46       __lseeki64                 00465f46 f   LIBC:lseeki64.obj
 0001:00064fe5       __chsize                   00465fe5 f   LIBC:chsize.obj
 0001:00065141       ___addl                    00466141 f   LIBC:mantold.obj
 0001:00065162       ___add_12                  00466162 f   LIBC:mantold.obj
 0001:000651c0       ___shl_12                  004661c0 f   LIBC:mantold.obj
 0001:000651ee       ___shr_12                  004661ee f   LIBC:mantold.obj
 0001:0006521b       ___mtold12                 0046621b f   LIBC:mantold.obj
 0001:000652ff       _$I10_OUTPUT               004662ff f   LIBC:x10fout.obj
 0001:00065593       __fcloseall                00466593 f   LIBC:closeall.obj
 0001:00065624       _raise                     00466624 f   LIBC:winsig.obj
 0001:0006574d       ___crtGetLocaleInfoW       0046674d f   LIBC:w_loc.obj
 0001:0006587d       ___crtGetLocaleInfoA       0046687d f   LIBC:a_loc.obj
 0001:000659c0       ___ascii_strnicmp          004669c0 f   LIBC:_strnicm.obj
 0001:00065a21       ___ld12mul                 00466a21 f   LIBC:tenpow.obj
 0001:00065c59       ___multtenpow12            00466c59 f   LIBC:tenpow.obj
 0001:00065ce5       __setmode                  00466ce5 f   LIBC:setmode.obj
 0001:00066d60       _DirectInput8Create@20     00467d60 f   dinput8:DINPUT8.dll
 0001:00066d66       _Play                      00467d66 f   mp3:mp3.dll
 0001:00066d6c       _InitPlayer                00467d6c f   mp3:mp3.dll
 0001:00066d72       _RtlUnwind@16              00467d72 f   kernel32:KERNEL32.dll
 0002:00000000       __imp__RegCloseKey@4       00468000     advapi32:ADVAPI32.dll
 0002:00000004       __imp__RegQueryValueExA@24 00468004     advapi32:ADVAPI32.dll
 0002:00000008       __imp__RegOpenKeyA@12      00468008     advapi32:ADVAPI32.dll
 0002:0000000c       \177ADVAPI32_NULL_THUNK_DATA 0046800c     advapi32:ADVAPI32.dll
 0002:00000010       __imp__DirectInput8Create@20 00468010     dinput8:DINPUT8.dll
 0002:00000014       \177DINPUT8_NULL_THUNK_DATA 00468014     dinput8:DINPUT8.dll
 0002:00000018       __imp__CreateCompatibleDC@4 00468018     gdi32:GDI32.dll
 0002:0000001c       __imp__SetMapMode@8        0046801c     gdi32:GDI32.dll
 0002:00000020       __imp__SelectObject@8      00468020     gdi32:GDI32.dll
 0002:00000024       __imp__DeleteObject@4      00468024     gdi32:GDI32.dll
 0002:00000028       __imp__CreateDIBSection@24 00468028     gdi32:GDI32.dll
 0002:0000002c       __imp__SetTextColor@8      0046802c     gdi32:GDI32.dll
 0002:00000030       __imp__SetBkColor@8        00468030     gdi32:GDI32.dll
 0002:00000034       __imp__SetTextAlign@8      00468034     gdi32:GDI32.dll
 0002:00000038       __imp__DeleteDC@4          00468038     gdi32:GDI32.dll
 0002:0000003c       __imp__GetTextExtentPoint32A@16 0046803c     gdi32:GDI32.dll
 0002:00000040       __imp__ExtTextOutA@32      00468040     gdi32:GDI32.dll
 0002:00000044       __imp__CreateFontA@56      00468044     gdi32:GDI32.dll
 0002:00000048       __imp__GetDeviceCaps@8     00468048     gdi32:GDI32.dll
 0002:0000004c       \177GDI32_NULL_THUNK_DATA  0046804c     gdi32:GDI32.dll
 0002:00000050       __imp__GetLocaleInfoW@16   00468050     kernel32:KERNEL32.dll
 0002:00000054       __imp__SetEndOfFile@4      00468054     kernel32:KERNEL32.dll
 0002:00000058       __imp__FlushFileBuffers@4  00468058     kernel32:KERNEL32.dll
 0002:0000005c       __imp__SetStdHandle@8      0046805c     kernel32:KERNEL32.dll
 0002:00000060       __imp__VirtualQuery@12     00468060     kernel32:KERNEL32.dll
 0002:00000064       __imp__VirtualProtect@16   00468064     kernel32:KERNEL32.dll
 0002:00000068       __imp__IsBadCodePtr@4      00468068     kernel32:KERNEL32.dll
 0002:0000006c       __imp__IsBadReadPtr@8      0046806c     kernel32:KERNEL32.dll
 0002:00000070       __imp__SetUnhandledExceptionFilter@4 00468070     kernel32:KERNEL32.dll
 0002:00000074       __imp__SetFilePointer@16   00468074     kernel32:KERNEL32.dll
 0002:00000078       __imp__LCMapStringW@24     00468078     kernel32:KERNEL32.dll
 0002:0000007c       __imp__LCMapStringA@24     0046807c     kernel32:KERNEL32.dll
 0002:00000080       __imp__GetStringTypeW@16   00468080     kernel32:KERNEL32.dll
 0002:00000084       __imp__GetStringTypeA@20   00468084     kernel32:KERNEL32.dll
 0002:00000088       __imp__LockResource@4      00468088     kernel32:KERNEL32.dll
 0002:0000008c       __imp__IsValidLocale@8     0046808c     kernel32:KERNEL32.dll
 0002:00000090       __imp__EnumSystemLocalesA@8 00468090     kernel32:KERNEL32.dll
 0002:00000094       __imp__SetCurrentDirectoryA@4 00468094     kernel32:KERNEL32.dll
 0002:00000098       __imp__GetModuleHandleA@4  00468098     kernel32:KERNEL32.dll
 0002:0000009c       __imp__GetModuleFileNameA@12 0046809c     kernel32:KERNEL32.dll
 0002:000000a0       __imp__LoadLibraryA@4      004680a0     kernel32:KERNEL32.dll
 0002:000000a4       __imp__GetProcAddress@8    004680a4     kernel32:KERNEL32.dll
 0002:000000a8       __imp__FreeLibrary@4       004680a8     kernel32:KERNEL32.dll
 0002:000000ac       __imp__WideCharToMultiByte@32 004680ac     kernel32:KERNEL32.dll
 0002:000000b0       __imp__MultiByteToWideChar@24 004680b0     kernel32:KERNEL32.dll
 0002:000000b4       __imp__QueryPerformanceFrequency@4 004680b4     kernel32:KERNEL32.dll
 0002:000000b8       __imp__QueryPerformanceCounter@4 004680b8     kernel32:KERNEL32.dll
 0002:000000bc       __imp__GetFullPathNameA@16 004680bc     kernel32:KERNEL32.dll
 0002:000000c0       __imp__CreateFileA@28      004680c0     kernel32:KERNEL32.dll
 0002:000000c4       __imp__CloseHandle@4       004680c4     kernel32:KERNEL32.dll
 0002:000000c8       __imp__GetCurrentDirectoryA@8 004680c8     kernel32:KERNEL32.dll
 0002:000000cc       __imp__FindResourceA@12    004680cc     kernel32:KERNEL32.dll
 0002:000000d0       __imp__LoadResource@8      004680d0     kernel32:KERNEL32.dll
 0002:000000d4       __imp__SizeofResource@8    004680d4     kernel32:KERNEL32.dll
 0002:000000d8       __imp__GetLocaleInfoA@16   004680d8     kernel32:KERNEL32.dll
 0002:000000dc       __imp__GetUserDefaultLCID@0 004680dc     kernel32:KERNEL32.dll
 0002:000000e0       __imp__IsBadWritePtr@8     004680e0     kernel32:KERNEL32.dll
 0002:000000e4       __imp__RaiseException@16   004680e4     kernel32:KERNEL32.dll
 0002:000000e8       __imp__HeapCreate@12       004680e8     kernel32:KERNEL32.dll
 0002:000000ec       __imp__HeapDestroy@4       004680ec     kernel32:KERNEL32.dll
 0002:000000f0       __imp__GetFileType@4       004680f0     kernel32:KERNEL32.dll
 0002:000000f4       __imp__SetHandleCount@4    004680f4     kernel32:KERNEL32.dll
 0002:000000f8       __imp__GetEnvironmentStringsW@0 004680f8     kernel32:KERNEL32.dll
 0002:000000fc       __imp__FreeEnvironmentStringsW@4 004680fc     kernel32:KERNEL32.dll
 0002:00000100       __imp__GetEnvironmentStrings@0 00468100     kernel32:KERNEL32.dll
 0002:00000104       __imp__FreeEnvironmentStringsA@4 00468104     kernel32:KERNEL32.dll
 0002:00000108       __imp__UnhandledExceptionFilter@4 00468108     kernel32:KERNEL32.dll
 0002:0000010c       __imp__GetStdHandle@4      0046810c     kernel32:KERNEL32.dll
 0002:00000110       __imp__HeapSize@12         00468110     kernel32:KERNEL32.dll
 0002:00000114       __imp__HeapReAlloc@16      00468114     kernel32:KERNEL32.dll
 0002:00000118       __imp__GetCPInfo@8         00468118     kernel32:KERNEL32.dll
 0002:0000011c       __imp__GetOEMCP@0          0046811c     kernel32:KERNEL32.dll
 0002:00000120       __imp__MulDiv@12           00468120     kernel32:KERNEL32.dll
 0002:00000124       __imp__GetACP@0            00468124     kernel32:KERNEL32.dll
 0002:00000128       __imp__GetSystemTimeAsFileTime@4 00468128     kernel32:KERNEL32.dll
 0002:0000012c       __imp__IsValidCodePage@4   0046812c     kernel32:KERNEL32.dll
 0002:00000130       __imp__GetCurrentProcessId@0 00468130     kernel32:KERNEL32.dll
 0002:00000134       __imp__GetCurrentThreadId@0 00468134     kernel32:KERNEL32.dll
 0002:00000138       __imp__GetTickCount@0      00468138     kernel32:KERNEL32.dll
 0002:0000013c       __imp__GetLastError@0      0046813c     kernel32:KERNEL32.dll
 0002:00000140       __imp__WriteFile@20        00468140     kernel32:KERNEL32.dll
 0002:00000144       __imp__ReadFile@20         00468144     kernel32:KERNEL32.dll
 0002:00000148       __imp__GetSystemInfo@4     00468148     kernel32:KERNEL32.dll
 0002:0000014c       __imp__IsProcessorFeaturePresent@4 0046814c     kernel32:KERNEL32.dll
 0002:00000150       __imp__lstrcmpiA@8         00468150     kernel32:KERNEL32.dll
 0002:00000154       __imp__MapViewOfFile@20    00468154     kernel32:KERNEL32.dll
 0002:00000158       __imp__GetFileSize@8       00468158     kernel32:KERNEL32.dll
 0002:0000015c       __imp__CreateFileMappingA@24 0046815c     kernel32:KERNEL32.dll
 0002:00000160       __imp__CreateFileW@28      00468160     kernel32:KERNEL32.dll
 0002:00000164       __imp__GetVersionExA@4     00468164     kernel32:KERNEL32.dll
 0002:00000168       __imp__UnmapViewOfFile@4   00468168     kernel32:KERNEL32.dll
 0002:0000016c       __imp__FindResourceW@12    0046816c     kernel32:KERNEL32.dll
 0002:00000170       __imp__VirtualFree@12      00468170     kernel32:KERNEL32.dll
 0002:00000174       __imp__VirtualAlloc@16     00468174     kernel32:KERNEL32.dll
 0002:00000178       __imp__HeapAlloc@12        00468178     kernel32:KERNEL32.dll
 0002:0000017c       __imp__GetProcessHeap@0    0046817c     kernel32:KERNEL32.dll
 0002:00000180       __imp__HeapFree@12         00468180     kernel32:KERNEL32.dll
 0002:00000184       __imp__ExitProcess@4       00468184     kernel32:KERNEL32.dll
 0002:00000188       __imp__RtlUnwind@16        00468188     kernel32:KERNEL32.dll
 0002:0000018c       __imp__GetStartupInfoA@4   0046818c     kernel32:KERNEL32.dll
 0002:00000190       __imp__GetCommandLineA@0   00468190     kernel32:KERNEL32.dll
 0002:00000194       __imp__TerminateProcess@8  00468194     kernel32:KERNEL32.dll
 0002:00000198       __imp__GetCurrentProcess@0 00468198     kernel32:KERNEL32.dll
 0002:0000019c       \177KERNEL32_NULL_THUNK_DATA 0046819c     kernel32:KERNEL32.dll
 0002:000001a0       __imp__LoadCursorA@8       004681a0     user32:USER32.dll
 0002:000001a4       __imp__SetCursor@4         004681a4     user32:USER32.dll
 0002:000001a8       __imp__UnregisterClassA@8  004681a8     user32:USER32.dll
 0002:000001ac       __imp__DispatchMessageA@4  004681ac     user32:USER32.dll
 0002:000001b0       __imp__TranslateMessage@4  004681b0     user32:USER32.dll
 0002:000001b4       __imp__GetMessageA@16      004681b4     user32:USER32.dll
 0002:000001b8       __imp__PeekMessageA@20     004681b8     user32:USER32.dll
 0002:000001bc       __imp__UpdateWindow@4      004681bc     user32:USER32.dll
 0002:000001c0       __imp__ShowWindow@8        004681c0     user32:USER32.dll
 0002:000001c4       __imp__SetForegroundWindow@4 004681c4     user32:USER32.dll
 0002:000001c8       __imp__SetFocus@4          004681c8     user32:USER32.dll
 0002:000001cc       __imp__CreateWindowExA@48  004681cc     user32:USER32.dll
 0002:000001d0       __imp__GetSystemMetrics@4  004681d0     user32:USER32.dll
 0002:000001d4       __imp__MessageBoxA@16      004681d4     user32:USER32.dll
 0002:000001d8       __imp__PostQuitMessage@4   004681d8     user32:USER32.dll
 0002:000001dc       __imp__FindWindowA@8       004681dc     user32:USER32.dll
 0002:000001e0       __imp__LoadIconA@8         004681e0     user32:USER32.dll
 0002:000001e4       __imp__RegisterClassExA@4  004681e4     user32:USER32.dll
 0002:000001e8       __imp__DefWindowProcA@16   004681e8     user32:USER32.dll
 0002:000001ec       \177USER32_NULL_THUNK_DATA 004681ec     user32:USER32.dll
 0002:000001f0       __imp__timeGetTime@0       004681f0     winmm:WINMM.dll
 0002:000001f4       \177WINMM_NULL_THUNK_DATA  004681f4     winmm:WINMM.dll
 0002:000001f8       __imp__Direct3DCreate9@4   004681f8     d3d9:d3d9.dll
 0002:000001fc       \177d3d9_NULL_THUNK_DATA   004681fc     d3d9:d3d9.dll
 0002:00000200       __imp__Play                00468200     mp3:mp3.dll
 0002:00000204       __imp__InitPlayer          00468204     mp3:mp3.dll
 0002:00000208       \177mp3_NULL_THUNK_DATA    00468208     mp3:mp3.dll
 0002:0000020c       __imp__CoCreateInstance@20 0046820c     ole32:ole32.dll
 0002:00000210       __imp__CoUninitialize@0    00468210     ole32:ole32.dll
 0002:00000214       __imp__CoInitialize@4      00468214     ole32:ole32.dll
 0002:00000218       \177ole32_NULL_THUNK_DATA  00468218     ole32:ole32.dll
 0002:0000023c       __real@4f800000            0046823c     d3d.obj
 0002:00000240       ??_C@_04HDOCAJNK@?$CFs?$CFs?$AA@ 00468240     d3d.obj
 0002:00000248       __real@3f800000            00468248     d3d.obj
 0002:0000024c       __real@3e99999a            0046824c     d3dfont.obj
 0002:00000250       __real@3f666666            00468250     d3dfont.obj
 0002:00000254       __real@3f000000            00468254     d3dfont.obj
 0002:00000258       __real@41200000            00468258     d3dfont.obj
 0002:0000025c       __real@bf000000            0046825c     d3dfont.obj
 0002:00000260       __real@3dcccccd            00468260     d3dfont.obj
 0002:00000264       __real@bf800000            00468264     d3dutil.obj
 0002:00000268       __real@40a00000            00468268     d3dutil.obj
 0002:0000026c       __real@c0000000            0046826c     d3dutil.obj
 0002:00000270       ??_7CMusicSegment@@6B@     00468270     dmutil.obj
 0002:00000278       ??_C@_04HFHJMNCD@WAVE?$AA@ 00468278     dsutil.obj
 0002:0000027d       ??_C@_00CNPNBAHC@?$AA@     0046827d     dxutil.obj
 0002:00000280       __real@3fb99999a0000000    00468280     dxutil.obj
 0002:00000288       __real@3f50624dd2f1a9fc    00468288     dxutil.obj
 0002:00000290       __real@41f0000000000000    00468290     dxutil.obj
 0002:00000298       __real@0000000000000000    00468298     dxutil.obj
 0002:000002a0       ??_C@_01KICIPPFI@?2?$AA@   004682a0     dxutil.obj
 0002:000002a4       ??_C@_0N@NDKFHDL@PARTICLE?4VSH?$AA@ 004682a4     particles.obj
 0002:000002b4       ??_C@_09FPLPDICB@lens6?4jpg?$AA@ 004682b4     particles.obj
 0002:000002c0       ??_C@_09NJCLEKIP@lens5?4jpg?$AA@ 004682c0     particles.obj
 0002:000002cc       ??_C@_09BCHHJJCK@lens4?4jpg?$AA@ 004682cc     particles.obj
 0002:000002d8       ??_C@_09PHCKJJC@lens3?4jpg?$AA@ 004682d8     particles.obj
 0002:000002e4       ??_C@_09MECOHKDH@lens2?4jpg?$AA@ 004682e4     particles.obj
 0002:000002f0       ??_C@_09ECLKAIJJ@lens1?4jpg?$AA@ 004682f0     particles.obj
 0002:000002fc       __real@41a00000            004682fc     particles.obj
 0002:00000300       __real@3c23d70a            00468300     particles.obj
 0002:00000304       __real@38000100            00468304     render.obj
 0002:00000308       __real@3e000000            00468308     render.obj
 0002:0000030c       __real@3e800000            0046830c     render.obj
 0002:00000310       __real@447a0000            00468310     render.obj
 0002:00000314       __real@3d7a01f4            00468314     render.obj
 0002:00000318       __real@3aa00140            00468318     render.obj
 0002:0000031c       __real@4415999a            0046831c     render.obj
 0002:00000320       __real@4495999a            00468320     render.obj
 0002:00000324       __real@4048f5c3            00468324     render.obj
 0002:00000328       __real@3948f755            00468328     render.obj
 0002:0000032c       ??_C@_06JIHMHDBJ@PLUTON?$AA@ 0046832c     render.obj
 0002:00000334       ??_C@_06FBMDGMJE@NEPTUN?$AA@ 00468334     render.obj
 0002:0000033c       ??_C@_04LHIIAKAM@URAN?$AA@ 0046833c     render.obj
 0002:00000344       ??_C@_06IECIAEKM@SATURN?$AA@ 00468344     render.obj
 0002:0000034c       ??_C@_07LALDOCGE@JUPITER?$AA@ 0046834c     render.obj
 0002:00000354       ??_C@_04EELIFPAL@MARS?$AA@ 00468354     render.obj
 0002:0000035c       ??_C@_04EPPFHEAH@MOON?$AA@ 0046835c     render.obj
 0002:00000364       ??_C@_05EGCKDADC@EARTH?$AA@ 00468364     render.obj
 0002:0000036c       ??_C@_05IENDKPEN@VENUS?$AA@ 0046836c     render.obj
 0002:00000374       ??_C@_06DBFCBHBC@MERCUR?$AA@ 00468374     render.obj
 0002:0000037c       __real@43fa0000            0046837c     render.obj
 0002:00000380       __real@40800000            00468380     render.obj
 0002:00000384       __real@42480000            00468384     render.obj
 0002:00000388       __real@3fe66666            00468388     render.obj
 0002:0000038c       __real@c0a00000            0046838c     render.obj
 0002:00000390       __real@3b449ba6            00468390     render.obj
 0002:00000394       ??_C@_07GOCJNKOL@TEXTURE?$AA@ 00468394     render.obj
 0002:0000039c       ??_C@_0P@JPBDCIFF@music?1menu?4mp3?$AA@ 0046839c     render.obj
 0002:000003ac       ??_C@_0BK@PKOBBDGL@Init?5MP3?5Player?5?$CImp3?4dll?$CJ?$AA@ 004683ac     render.obj
 0002:000003c8       ??_C@_0BE@PBHEHDNC@Create?5GUI?5?$CIcursor?$CJ?$AA@ 004683c8     render.obj
 0002:000003dc       ??_C@_0L@ILIBGECJ@GUI_CURSOR?$AA@ 004683dc     render.obj
 0002:000003e8       ??_C@_0BC@MKLNDILK@Load?5texture?5ship?$AA@ 004683e8     render.obj
 0002:000003fc       ??_C@_0BK@CEMOHADP@Load?5ENEMY?5?$CIresource?4dll?$CJ?$AA@ 004683fc     render.obj
 0002:00000418       ??_C@_0BF@HINHGNDA@Load?5texture?5planets?$AA@ 00468418     render.obj
 0002:00000430       ??_C@_0BJ@NGBBPAEC@Load?5SHIP?5?$CIresource?4dll?$CJ?$AA@ 00468430     render.obj
 0002:0000044c       ??_C@_04NNDOCGDA@SHIP?$AA@ 0046844c     render.obj
 0002:00000454       ??_C@_0BL@JOPLFKKP@Load?5SHPERE?5?$CIresource?4dll?$CJ?$AA@ 00468454     render.obj
 0002:00000470       ??_C@_06MIEOPCCB@XFILES?$AA@ 00468470     render.obj
 0002:00000478       ??_C@_0BF@EJAEAGGM@Load?5Sound?5FX?5?$CIrxp3?$CJ?$AA@ 00468478     render.obj
 0002:00000490       ??_C@_08FGEEPLIO@SFX_EXP3?$AA@ 00468490     render.obj
 0002:0000049c       ??_C@_0BF@FHNHDEEP@Load?5Sound?5FX?5?$CIexp3?$CJ?$AA@ 0046849c     render.obj
 0002:000004b4       ??_C@_08EPFPMKMP@SFX_EXP2?$AA@ 004684b4     render.obj
 0002:000004c0       ??_C@_0BF@FGBFFOHI@Load?5Sound?5FX?5?$CIexp2?$CJ?$AA@ 004684c0     render.obj
 0002:000004d8       ??_C@_08GEHCJJAM@SFX_EXP1?$AA@ 004684d8     render.obj
 0002:000004e4       ??_C@_0BF@FFJBIKBG@Load?5Sound?5FX?5?$CIexp0?$CJ?$AA@ 004684e4     render.obj
 0002:000004fc       ??_C@_08HNGJKIEN@SFX_EXP0?$AA@ 004684fc     render.obj
 0002:00000508       ??_C@_0BG@NKBMOJKB@Load?5Sound?5FX?5?$CIlaser?$CJ?$AA@ 00468508     render.obj
 0002:00000520       ??_C@_09IKONMKDN@SFX_LASER?$AA@ 00468520     render.obj
 0002:0000052c       ??_C@_0BG@LOMCEBDK@Load?5Sound?5FX?5?$CIsonic?$CJ?$AA@ 0046852c     render.obj
 0002:00000544       ??_C@_09DPONJBCE@SFX_SONIC?$AA@ 00468544     render.obj
 0002:00000550       ??_C@_0BM@BPKNNKAJ@Load?5Library?5?$CIresource?4dll?$CJ?$AA@ 00468550     render.obj
 0002:0000056c       ??_C@_0N@CJOIDPJN@resource?4dll?$AA@ 0046856c     render.obj
 0002:0000057c       ??_C@_0N@JEDOGNIP@Create?5fonts?$AA@ 0046857c     render.obj
 0002:0000058c       ??_C@_05MPFIAJAP@Arial?$AA@ 0046858c     render.obj
 0002:00000594       ??_C@_0BI@CJAJPDLN@Initialize?5Direct?5Music?$AA@ 00468594     render.obj
 0002:000005ac       ??_C@_0BI@KHKCGGFE@Initialize?5Direct?5Input?$AA@ 004685ac     render.obj
 0002:000005c4       ??_C@_0BE@LNBKECAK@Initialize?5Direct3D?$AA@ 004685c4     render.obj
 0002:000005d8       ??_C@_09IDFONJPK@?$CF?400f?5fps?$AA@ 004685d8     render.obj
 0002:000005e4       ??_C@_05NAOIJFC@Error?$AA@ 004685e4     win32.obj
 0002:000005ec       ??_C@_08IFAEMMEI@CLASS?53D?$AA@ 004685ec     win32.obj
 0002:000005f8       ??_C@_02LCIGPHCF@3D?$AA@   004685f8     win32.obj
 0002:000005fc       _GUID_NULL                 004685fc     uuid:cguid_i.obj
 0002:00002630       __real@34000000            0046a630     d3dx9:d3dxmath.obj
 0002:00002634       __real@b4000000            0046a634     d3dx9:d3dxmath.obj
 0002:00002638       __real@40400000            0046a638     d3dx9:d3dxmath.obj
 0002:0000263c       __real@40000000            0046a63c     d3dx9:d3dxmath.obj
 0002:00002640       __real@00800000            0046a640     d3dx9:d3dxmath.obj
 0002:00002644       __real@20000000            0046a644     d3dx9:d3dxmath.obj
 0002:00002648       __real@3f372474            0046a648     d3dx9:d3dxmath.obj
 0002:0000264c       __real@3d93a92a            0046a64c     d3dx9:d3dxmath.obj
 0002:00002650       __real@3e59999a            0046a650     d3dx9:d3dxmath.obj
 0002:00002654       __real@be800000            0046a654     d3dx9:d3dxmath.obj
 0002:00002820       ??_C@_07JDJMCMIP@vs_3_sw?$AA@ 0046a820     d3dx9:d3dx9shader.obj
 0002:00002828       ??_C@_06IAOGOKNE@vs_3_0?$AA@ 0046a828     d3dx9:d3dx9shader.obj
 0002:00002830       ??_C@_06PKEILM@vs_2_x?$AA@ 0046a830     d3dx9:d3dx9shader.obj
 0002:00002838       ??_C@_07KOPMAFDP@vs_2_sw?$AA@ 0046a838     d3dx9:d3dx9shader.obj
 0002:00002840       ??_C@_06DIFKINLB@vs_2_0?$AA@ 0046a840     d3dx9:d3dx9shader.obj
 0002:00002848       ??_C@_06DDPEBDBO@vs_1_1?$AA@ 0046a848     d3dx9:d3dx9shader.obj
 0002:00002850       ??_C@_06CKOPCCFP@vs_1_0?$AA@ 0046a850     d3dx9:d3dx9shader.obj
 0002:00002858       ??_C@_07IAGBDFBC@vs?43?4sw?$AA@ 0046a858     d3dx9:d3dx9shader.obj
 0002:00002860       ??_C@_06BBGHCBMM@vs?43?40?$AA@ 0046a860     d3dx9:d3dx9shader.obj
 0002:00002868       ??_C@_06JBHLIDKE@vs?42?4x?$AA@ 0046a868     d3dx9:d3dx9shader.obj
 0002:00002870       ??_C@_07LNABBMKC@vs?42?4sw?$AA@ 0046a870     d3dx9:d3dx9shader.obj
 0002:00002878       ??_C@_06KJNLEGKJ@vs?42?40?$AA@ 0046a878     d3dx9:d3dx9shader.obj
 0002:00002880       ??_C@_06KCHFNIAG@vs?41?41?$AA@ 0046a880     d3dx9:d3dx9shader.obj
 0002:00002888       ??_C@_06LLGOOJEH@vs?41?40?$AA@ 0046a888     d3dx9:d3dx9shader.obj
 0002:00002890       ??_C@_02FENABIDK@vs?$AA@   0046a890     d3dx9:d3dx9shader.obj
 0002:00002894       ??_C@_06NHLHMDLF@tx_1_0?$AA@ 0046a894     d3dx9:d3dx9shader.obj
 0002:0000289c       ??_C@_02LEKABFJP@tx?$AA@   0046a89c     d3dx9:d3dx9shader.obj
 0002:000028a0       ??_C@_07FFPDCFAI@ps_3_sw?$AA@ 0046a8a0     d3dx9:d3dx9shader.obj
 0002:000028a8       ??_C@_06ODDGNPOO@ps_3_0?$AA@ 0046a8a8     d3dx9:d3dx9shader.obj
 0002:000028b0       ??_C@_06GDCKHNIG@ps_2_x?$AA@ 0046a8b0     d3dx9:d3dx9shader.obj
 0002:000028b8       ??_C@_07GIJDAMLI@ps_2_sw?$AA@ 0046a8b8     d3dx9:d3dx9shader.obj
 0002:000028c0       ??_C@_06FLIKLIIL@ps_2_0?$AA@ 0046a8c0     d3dx9:d3dx9shader.obj
 0002:000028c8       ??_C@_06CNFDNCGB@ps_1_4?$AA@ 0046a8c8     d3dx9:d3dx9shader.obj
 0002:000028d0       ??_C@_06GCBCEEKG@ps_1_3?$AA@ 0046a8d0     d3dx9:d3dx9shader.obj
 0002:000028d8       ??_C@_06HLAJHFOH@ps_1_2?$AA@ 0046a8d8     d3dx9:d3dx9shader.obj
 0002:000028e0       ??_C@_06FACECGCE@ps_1_1?$AA@ 0046a8e0     d3dx9:d3dx9shader.obj
 0002:000028e8       ??_C@_06EJDPBHGF@ps_1_0?$AA@ 0046a8e8     d3dx9:d3dx9shader.obj
 0002:000028f0       ??_C@_07EGAODMJF@ps?43?4sw?$AA@ 0046a8f0     d3dx9:d3dx9shader.obj
 0002:000028f8       ??_C@_06HCLHBEPG@ps?43?40?$AA@ 0046a8f8     d3dx9:d3dx9shader.obj
 0002:00002900       ??_C@_06PCKLLGJO@ps?42?4x?$AA@ 0046a900     d3dx9:d3dx9shader.obj
 0002:00002908       ??_C@_07HLGOBFCF@ps?42?4sw?$AA@ 0046a908     d3dx9:d3dx9shader.obj
 0002:00002910       ??_C@_06MKALHDJD@ps?42?40?$AA@ 0046a910     d3dx9:d3dx9shader.obj
 0002:00002918       ??_C@_06LMNCBJHJ@ps?41?44?$AA@ 0046a918     d3dx9:d3dx9shader.obj
 0002:00002920       ??_C@_06PDJDIPLO@ps?41?43?$AA@ 0046a920     d3dx9:d3dx9shader.obj
 0002:00002928       ??_C@_06OKIILOPP@ps?41?42?$AA@ 0046a928     d3dx9:d3dx9shader.obj
 0002:00002930       ??_C@_06MBKFONDM@ps?41?41?$AA@ 0046a930     d3dx9:d3dx9shader.obj
 0002:00002938       ??_C@_06NILONMHN@ps?41?40?$AA@ 0046a938     d3dx9:d3dx9shader.obj
 0002:00002940       ??_C@_02FAFNGEII@ps?$AA@   0046a940     d3dx9:d3dx9shader.obj
 0002:00003290       ??_C@_0O@KCFLGIDJ@Texture0?$EAName?$AA@ 0046b290     d3dx9:loadx.obj
 0002:000032a0       ??_C@_07EBHHCJEE@Ambient?$AA@ 0046b2a0     d3dx9:loadx.obj
 0002:000032a8       ??_C@_08OFCPMHLM@Emissive?$AA@ 0046b2a8     d3dx9:loadx.obj
 0002:000032b4       ??_C@_08LNEJIEKD@Specular?$AA@ 0046b2b4     d3dx9:loadx.obj
 0002:000032c0       ??_C@_05PMCMDMKN@Power?$AA@ 0046b2c0     d3dx9:loadx.obj
 0002:000032c8       ??_C@_07PDCHJCFI@Diffuse?$AA@ 0046b2c8     d3dx9:loadx.obj
 0002:000032d0       __real@3b808081            0046b2d0     d3dx9:loadx.obj
 0002:000032d4       __real@437f0000            0046b2d4     d3dx9:loadx.obj
 0002:000032d8       ??_C@_01GFHCPBMG@C?$AA@    0046b2d8     d3dx9:loadx.obj
 0002:000032dc       ??_C@_0BC@DJALGNGF@DirectXFileCreate?$AA@ 0046b2dc     d3dx9:loadx.obj
 0002:000032f0       ??_C@_0L@GIOIPPIK@d3dxof?4dll?$AA@ 0046b2f0     d3dx9:loadx.obj
 0002:00003300       ?nibbleCount@CD3DXBitField256@@0QBKB 0046b300     d3dx9:createmesh.obj
 0002:000033a0       __real@3ff0000000000000    0046b3a0     d3dx9:createmesh.obj
 0002:000033a8       ??_7?$GXTri3Mesh@G$00$0PPPP@@@6B@ 0046b3a8     d3dx9:createmesh.obj
 0002:00003420       ??_7?$GXTri3Mesh@I$0A@$0?0@@6B@ 0046b420     d3dx9:createmesh.obj
 0002:00003498       __real@7f7fffff            0046b498     d3dx9:createmesh.obj
 0002:0000349c       _DXFILEOBJ_EffectInstance  0046b49c     d3dx9:init.obj
 0002:000034ac       _DXFILEOBJ_EffectParamDWord 0046b4ac     d3dx9:init.obj
 0002:000034bc       _DXFILEOBJ_EffectParamString 0046b4bc     d3dx9:init.obj
 0002:000034cc       _DXFILEOBJ_EffectParamFloats 0046b4cc     d3dx9:init.obj
 0002:000034dc       _DXFILEOBJ_EffectDWord     0046b4dc     d3dx9:init.obj
 0002:000034ec       _DXFILEOBJ_EffectString    0046b4ec     d3dx9:init.obj
 0002:000034fc       _DXFILEOBJ_EffectFloats    0046b4fc     d3dx9:init.obj
 0002:0000350c       _DXFILEOBJ_DeclData        0046b50c     d3dx9:init.obj
 0002:0000351c       _DXFILEOBJ_VertexElement   0046b51c     d3dx9:init.obj
 0002:0000352c       _DXFILEOBJ_FVFData         0046b52c     d3dx9:init.obj
 0002:0000353c       _DXFILEOBJ_PMVSplitRecord  0046b53c     d3dx9:init.obj
 0002:0000354c       _DXFILEOBJ_PMAttributeRange 0046b54c     d3dx9:init.obj
 0002:0000355c       _DXFILEOBJ_PMInfo          0046b55c     d3dx9:init.obj
 0002:0000356c       _DXFILEOBJ_SkinWeights     0046b56c     d3dx9:init.obj
 0002:0000357c       _DXFILEOBJ_FaceAdjacency   0046b57c     d3dx9:init.obj
 0002:0000358c       _DXFILEOBJ_VertexDuplicationIndices 0046b58c     d3dx9:init.obj
 0002:0000359c       _DXFILEOBJ_XSkinMeshHeader 0046b59c     d3dx9:init.obj
 0002:000035ac       _IID_ID3DXMesh             0046b5ac     d3dx9:init.obj
 0002:000035bc       _IID_ID3DXBaseMesh         0046b5bc     d3dx9:init.obj
 0002:000035cc       _IID_IDirectXFileDataReference 0046b5cc     d3dx9:init.obj
 0002:000035dc       _IID_IDirectXFileData      0046b5dc     d3dx9:init.obj
 0002:000035ec       _IID_ID3DXSprite           0046b5ec     d3dx9:init.obj
 0002:000035fc       _IID_ID3DXBuffer           0046b5fc     d3dx9:init.obj
 0002:0000360c       _IID_IDirect3DVolumeTexture9 0046b60c     d3dx9:init.obj
 0002:0000361c       _IID_IDirect3DTexture9     0046b61c     d3dx9:init.obj
 0002:0000362c       __real@477fff00            0046b62c     d3dx9:d3dx9core.obj
 0002:00003630       __real@40c90fdb            0046b630     d3dx9:shapes.obj
 0002:00003634       __real@40490fdb            0046b634     d3dx9:shapes.obj
 0002:00003638       __real@3727c5ac            0046b638     d3dx9:shapes.obj
 0002:0000363c       __real@40c00000            0046b63c     d3dx9:psgpmesh.obj
 0002:00003640       __real@3e2aaa7e            0046b640     d3dx9:psgpmesh.obj
 0002:00003644       __real@3eaaaaab            0046b644     d3dx9:psgpmesh.obj
 0002:00003648       ??_C@_0BM@IHHDGEAJ@Software?2Microsoft?2Direct3D?$AA@ 0046b648     d3dx9:cpudetect.obj
 0002:00003664       ??_C@_0L@FLOHHHAO@DisableMMX?$AA@ 0046b664     d3dx9:cpudetect.obj
 0002:00003670       ??_C@_0N@BDDFKIGD@GenuineIntel?$AA@ 0046b670     d3dx9:cpudetect.obj
 0002:00003680       ??_C@_0BA@MHCFIELB@DisableD3DXPSGP?$AA@ 0046b680     d3dx9:cpudetect.obj
 0002:00003690       ??_C@_0M@GCJEAAPG@DisablePSGP?$AA@ 0046b690     d3dx9:cpudetect.obj
 0002:0000369c       ??_C@_0CB@KOAGPCN@failed?5to?5open?5source?5file?3?5?8?$CFs?8@ 0046b69c     d3dx9:cpreprocessor.obj
 0002:000036c0       ??_C@_0BI@LOODAFEE@failed?5to?5open?5resource?$AA@ 0046b6c0     d3dx9:cpreprocessor.obj
 0002:000036d8       ??_C@_07MJAJDDLG@defined?$AA@ 0046b6d8     d3dx9:cpreprocessor.obj
 0002:000036e0       ??_C@_06PGFLMPLC@pragma?$AA@ 0046b6e0     d3dx9:cpreprocessor.obj
 0002:000036e8       ??_C@_05PAODFFED@endif?$AA@ 0046b6e8     d3dx9:cpreprocessor.obj
 0002:000036f0       ??_C@_04FHMCPBIP@else?$AA@ 0046b6f0     d3dx9:cpreprocessor.obj
 0002:000036f8       ??_C@_04GNFOIEOK@elif?$AA@ 0046b6f8     d3dx9:cpreprocessor.obj
 0002:00003700       ??_C@_06ENONKJGC@ifndef?$AA@ 0046b700     d3dx9:cpreprocessor.obj
 0002:00003708       ??_C@_05LOELCHJN@ifdef?$AA@ 0046b708     d3dx9:cpreprocessor.obj
 0002:00003710       ??_C@_02HEBPBKGD@if?$AA@   0046b710     d3dx9:cpreprocessor.obj
 0002:00003714       ??_C@_05KKCIMGE@error?$AA@ 0046b714     d3dx9:cpreprocessor.obj
 0002:0000371c       ??_C@_07FHOHOHLG@include?$AA@ 0046b71c     d3dx9:cpreprocessor.obj
 0002:00003724       ??_C@_04HJPCFDOP@line?$AA@ 0046b724     d3dx9:cpreprocessor.obj
 0002:0000372c       ??_C@_05PKCPKOLM@undef?$AA@ 0046b72c     d3dx9:cpreprocessor.obj
 0002:00003734       ??_C@_06EPMMJFDC@define?$AA@ 0046b734     d3dx9:cpreprocessor.obj
 0002:0000373c       ??_C@_02DKCKIIND@?$CFs?$AA@ 0046b73c     d3dx9:cpreprocessor.obj
 0002:00003740       ??_C@_0CC@FJIILCKL@invalid?5preprocessor?5command?5?8?$CFs@ 0046b740     d3dx9:cpreprocessor.obj
 0002:00003764       ??_C@_0N@MNJHOOI@syntax?5error?$AA@ 0046b764     d3dx9:cpreprocessor.obj
 0002:00003774       ??_C@_0BK@HKFDBMAJ@too?5many?5nested?5?$CDincludes?$AA@ 0046b774     d3dx9:cpreprocessor.obj
 0002:00003790       ??_C@_0EH@JLACBPNO@include?5interface?5required?5to?5su@ 0046b790     d3dx9:cpreprocessor.obj
 0002:000037d8       ??_C@_09FBLIBEOC@error?3?5?$CFs?$AA@ 0046b7d8     d3dx9:cpreprocessor.obj
 0002:000037e4       ??_C@_0CB@MKHBBNDA@unexpected?5?$CDelif?5following?5?$CDelse@ 0046b7e4     d3dx9:cpreprocessor.obj
 0002:00003808       ??_C@_0BB@HDIEBLGL@unexpected?5?$CDelif?$AA@ 0046b808     d3dx9:cpreprocessor.obj
 0002:0000381c       ??_C@_0CB@EOKAOACM@unexpected?5?$CDelse?5following?5?$CDelse@ 0046b81c     d3dx9:cpreprocessor.obj
 0002:00003840       ??_C@_0BB@EJBIGOAO@unexpected?5?$CDelse?$AA@ 0046b840     d3dx9:cpreprocessor.obj
 0002:00003854       ??_C@_0BC@GKECDMGK@unexpected?5?$CDendif?$AA@ 0046b854     d3dx9:cpreprocessor.obj
 0002:00003868       ??_C@_0N@PECLDJOE@column_major?$AA@ 0046b868     d3dx9:cpreprocessor.obj
 0002:00003878       ??_C@_09EDKEPPJ@row_major?$AA@ 0046b878     d3dx9:cpreprocessor.obj
 0002:00003884       ??_C@_01PKGAHCOL@?$CJ?$AA@ 0046b884     d3dx9:cpreprocessor.obj
 0002:00003888       ??_C@_01ODHLEDKK@?$CI?$AA@ 0046b888     d3dx9:cpreprocessor.obj
 0002:0000388c       ??_C@_01ICJEACDI@?$DL?$AA@ 0046b88c     d3dx9:cpreprocessor.obj
 0002:00003890       ??_C@_01JLIPDDHJ@?3?$AA@   0046b890     d3dx9:cpreprocessor.obj
 0002:00003894       ??_C@_07DLHCIBDH@default?$AA@ 0046b894     d3dx9:cpreprocessor.obj
 0002:0000389c       ??_C@_07DBNODEFN@disable?$AA@ 0046b89c     d3dx9:cpreprocessor.obj
 0002:000038a4       ??_C@_04KLFNICNF@once?$AA@ 0046b8a4     d3dx9:cpreprocessor.obj
 0002:000038ac       ??_C@_0CC@MBOPGJMG@internal?5error?3?5production?5faile@ 0046b8ac     d3dx9:cpreprocessor.obj
 0002:000038d0       ??_C@_01IHBHIGKO@?0?$AA@   0046b8d0     d3dx9:cpreprocessor.obj
 0002:000038d4       ??_C@_0BP@DMDMJAFB@duplicate?5macro?5parameter?5?8?$CFs?8?$AA@ 0046b8d4     d3dx9:cpreprocessor.obj
 0002:000038f4       ??_C@_07FPLKDJGL@warning?$AA@ 0046b8f4     d3dx9:cpreprocessor.obj
 0002:000038fc       ??_C@_0M@BNJHGMGP@pack_matrix?$AA@ 0046b8fc     d3dx9:cpreprocessor.obj
 0002:00003908       ??_C@_0ED@FGKNCPBB@functional?5defines?5in?5preprocess@ 0046b908     d3dx9:cpreprocessor.obj
 0002:0000394c       ??_C@_0CM@BIGGCADN@not?5enough?5actual?5parameters?5for@ 0046b94c     d3dx9:cpreprocessor.obj
 0002:00003978       ??_C@_02IEBMKJDF@?$CD?$CD?$AA@ 0046b978     d3dx9:cpreprocessor.obj
 0002:0000397c       ??_C@_02MKMMJBFB@?$CD?$EA?$AA@ 0046b97c     d3dx9:cpreprocessor.obj
 0002:00003980       ??_C@_0CK@LMLCLOHA@unexpected?5end?5of?5file?5in?5macro?5@ 0046b980     d3dx9:cpreprocessor.obj
 0002:000039ac       ??_C@_01IPJKGB@?$CD?$AA@   0046b9ac     d3dx9:cpreprocessor.obj
 0002:000039b0       ??_C@_03IANKFOOF@Arg?$AA@  0046b9b0     d3dx9:cpreprocessor.obj
 0002:000039b4       ??_C@_0N@MHBOIHHL@D3DX_VERSION?$AA@ 0046b9b4     d3dx9:cpreprocessor.obj
 0002:000039c4       ??_C@_0BB@PEPJODKN@DIRECT3D_VERSION?$AA@ 0046b9c4     d3dx9:cpreprocessor.obj
 0002:000039d8       ??_C@_04HDMBFDGE@D3DX?$AA@ 0046b9d8     d3dx9:cpreprocessor.obj
 0002:000039e0       ??_C@_08KOIBGIHJ@DIRECT3D?$AA@ 0046b9e0     d3dx9:cpreprocessor.obj
 0002:000039ec       ??_C@_0BO@FMNBCLAG@internal?5error?3?5out?5of?5memory?$AA@ 0046b9ec     d3dx9:cpreprocessor.obj
 0002:00003a0c       ??_C@_05IHHHDFHJ@Stack?$AA@ 0046ba0c     d3dx9:cpreprocessor.obj
 0002:00003a14       ??_C@_0CM@JEMPDBCA@division?5by?5zero?5in?5preprocessor@ 0046ba14     d3dx9:cpreprocessor.obj
 0002:00003a40       ??_C@_0CA@CKFKKIKI@internal?5error?3?5stack?5underflow?$AA@ 0046ba40     d3dx9:cpreprocessor.obj
 0002:00003a60       ??_C@_0BE@CHCCDJIL@yacc?5stack?5overflow?$AA@ 0046ba60     d3dx9:cpreprocessor.obj
 0002:00003a74       ??_C@_0BH@CFIIDOJD@unexpected?5end?5of?5file?$AA@ 0046ba74     d3dx9:cpreprocessor.obj
 0002:00003a8c       ??_C@_08ICCNKGAE@__LINE__?$AA@ 0046ba8c     d3dx9:cpreprocessor.obj
 0002:00003a98       ??_C@_08FMJNKKCK@__FILE__?$AA@ 0046ba98     d3dx9:cpreprocessor.obj
 0002:00003aa4       ??_C@_0DD@JGLIHEND@unexpected?5tokens?5following?5prep@ 0046baa4     d3dx9:cpreprocessor.obj
 0002:00003ad8       ??_C@_0M@MLFOEDLP@error?5X?$CFu?3?5?$AA@ 0046bad8     d3dx9:ctokenize.obj
 0002:00003ae4       ??_C@_06JJNAAIBA@?$CI?$CFu?$CJ?3?5?$AA@ 0046bae4     d3dx9:ctokenize.obj
 0002:00003aec       ??_C@_08DFJHLNPG@?$CFs?5X?$CFu?3?5?$AA@ 0046baec     d3dx9:ctokenize.obj
 0002:00003af8       ??_C@_0BN@KIMDFDJF@syntax?5error?5?3?5unexpected?5?$CFs?$AA@ 0046baf8     d3dx9:ctokenize.obj
 0002:00003b18       ??_C@_05JMKJMOPH@token?$AA@ 0046bb18     d3dx9:ctokenize.obj
 0002:00003b20       ??_C@_0M@IDJOOACD@end?5of?5file?$AA@ 0046bb20     d3dx9:ctokenize.obj
 0002:00003b2c       ??_C@_0M@MKKKCMOM@end?5of?5line?$AA@ 0046bb2c     d3dx9:ctokenize.obj
 0002:00003b38       ??_C@_0BA@KALEFPLN@string?5constant?$AA@ 0046bb38     d3dx9:ctokenize.obj
 0002:00003b48       ??_C@_0L@IAIHLMD@token?5?8?$CFs?8?$AA@ 0046bb48     d3dx9:ctokenize.obj
 0002:00003b54       ??_C@_0M@LLKJECAK@float?5?8?$CFgl?8?$AA@ 0046bb54     d3dx9:ctokenize.obj
 0002:00003b60       ??_C@_0M@LGDOMHNM@float?5?8?$CFgf?8?$AA@ 0046bb60     d3dx9:ctokenize.obj
 0002:00003b6c       ??_C@_0M@LMKAOKNG@float?5?8?$CFgh?8?$AA@ 0046bb6c     d3dx9:ctokenize.obj
 0002:00003b78       ??_C@_0L@BEICCKBA@float?5?8?$CFg?8?$AA@ 0046bb78     d3dx9:ctokenize.obj
 0002:00003b84       ??_C@_0P@FDDIJABK@integer?5?8?$CFuul?8?$AA@ 0046bb84     d3dx9:ctokenize.obj
 0002:00003b94       ??_C@_0O@MGNGKBFC@integer?5?8?$CFdl?8?$AA@ 0046bb94     d3dx9:ctokenize.obj
 0002:00003ba4       ??_C@_0N@HBBLAKNI@integer?5?8?$CFu?8?$AA@ 0046bba4     d3dx9:ctokenize.obj
 0002:00003bb4       ??_C@_0O@PGOEEGGO@version?5token?$AA@ 0046bbb4     d3dx9:ctokenize.obj
 0002:00003bc4       ??_C@_0CD@IFAMMCMM@comment?5continues?5past?5end?5of?5fi@ 0046bbc4     d3dx9:ctokenize.obj
 0002:00003be8       ??_C@_0BO@NIABELBF@hex?5value?5truncated?5to?532bits?$AA@ 0046bbe8     d3dx9:ctokenize.obj
 0002:00003c08       ??_C@_0CA@DNBKJEDM@octal?5value?5truncated?5to?532bits?$AA@ 0046bc08     d3dx9:ctokenize.obj
 0002:00003c28       ??_C@_0CC@PCFJBEKG@decimal?5value?5truncated?5to?532bit@ 0046bc28     d3dx9:ctokenize.obj
 0002:00003c4c       ??_C@_0CF@HEACLEH@character?5continues?5past?5end?5of?5@ 0046bc4c     d3dx9:ctokenize.obj
 0002:00003c74       ??_C@_0CC@JGLGBPGD@string?5continues?5past?5end?5of?5lin@ 0046bc74     d3dx9:ctokenize.obj
 0002:00003c98       ??_C@_0CC@NPICNDKM@string?5continues?5past?5end?5of?5fil@ 0046bc98     d3dx9:ctokenize.obj
 0002:00003cbc       ??_C@_0BH@NOMHDMPN@D3DX9?5Shader?5Assembler?$AA@ 0046bcbc     d3dx9:cassembler.obj
 0002:000059a0       ??_C@_01FMEDJKGI@o?$AA@    0046d9a0     d3dx9:cassembler.obj
 0002:000059a4       ??_C@_01JBBJJEPG@p?$AA@    0046d9a4     d3dx9:cassembler.obj
 0002:000059a8       ??_C@_01HHGOMJKL@l?$AA@    0046d9a8     d3dx9:cassembler.obj
 0002:000059ac       ??_C@_05JFHEGHJE@vFace?$AA@ 0046d9ac     d3dx9:cassembler.obj
 0002:000059b4       ??_C@_04MDNLLEAH@vPos?$AA@ 0046d9b4     d3dx9:cassembler.obj
 0002:000059bc       ??_C@_02BFGHIHPD@aL?$AA@   0046d9bc     d3dx9:cassembler.obj
 0002:000059c0       ??_C@_01OJONOECF@b?$AA@    0046d9c0     d3dx9:cassembler.obj
 0002:000059c4       ??_C@_01LKDEMHDF@s?$AA@    0046d9c4     d3dx9:cassembler.obj
 0002:000059c8       ??_C@_06EPJFCNHF@oDepth?$AA@ 0046d9c8     d3dx9:cassembler.obj
 0002:000059d0       ??_C@_02JIGBLGDG@oC?$AA@   0046d9d0     d3dx9:cassembler.obj
 0002:000059d4       ??_C@_01KBJDNOO@i?$AA@     0046d9d4     d3dx9:cassembler.obj
 0002:000059d8       ??_C@_02JNOCDCKA@oT?$AA@   0046d9d8     d3dx9:cassembler.obj
 0002:000059dc       ??_C@_02NHCACAPB@oD?$AA@   0046d9dc     d3dx9:cassembler.obj
 0002:000059e0       ??_C@_04PFPHJOOC@oFog?$AA@ 0046d9e0     d3dx9:cassembler.obj
 0002:000059e8       ??_C@_04LOFIANGF@oPts?$AA@ 0046d9e8     d3dx9:cassembler.obj
 0002:000059f0       ??_C@_04KOCLEBPE@oPos?$AA@ 0046d9f0     d3dx9:cassembler.obj
 0002:000059f8       ??_C@_01PFHFFBPC@t?$AA@    0046d9f8     d3dx9:cassembler.obj
 0002:000059fc       ??_C@_01MCMALHOG@a?$AA@    0046d9fc     d3dx9:cassembler.obj
 0002:00005a00       ??_C@_01PAPGNFGE@c?$AA@    0046da00     d3dx9:cassembler.obj
 0002:00005a04       ??_C@_01KDCPPGHE@r?$AA@    0046da04     d3dx9:cassembler.obj
 0002:00005a08       ??_C@_01MHEDDDHA@v?$AA@    0046da08     d3dx9:cassembler.obj
 0002:00005a0c       ??_C@_07EKJIKHKN@break_c?$AA@ 0046da0c     d3dx9:cassembler.obj
 0002:00005a14       ??_C@_04JKICOEOI@if_c?$AA@ 0046da14     d3dx9:cassembler.obj
 0002:00005a1c       ??_C@_05CBPKLGJM@phase?$AA@ 0046da1c     d3dx9:cassembler.obj
 0002:00005a24       ??_C@_06BMEJOOLC@texldl?$AA@ 0046da24     d3dx9:cassembler.obj
 0002:00005a2c       ??_C@_04PHJACMLG@setp?$AA@ 0046da2c     d3dx9:cassembler.obj
 0002:00005a34       ??_C@_06NEJAGELK@texldd?$AA@ 0046da34     d3dx9:cassembler.obj
 0002:00005a3c       ??_C@_03MCLFFEAB@dsy?$AA@  0046da3c     d3dx9:cassembler.obj
 0002:00005a40       ??_C@_03NLKOGFEA@dsx?$AA@  0046da40     d3dx9:cassembler.obj
 0002:00005a44       ??_C@_06HMPDGJ@dp2add?$AA@ 0046da44     d3dx9:cassembler.obj
 0002:00005a4c       ??_C@_03NBNLADEK@bem?$AA@  0046da4c     d3dx9:cassembler.obj
 0002:00005a50       ??_C@_03JIBIFJIL@cmp?$AA@  0046da50     d3dx9:cassembler.obj
 0002:00005a54       ??_C@_08KEGBHNNF@texdepth?$AA@ 0046da54     d3dx9:cassembler.obj
 0002:00005a60       ??_C@_07KBINOLHJ@texm3x3?$AA@ 0046da60     d3dx9:cassembler.obj
 0002:00005a68       ??_C@_06PPPBIMGK@texdp3?$AA@ 0046da68     d3dx9:cassembler.obj
 0002:00005a70       ??_C@_0N@FKGOHOIG@texm3x2depth?$AA@ 0046da70     d3dx9:cassembler.obj
 0002:00005a80       ??_C@_09FFGLJGDK@texdp3tex?$AA@ 0046da80     d3dx9:cassembler.obj
 0002:00005a8c       ??_C@_0L@IELIFMKH@texreg2rgb?$AA@ 0046da8c     d3dx9:cassembler.obj
 0002:00005a98       ??_C@_04ECAGGAOJ@defb?$AA@ 0046da98     d3dx9:cassembler.obj
 0002:00005aa0       ??_C@_04KBPCLJCC@defi?$AA@ 0046daa0     d3dx9:cassembler.obj
 0002:00005aa8       ??_C@_03BHEEIFFN@def?$AA@  0046daa8     d3dx9:cassembler.obj
 0002:00005aac       ??_C@_03LEPADAIH@cnd?$AA@  0046daac     d3dx9:cassembler.obj
 0002:00005ab0       ??_C@_04GEPNNBKI@logp?$AA@ 0046dab0     d3dx9:cassembler.obj
 0002:00005ab8       ??_C@_04LNEKGJAK@expp?$AA@ 0046dab8     d3dx9:cassembler.obj
 0002:00005ac0       ??_C@_0N@KDLHKEAM@texm3x3vspec?$AA@ 0046dac0     d3dx9:cassembler.obj
 0002:00005ad0       ??_C@_0M@EJPNKOAD@texm3x3spec?$AA@ 0046dad0     d3dx9:cassembler.obj
 0002:00005adc       ??_C@_0L@DIAEELDK@texm3x3tex?$AA@ 0046dadc     d3dx9:cassembler.obj
 0002:00005ae8       ??_C@_0L@FGBICJOM@texm3x3pad?$AA@ 0046dae8     d3dx9:cassembler.obj
 0002:00005af4       ??_C@_0L@FGEGCIK@texm3x2tex?$AA@ 0046daf4     d3dx9:cassembler.obj
 0002:00005b00       ??_C@_0L@GLHIAAFM@texm3x2pad?$AA@ 0046db00     d3dx9:cassembler.obj
 0002:00005b0c       ??_C@_09MCDLOMLJ@texreg2gb?$AA@ 0046db0c     d3dx9:cassembler.obj
 0002:00005b18       ??_C@_09IMHEICFK@texreg2ar?$AA@ 0046db18     d3dx9:cassembler.obj
 0002:00005b24       ??_C@_07OKHFAMNG@texbeml?$AA@ 0046db24     d3dx9:cassembler.obj
 0002:00005b2c       ??_C@_06OEEPMCPH@texbem?$AA@ 0046db2c     d3dx9:cassembler.obj
 0002:00005b34       ??_C@_06ICMKMDDM@texldb?$AA@ 0046db34     d3dx9:cassembler.obj
 0002:00005b3c       ??_C@_06PKDOLDOP@texldp?$AA@ 0046db3c     d3dx9:cassembler.obj
 0002:00005b44       ??_C@_05GBILPNCC@texld?$AA@ 0046db44     d3dx9:cassembler.obj
 0002:00005b4c       ??_C@_03JDBMONBN@tex?$AA@  0046db4c     d3dx9:cassembler.obj
 0002:00005b50       ??_C@_07KMHBLLCI@texkill?$AA@ 0046db50     d3dx9:cassembler.obj
 0002:00005b58       ??_C@_06JEFIKLCO@texcrd?$AA@ 0046db58     d3dx9:cassembler.obj
 0002:00005b60       ??_C@_08FDJGCBLL@texcoord?$AA@ 0046db60     d3dx9:cassembler.obj
 0002:00005b6c       ??_C@_04BHKABCEP@mova?$AA@ 0046db6c     d3dx9:cassembler.obj
 0002:00005b74       ??_C@_06IBKFOEOL@breakp?$AA@ 0046db74     d3dx9:cassembler.obj
 0002:00005b7c       ??_C@_05ELPHFHOI@break?$AA@ 0046db7c     d3dx9:cassembler.obj
 0002:00005b84       ??_C@_06EFEEOEEO@endrep?$AA@ 0046db84     d3dx9:cassembler.obj
 0002:00005b8c       ??_C@_03HOKODIMJ@rep?$AA@  0046db8c     d3dx9:cassembler.obj
 0002:00005b90       ??_C@_06NIOAIDEM@sincos?$AA@ 0046db90     d3dx9:cassembler.obj
 0002:00005b98       ??_C@_03ICGEAJAH@nrm?$AA@  0046db98     d3dx9:cassembler.obj
 0002:00005b9c       ??_C@_03BCGAIFPO@abs?$AA@  0046db9c     d3dx9:cassembler.obj
 0002:00005ba0       ??_C@_03BBNHLEBN@sgn?$AA@  0046dba0     d3dx9:cassembler.obj
 0002:00005ba4       ??_C@_03KEEPOOAF@crs?$AA@  0046dba4     d3dx9:cassembler.obj
 0002:00005ba8       ??_C@_03JGHBODFD@pow?$AA@  0046dba8     d3dx9:cassembler.obj
 0002:00005bac       ??_C@_03OJCGBBGF@dcl?$AA@  0046dbac     d3dx9:cassembler.obj
 0002:00005bb0       ??_C@_05IDCCNNGI@label?$AA@ 0046dbb0     d3dx9:cassembler.obj
 0002:00005bb8       ??_C@_07BJAJHMEP@endloop?$AA@ 0046dbb8     d3dx9:cassembler.obj
 0002:00005bc0       ??_C@_03BKMCPNMN@ret?$AA@  0046dbc0     d3dx9:cassembler.obj
 0002:00005bc4       ??_C@_04GKOOIABA@loop?$AA@ 0046dbc4     d3dx9:cassembler.obj
 0002:00005bcc       ??_C@_06KBMOAPKH@callnz?$AA@ 0046dbcc     d3dx9:cassembler.obj
 0002:00005bd4       ??_C@_04OMFAIDPG@call?$AA@ 0046dbd4     d3dx9:cassembler.obj
 0002:00005bdc       ??_C@_04NHDIBMI@m3x2?$AA@  0046dbdc     d3dx9:cassembler.obj
 0002:00005be4       ??_C@_04BEGILAIJ@m3x3?$AA@ 0046dbe4     d3dx9:cassembler.obj
 0002:00005bec       ??_C@_04FLCJCGEO@m3x4?$AA@ 0046dbec     d3dx9:cassembler.obj
 0002:00005bf4       ??_C@_04IJLPIIDA@m4x3?$AA@ 0046dbf4     d3dx9:cassembler.obj
 0002:00005bfc       ??_C@_04MGPOBOPH@m4x4?$AA@ 0046dbfc     d3dx9:cassembler.obj
 0002:00005c04       ??_C@_03NJFDAMGG@frc?$AA@  0046dc04     d3dx9:cassembler.obj
 0002:00005c08       ??_C@_03NHABKNJA@lrp?$AA@  0046dc08     d3dx9:cassembler.obj
 0002:00005c0c       ??_C@_03HHBLCKEM@dst?$AA@  0046dc0c     d3dx9:cassembler.obj
 0002:00005c10       ??_C@_03KDBOCEAF@lit?$AA@  0046dc10     d3dx9:cassembler.obj
 0002:00005c14       ??_C@_03MGHMBJCF@log?$AA@  0046dc14     d3dx9:cassembler.obj
 0002:00005c18       ??_C@_03KHJOGHMM@exp?$AA@  0046dc18     d3dx9:cassembler.obj
 0002:00005c1c       ??_C@_03PCCDGNNG@sge?$AA@  0046dc1c     d3dx9:cassembler.obj
 0002:00005c20       ??_C@_03KNKPKBCH@slt?$AA@  0046dc20     d3dx9:cassembler.obj
 0002:00005c24       ??_C@_03LJAEFNNE@max?$AA@  0046dc24     d3dx9:cassembler.obj
 0002:00005c28       ??_C@_03KLIPLJLL@min?$AA@  0046dc28     d3dx9:cassembler.obj
 0002:00005c2c       ??_C@_03IFCENLBA@dp4?$AA@  0046dc2c     d3dx9:cassembler.obj
 0002:00005c30       ??_C@_03MKGFENNH@dp3?$AA@  0046dc30     d3dx9:cassembler.obj
 0002:00005c34       ??_C@_03HPBONGEK@rsq?$AA@  0046dc34     d3dx9:cassembler.obj
 0002:00005c38       ??_C@_03HKCDEEHL@rcp?$AA@  0046dc38     d3dx9:cassembler.obj
 0002:00005c3c       ??_C@_03IMIFIBCN@mul?$AA@  0046dc3c     d3dx9:cassembler.obj
 0002:00005c40       ??_C@_03FPHDAAIJ@mad?$AA@  0046dc40     d3dx9:cassembler.obj
 0002:00005c44       ??_C@_03KCMAIMAP@sub?$AA@  0046dc44     d3dx9:cassembler.obj
 0002:00005c48       ??_C@_03BDGOHNNK@add?$AA@  0046dc48     d3dx9:cassembler.obj
 0002:00005c4c       ??_C@_03CNBJFNFA@mov?$AA@  0046dc4c     d3dx9:cassembler.obj
 0002:00005c50       ??_C@_03GJPGFFDI@nop?$AA@  0046dc50     d3dx9:cassembler.obj
 0002:00005c54       ??_C@_08EABEDICH@SPECULAR?$AA@ 0046dc54     d3dx9:cassembler.obj
 0002:00005c60       ??_C@_07PHAMEMIK@DIFFUSE?$AA@ 0046dc60     d3dx9:cassembler.obj
 0002:00005c68       ??_C@_06CLEKFGNM@SAMPLE?$AA@ 0046dc68     d3dx9:cassembler.obj
 0002:00005c70       ??_C@_05NCPPINNM@DEPTH?$AA@ 0046dc70     d3dx9:cassembler.obj
 0002:00005c78       ??_C@_03KEDKDEDN@FOG?$AA@  0046dc78     d3dx9:cassembler.obj
 0002:00005c7c       ??_C@_05DPNLPLKI@COLOR?$AA@ 0046dc7c     d3dx9:cassembler.obj
 0002:00005c84       ??_C@_0L@FOOOLPDH@POSITIONT?5?$AA@ 0046dc84     d3dx9:cassembler.obj
 0002:00005c90       ??_C@_0L@PPFCHDAK@TESSFACTOR?$AA@ 0046dc90     d3dx9:cassembler.obj
 0002:00005c9c       ??_C@_08DDEDFEDO@BINORMAL?$AA@ 0046dc9c     d3dx9:cassembler.obj
 0002:00005ca8       ??_C@_07HOFFNMLH@TANGENT?$AA@ 0046dca8     d3dx9:cassembler.obj
 0002:00005cb0       ??_C@_08CMDKBPJM@TEXCOORD?$AA@ 0046dcb0     d3dx9:cassembler.obj
 0002:00005cbc       ??_C@_05DHDJOECB@PSIZE?$AA@ 0046dcbc     d3dx9:cassembler.obj
 0002:00005cc4       ??_C@_06IOJAGNKJ@NORMAL?$AA@ 0046dcc4     d3dx9:cassembler.obj
 0002:00005ccc       ??_C@_0N@DBILKEJG@BLENDINDICES?$AA@ 0046dccc     d3dx9:cassembler.obj
 0002:00005cdc       ??_C@_0M@NKNBBMD@BLENDWEIGHT?$AA@ 0046dcdc     d3dx9:cassembler.obj
 0002:00005ce8       ??_C@_08JPMAAECC@POSITION?$AA@ 0046dce8     d3dx9:cassembler.obj
 0002:00005cf4       ??_C@_07NFANNNEC@UNKNOWN?$AA@ 0046dcf4     d3dx9:cassembler.obj
 0002:00005cfc       ??_C@_09LCIBJLA@POSITIONT?$AA@ 0046dcfc     d3dx9:cassembler.obj
 0002:00005d08       ??_C@_0CD@MJEDDOIP@invalid?5instruction?5modifiers?5?8?$CF@ 0046dd08     d3dx9:cassembler.obj
 0002:00005d2c       ??_C@_0DH@CMLFLCOE@?8?$CFs?8?5is?5not?5a?5valid?5instruction?5@ 0046dd2c     d3dx9:cassembler.obj
 0002:00005d64       ??_C@_02FJPJILEL@le?$AA@   0046dd64     d3dx9:cassembler.obj
 0002:00005d68       ??_C@_02FKHNFPCF@ne?$AA@   0046dd68     d3dx9:cassembler.obj
 0002:00005d6c       ??_C@_02KCAKIFL@lt?$AA@    0046dd6c     d3dx9:cassembler.obj
 0002:00005d70       ??_C@_02FFKMGEKK@ge?$AA@   0046dd70     d3dx9:cassembler.obj
 0002:00005d74       ??_C@_02HIIGGHJB@eq?$AA@   0046dd74     d3dx9:cassembler.obj
 0002:00005d78       ??_C@_02GHFEHLK@gt?$AA@    0046dd78     d3dx9:cassembler.obj
 0002:00005d7c       ??_C@_06CPGBIIAO@sample?$AA@ 0046dd7c     d3dx9:cassembler.obj
 0002:00005d84       ??_C@_05BJGJGKJC@depth?$AA@ 0046dd84     d3dx9:cassembler.obj
 0002:00005d8c       ??_C@_03KJMBPJEB@fog?$AA@  0046dd8c     d3dx9:cassembler.obj
 0002:00005d90       ??_C@_05PEENBMOG@color?$AA@ 0046dd90     d3dx9:cassembler.obj
 0002:00005d98       ??_C@_09DLNJCEEH@positiont?$AA@ 0046dd98     d3dx9:cassembler.obj
 0002:00005da4       ??_C@_0L@EJDPMBCK@tessfactor?$AA@ 0046dda4     d3dx9:cassembler.obj
 0002:00005db0       ??_C@_08EMOPGKBJ@binormal?$AA@ 0046ddb0     d3dx9:cassembler.obj
 0002:00005dbc       ??_C@_07IDAIGADD@tangent?$AA@ 0046ddbc     d3dx9:cassembler.obj
 0002:00005dc4       ??_C@_05PMKPADGP@psize?$AA@ 0046ddc4     d3dx9:cassembler.obj
 0002:00005dcc       ??_C@_06IKLLLDHL@normal?$AA@ 0046ddcc     d3dx9:cassembler.obj
 0002:00005dd4       ??_C@_0N@CMKJIGLL@blendindices?$AA@ 0046ddd4     d3dx9:cassembler.obj
 0002:00005de4       ??_C@_0M@KDPBHIBL@blendweight?$AA@ 0046dde4     d3dx9:cassembler.obj
 0002:00005df0       ??_C@_08OAGMDKAF@position?$AA@ 0046ddf0     d3dx9:cassembler.obj
 0002:00005dfc       ??_C@_02HLHADHEL@pp?$AA@   0046ddfc     d3dx9:cassembler.obj
 0002:00005e00       ??_C@_06EMCPHFGM@volume?$AA@ 0046de00     d3dx9:cassembler.obj
 0002:00005e08       ??_C@_04OIHHNFHN@cube?$AA@ 0046de08     d3dx9:cassembler.obj
 0002:00005e10       ??_C@_02CGMALJLA@2d?$AA@   0046de10     d3dx9:cassembler.obj
 0002:00005e14       ??_C@_02FIPPPJOK@d8?$AA@   0046de14     d3dx9:cassembler.obj
 0002:00005e18       ??_C@_02PEEKLGOG@d4?$AA@   0046de18     d3dx9:cassembler.obj
 0002:00005e1c       ??_C@_02KCBABBGA@d2?$AA@   0046de1c     d3dx9:cassembler.obj
 0002:00005e20       ??_C@_02LHCMELHE@x2?$AA@   0046de20     d3dx9:cassembler.obj
 0002:00005e24       ??_C@_02OBHGOMPC@x4?$AA@   0046de24     d3dx9:cassembler.obj
 0002:00005e28       ??_C@_02ENMDKDPO@x8?$AA@   0046de28     d3dx9:cassembler.obj
 0002:00005e2c       ??_C@_08JOJIKHG@centroid?$AA@ 0046de2c     d3dx9:cassembler.obj
 0002:00005e38       ??_C@_03KFHHDCHE@sat?$AA@  0046de38     d3dx9:cassembler.obj
 0002:00005e3c       ??_C@_0BC@OLOFEEHK@invalid?5mask?5?8?$CFs?8?$AA@ 0046de3c     d3dx9:cassembler.obj
 0002:00005e50       ??_C@_0BF@HCOGMEGH@invalid?5swizzle?5?8?$CFs?8?$AA@ 0046de50     d3dx9:cassembler.obj
 0002:00005e68       ??_C@_0CK@OOJOMBM@internal?5error?3?5instruction?5size@ 0046de68     d3dx9:cassembler.obj
 0002:00005e94       ??_C@_0DO@ODLPCPFA@only?5a0?4x?5is?5allowed?5as?5a?5relati@ 0046de94     d3dx9:cassembler.obj
 0002:00005ed4       ??_C@_0DD@GOMDFKNO@source?5modifiers?5incompatible?5wi@ 0046ded4     d3dx9:cassembler.obj
 0002:00005f08       ??_C@_0EK@NBDIIGO@relative?5addressing?5of?5predicate@ 0046df08     d3dx9:cassembler.obj
 0002:00005f54       ??_C@_0CP@MGCFIDAM@source?5modifiers?5are?5not?5allowed@ 0046df54     d3dx9:cassembler.obj
 0002:00005f84       ??_C@_0DE@FGKBEK@predicates?5are?5not?5supported?5in?5@ 0046df84     d3dx9:cassembler.obj
 0002:00005fb8       ??_C@_0FG@FCLIIPMN@relative?5addressing?5of?5destinati@ 0046dfb8     d3dx9:cassembler.obj
 0002:00006010       ??_C@_0FA@OOIKMLNO@only?5one?5address?5register?5refere@ 0046e010     d3dx9:cassembler.obj
 0002:00006060       ??_C@_0DL@OMAEJHPC@source?5modifiers?5are?5not?5allowed@ 0046e060     d3dx9:cassembler.obj
 0002:000060a0       ??_C@_0FA@KPDDNGND@call?0?5callnz?0?5label?0?5and?5ret?5ins@ 0046e0a0     d3dx9:cassembler.obj
 0002:000060f0       ??_C@_0EI@PMOHFJJO@Matrices?5cannot?5be?5specified?5in?5@ 0046e0f0     d3dx9:cassembler.obj
 0002:00006138       ??_C@_02GKOINLEI@r_?$AA@   0046e138     d3dx9:cassembler.obj
 0002:0000613c       ??_C@_02GNOBHDJE@v_?$AA@   0046e13c     d3dx9:cassembler.obj
 0002:00006140       ??_C@_0CL@LFOONOMK@fragment?5info?5exceeds?5maximum?5co@ 0046e140     d3dx9:cassembler.obj
 0002:0000616c       ??_C@_0DP@DBAJKLBB@debug?5info?5exceeds?5maximum?5comme@ 0046e16c     d3dx9:cassembler.obj
 0002:000061b0       ??_C@_0EN@EDDHNMBH@constant?5register?5address?5out?5of@ 0046e1b0     d3dx9:cassembler.obj
 0002:00006200       ??_C@_0DK@LHKGOFLH@constant?5register?5?8?$CFs?8?5must?5be?5d@ 0046e200     d3dx9:cassembler.obj
 0002:00006240       ??_C@_0HE@PMJLMPBK@?8?$CFs?8?5is?5not?5a?5valid?5register?5nam@ 0046e240     d3dx9:cassembler.obj
 0002:000062b4       ??_C@_02HKJLJHNJ@i_?$AA@   0046e2b4     d3dx9:cassembler.obj
 0002:000062b8       ??_C@_02HGMOHIDI@b_?$AA@   0046e2b8     d3dx9:cassembler.obj
 0002:000062bc       ??_C@_02HHAMBCAP@c_?$AA@   0046e2bc     d3dx9:cassembler.obj
 0002:000062c0       ??_C@_0DO@BHPEKDGB@addressing?5operations?5not?5allowe@ 0046e2c0     d3dx9:cassembler.obj
 0002:00006300       ??_C@_0DO@CINKJAFB@addressing?5operations?5are?5not?5al@ 0046e300     d3dx9:cassembler.obj
 0002:00006340       ??_C@_0CG@NCKHPBIL@Invalid?5input?5register?5?8?$CFs?8?5spec@ 0046e340     d3dx9:cassembler.obj
 0002:00006368       ??_C@_0CP@KIKGPAFB@invalid?5register?0?5input?0?5or?5cons@ 0046e368     d3dx9:cassembler.obj
 0002:00006398       ??_C@_05LAPONLG@false?$AA@ 0046e398     d3dx9:cassembler.obj
 0002:000063a0       ??_C@_04LOAJBDKD@true?$AA@ 0046e3a0     d3dx9:cassembler.obj
 0002:000063a8       ??_C@_0L@BPGLNOGK@entrypoint?$AA@ 0046e3a8     d3dx9:cassembler.obj
 0002:000063b4       ??_C@_0BG@CDEBKFJO@invalid?5register?5?8?$CFs?8?$AA@ 0046e3b4     d3dx9:cassembler.obj
 0002:000063cc       ??_C@_0BL@ENKBHICH@invalid?5register?5?8?$CFs?$FL?4?4?4?$FN?8?$AA@ 0046e3cc     d3dx9:cassembler.obj
 0002:000063e8       ??_C@_0BK@FOKIDEMM@invalid?5register?5?8?$CFs?$FL?$CFu?$FN?8?$AA@ 0046e3e8     d3dx9:cassembler.obj
 0002:00006404       ??_C@_02DDIGBPPH@da?$AA@   0046e404     d3dx9:cassembler.obj
 0002:00006408       ??_C@_02CPBOKKCA@dw?$AA@   0046e408     d3dx9:cassembler.obj
 0002:0000640c       ??_C@_02BIKLEMDE@db?$AA@   0046e40c     d3dx9:cassembler.obj
 0002:00006410       ??_C@_02JKLANEGN@dz?$AA@   0046e410     d3dx9:cassembler.obj
 0002:00006414       ??_C@_03PIAGHCPC@bx2?$AA@  0046e414     d3dx9:cassembler.obj
 0002:00006418       ??_C@_04NBAGBPGE@bias?$AA@ 0046e418     d3dx9:cassembler.obj
 0002:00006420       ??_C@_0EH@EMLNKHPK@temporary?5and?5constant?5registers@ 0046e420     d3dx9:cassembler.obj
 0002:00006468       ??_C@_0EN@JJAJIHLJ@only?5one?5address?5register?5refere@ 0046e468     d3dx9:cassembler.obj
 0002:000064b8       ??_C@_0CE@OJBKLNIJ@scalar?5registers?5cannot?5be?5swizz@ 0046e4b8     d3dx9:cassembler.obj
 0002:000064dc       ??_C@_0DD@GNHGMJHC@complement?5is?5not?5supported?5in?5t@ 0046e4dc     d3dx9:cassembler.obj
 0002:00006510       ??_C@_0CP@LILJCPPC@complement?5cannot?5be?5used?5with?5o@ 0046e510     d3dx9:cassembler.obj
 0002:00006540       ??_C@_0BO@MOIAKPAE@invalid?5complement?5expression?$AA@ 0046e540     d3dx9:cassembler.obj
 0002:00006560       ??_C@_0CP@DFLODLPG@negate?5and?5divide?5modifiers?5cann@ 0046e560     d3dx9:cassembler.obj
 0002:00006590       ??_C@_0CI@OBKELLM@not?5cannot?5be?5used?5with?5other?5mo@ 0046e590     d3dx9:cassembler.obj
 0002:000065b8       ??_C@_0CC@GOEOADD@scalar?5registers?5cannot?5be?5maske@ 0046e5b8     d3dx9:cassembler.obj
 0002:000065e0       ??_C@_0EA@OBEGANPP@instruction?5predication?5is?5not?5s@ 0046e5e0     d3dx9:cassembler.obj
 0002:00006620       ??_C@_0DM@PNIGIHLP@instruction?5coissue?5is?5not?5suppo@ 0046e620     d3dx9:cassembler.obj
 0002:0000665c       ??_C@_0BP@IMMCKKEG@Direct3DShaderValidatorCreate9?$AA@ 0046e65c     d3dx9:cassembler.obj
 0002:0000667c       ??_C@_08NIHLGCK@d3d9?4dll?$AA@ 0046e67c     d3dx9:cassembler.obj
 0002:00006688       ??_C@_0EO@HKJOFKHI@only?5vs_1_1?0?5vs_2_0?0?5vs_2_x?0?5and@ 0046e688     d3dx9:cassembler.obj
 0002:000066d8       ??_C@_0BM@ONDMKAHF@unrecognized?5shader?5version?$AA@ 0046e6d8     d3dx9:cassembler.obj
 0002:000066f4       ??_C@_0CM@ICEBBLON@ps_1_0?5is?5no?5longer?5supported?$DL?5u@ 0046e6f4     d3dx9:cassembler.obj
 0002:00006720       ??_C@_0CM@BNGBLPJL@vs_1_0?5is?5no?5longer?5supported?$DL?5u@ 0046e720     d3dx9:cassembler.obj
 0002:0000674c       ??_C@_0BI@FLANODHC@shader?5version?5expected?$AA@ 0046e74c     d3dx9:cassembler.obj
 0002:00006768       __real@4000000000000000    0046e768     d3dx9:ccompiler.obj
 0002:00006770       ??_C@_0BN@MGNLPBPN@internal?5error?3?5unknown?5node?$AA@ 0046e770     d3dx9:ccompiler.obj
 0002:00006790       __real@3fe0000000000000    0046e790     d3dx9:ccompiler.obj
 0002:00006798       ??_7CBuffer@D3DXCore@@6B@  0046e798     d3dx9:cbuffer.obj
 0002:000067b4       ??_7CBufferA16@D3DXCore@@6B@ 0046e7b4     d3dx9:cbuffer.obj
 0002:000067d0       __real@3f99999a            0046e7d0     d3dx9:cbuffer.obj
 0002:000067d4       ??_7CStringBuffer@D3DXCore@@6B@ 0046e7d4     d3dx9:cbuffer.obj
 0002:000067f4       ??_C@_0O@EPNLBGEO@D3DXDoNotMute?$AA@ 0046e7f4     d3dx9:d3dx9dbg.obj
 0002:00006804       ??_C@_09GLMKCLMG@d3d9d?4dll?$AA@ 0046e804     d3dx9:d3dx9dbg.obj
 0002:00006810       ??_C@_0N@DIPAJPJI@DebugSetMute?$AA@ 0046e810     d3dx9:d3dx9dbg.obj
 0002:00006820       ??_C@_0L@JBGDLKBH@read?5error?$AA@ 0046e820     d3dx9:cimage.obj
 0002:00006830       __real@406fe00000000000    0046e830     d3dx9:cimage.obj
 0002:00006838       __real@3f70101010101010    0046e838     d3dx9:cimage.obj
 0002:00006840       __real@3eb0c6f7a0b5ed8d    0046e840     d3dx9:cimage.obj
 0002:00006848       __real@400199999999999a    0046e848     d3dx9:cimage.obj
 0002:00006850       ??_C@_05JPCDEKMM@1?40?45?$AA@ 0046e850     d3dx9:cimage.obj
 0002:00007058       ??_7CCodec@D3DXTex@@6B@    0046f058     d3dx9:ccodec.obj
 0002:00007068       __real@3c820821            0046f068     d3dx9:ccodec.obj
 0002:0000706c       __real@427c0000            0046f06c     d3dx9:ccodec.obj
 0002:00007070       __real@3d042108            0046f070     d3dx9:ccodec.obj
 0002:00007074       __real@41f80000            0046f074     d3dx9:ccodec.obj
 0002:00007078       __real@41700000            0046f078     d3dx9:ccodec.obj
 0002:0000707c       __real@437e0000            0046f07c     d3dx9:ccodec.obj
 0002:00007080       __real@40e00000            0046f080     d3dx9:ccodec.obj
 0002:00007084       __real@447fc000            0046f084     d3dx9:ccodec.obj
 0002:00007088       __real@42fe0000            0046f088     d3dx9:ccodec.obj
 0002:0000708c       __real@46fffe00            0046f08c     d3dx9:ccodec.obj
 0002:00007090       __real@43ff8000            0046f090     d3dx9:ccodec.obj
 0002:00007094       __real@3d888889            0046f094     d3dx9:ccodec.obj
 0002:00007098       __real@3a802008            0046f098     d3dx9:ccodec.obj
 0002:0000709c       __real@37800080            0046f09c     d3dx9:ccodec.obj
 0002:000070a0       __real@3e124925            0046f0a0     d3dx9:ccodec.obj
 0002:000070a4       ??_7CCodec_R8G8B8@D3DXTex@@6B@ 0046f0a4     d3dx9:ccodec.obj
 0002:000070b4       ??_7CCodec_A8R8G8B8@D3DXTex@@6B@ 0046f0b4     d3dx9:ccodec.obj
 0002:000070c4       ??_7CCodec_X8R8G8B8@D3DXTex@@6B@ 0046f0c4     d3dx9:ccodec.obj
 0002:000070d4       ??_7CCodec_R5G6B5@D3DXTex@@6B@ 0046f0d4     d3dx9:ccodec.obj
 0002:000070e4       ??_7CCodec_X1R5G5B5@D3DXTex@@6B@ 0046f0e4     d3dx9:ccodec.obj
 0002:000070f4       ??_7CCodec_A1R5G5B5@D3DXTex@@6B@ 0046f0f4     d3dx9:ccodec.obj
 0002:00007104       ??_7CCodec_A4R4G4B4@D3DXTex@@6B@ 0046f104     d3dx9:ccodec.obj
 0002:00007114       ??_7CCodec_R3G3B2@D3DXTex@@6B@ 0046f114     d3dx9:ccodec.obj
 0002:00007124       ??_7CCodec_A8@D3DXTex@@6B@ 0046f124     d3dx9:ccodec.obj
 0002:00007134       __real@3c010204            0046f134     d3dx9:ccodec.obj
 0002:00007138       ??_7CCodec_A8R3G3B2@D3DXTex@@6B@ 0046f138     d3dx9:ccodec.obj
 0002:00007148       ??_7CCodec_X4R4G4B4@D3DXTex@@6B@ 0046f148     d3dx9:ccodec.obj
 0002:00007158       ??_7CCodec_A2B10G10R10@D3DXTex@@6B@ 0046f158     d3dx9:ccodec.obj
 0002:00007168       ??_7CCodec_A8B8G8R8@D3DXTex@@6B@ 0046f168     d3dx9:ccodec.obj
 0002:00007178       ??_7CCodec_X8B8G8R8@D3DXTex@@6B@ 0046f178     d3dx9:ccodec.obj
 0002:00007188       ??_7CCodec_G16R16@D3DXTex@@6B@ 0046f188     d3dx9:ccodec.obj
 0002:00007198       ??_7CCodec_A2R10G10B10@D3DXTex@@6B@ 0046f198     d3dx9:ccodec.obj
 0002:000071a8       ??_7CCodec_A16B16G16R16@D3DXTex@@6B@ 0046f1a8     d3dx9:ccodec.obj
 0002:000071b8       __real@3b004020            0046f1b8     d3dx9:ccodec.obj
 0002:000071bc       ??_7CCodec_A8P8@D3DXTex@@6B@ 0046f1bc     d3dx9:ccodec.obj
 0002:000071cc       ??_7CCodec_P8@D3DXTex@@6B@ 0046f1cc     d3dx9:ccodec.obj
 0002:000071dc       ??_7CCodec_L8@D3DXTex@@6B@ 0046f1dc     d3dx9:ccodec.obj
 0002:000071ec       ??_7CCodec_A8L8@D3DXTex@@6B@ 0046f1ec     d3dx9:ccodec.obj
 0002:000071fc       ??_7CCodec_A4L4@D3DXTex@@6B@ 0046f1fc     d3dx9:ccodec.obj
 0002:0000720c       ??_7CCodec_V8U8@D3DXTex@@6B@ 0046f20c     d3dx9:ccodec.obj
 0002:0000721c       ??_7CCodec_L6V5U5@D3DXTex@@6B@ 0046f21c     d3dx9:ccodec.obj
 0002:0000722c       ??_7CCodec_X8L8V8U8@D3DXTex@@6B@ 0046f22c     d3dx9:ccodec.obj
 0002:0000723c       ??_7CCodec_Q8W8V8U8@D3DXTex@@6B@ 0046f23c     d3dx9:ccodec.obj
 0002:0000724c       ??_7CCodec_V16U16@D3DXTex@@6B@ 0046f24c     d3dx9:ccodec.obj
 0002:0000725c       ??_7CCodec_A2W10V10U10@D3DXTex@@6B@ 0046f25c     d3dx9:ccodec.obj
 0002:0000726c       ??_7CCodec_Q16W16V16U16@D3DXTex@@6B@ 0046f26c     d3dx9:ccodec.obj
 0002:0000727c       ??_7CCodec_CxV8U8@D3DXTex@@6B@ 0046f27c     d3dx9:ccodec.obj
 0002:0000728c       ??_7CCodec_D16_LOCKABLE@D3DXTex@@6B@ 0046f28c     d3dx9:ccodec.obj
 0002:0000728c       ??_7CCodec_L16@D3DXTex@@6B@ 0046f28c     d3dx9:ccodec.obj
 0002:0000729c       ??_7CCodec_R16F@D3DXTex@@6B@ 0046f29c     d3dx9:ccodec.obj
 0002:000072ac       __real@4191b646            0046f2ac     d3dx9:ccodec.obj
 0002:000072b0       __real@42bb926f            0046f2b0     d3dx9:ccodec.obj
 0002:000072b4       __real@42173021            0046f2b4     d3dx9:ccodec.obj
 0002:000072b8       __real@429467f0            0046f2b8     d3dx9:ccodec.obj
 0002:000072bc       __real@42e00000            0046f2bc     d3dx9:ccodec.obj
 0002:000072c0       __real@43008d91            0046f2c0     d3dx9:ccodec.obj
 0002:000072c4       __real@41c7ba5e            0046f2c4     d3dx9:ccodec.obj
 0002:000072c8       __real@4282f646            0046f2c8     d3dx9:ccodec.obj
 0002:000072cc       ??_7CCodec_G16R16F@D3DXTex@@6B@ 0046f2cc     d3dx9:ccodec.obj
 0002:000072dc       ??_7CCodec_A16B16G16R16F@D3DXTex@@6B@ 0046f2dc     d3dx9:ccodec.obj
 0002:000072ec       ??_7CCodec_D32F_LOCKABLE@D3DXTex@@6B@ 0046f2ec     d3dx9:ccodec.obj
 0002:000072ec       ??_7CCodec_R32F@D3DXTex@@6B@ 0046f2ec     d3dx9:ccodec.obj
 0002:000072fc       ??_7CCodec_G32R32F@D3DXTex@@6B@ 0046f2fc     d3dx9:ccodec.obj
 0002:0000730c       __real@3c019bec            0046f30c     d3dx9:ccodec.obj
 0002:00007310       __real@3b50ef9c            0046f310     d3dx9:ccodec.obj
 0002:00007314       __real@3ac95e58            0046f314     d3dx9:ccodec.obj
 0002:00007318       __real@3b95a025            0046f318     d3dx9:ccodec.obj
 0002:0000731c       __real@3bcd17b6            0046f31c     d3dx9:ccodec.obj
 0002:00007320       __real@43000000            0046f320     d3dx9:ccodec.obj
 0002:00007324       __real@41800000            0046f324     d3dx9:ccodec.obj
 0002:00007328       ??_7CCodec_A32B32G32R32F@D3DXTex@@6B@ 0046f328     d3dx9:ccodec.obj
 0002:00007338       ??_7CCodec_D3DX_A16L16@D3DXTex@@6B@ 0046f338     d3dx9:ccodec.obj
 0002:00007348       ??_7CCodec_D3DX_R16G16B16@D3DXTex@@6B@ 0046f348     d3dx9:ccodec.obj
 0002:00007358       ??_7CCodec_DXT3@D3DXTex@@6B@ 0046f358     d3dx9:ccodec.obj
 0002:00007358       ??_7CCodec_DXT5@D3DXTex@@6B@ 0046f358     d3dx9:ccodec.obj
 0002:00007358       ??_7CCodec_DXT2@D3DXTex@@6B@ 0046f358     d3dx9:ccodec.obj
 0002:00007358       ??_7CCodec_DXT4@D3DXTex@@6B@ 0046f358     d3dx9:ccodec.obj
 0002:00007358       ??_7CCodec_DXT1@D3DXTex@@6B@ 0046f358     d3dx9:ccodec.obj
 0002:00007358       ??_7CCodecDXT@D3DXTex@@6B@ 0046f358     d3dx9:ccodec.obj
 0002:00007368       ??_7CCodec_R8G8_B8G8@D3DXTex@@6B@ 0046f368     d3dx9:ccodec.obj
 0002:00007368       ??_7CCodecYUV@D3DXTex@@6B@ 0046f368     d3dx9:ccodec.obj
 0002:00007368       ??_7CCodec_G8R8_G8B8@D3DXTex@@6B@ 0046f368     d3dx9:ccodec.obj
 0002:00007368       ??_7CCodec_YUY2@D3DXTex@@6B@ 0046f368     d3dx9:ccodec.obj
 0002:00007368       ??_7CCodec_UYVY@D3DXTex@@6B@ 0046f368     d3dx9:ccodec.obj
 0002:00007388       ??_7CSprite@D3DXCore@@6B@  0046f388     d3dx9:csprite.obj
 0002:000073b0       __real@3d800000            0046f3b0     d3dx9:crendertoenvmap.obj
 0002:000073b4       __real@3c800000            0046f3b4     d3dx9:cline.obj
 0002:000073b8       ?const3dn_0_1@@3T__m64@@B  0046f3b8     d3dx9:d3dxmathx3d.obj
 0002:000073c0       ?const3dn_1_0@@3T__m64@@B  0046f3c0     d3dx9:d3dxmathx3d.obj
 0002:000073c8       ?const3dn_1_N1@@3T__m64@@B 0046f3c8     d3dx9:d3dxmathx3d.obj
 0002:000073d0       ?const3dn_N1_1@@3T__m64@@B 0046f3d0     d3dx9:d3dxmathx3d.obj
 0002:000073d8       ?const3dn_1_1@@3T__m64@@B  0046f3d8     d3dx9:d3dxmathx3d.obj
 0002:000073e0       ?const3dn_2_2@@3T__m64@@B  0046f3e0     d3dx9:d3dxmathx3d.obj
 0002:000073e8       ?const3dn_3_2@@3T__m64@@B  0046f3e8     d3dx9:d3dxmathx3d.obj
 0002:000073f0       ?const3dn_SignBitLo@@3T__m64@@B 0046f3f0     d3dx9:d3dxmathx3d.obj
 0002:000073f8       ?const3dn_SignBitHi@@3T__m64@@B 0046f3f8     d3dx9:d3dxmathx3d.obj
 0002:00007400       ?const3dn_SignBits@@3T__m64@@B 0046f400     d3dx9:d3dxmathx3d.obj
 0002:00007408       ?const3dn_SignMaskLo@@3T__m64@@B 0046f408     d3dx9:d3dxmathx3d.obj
 0002:00007410       ?const3dn_SignMaskHi@@3T__m64@@B 0046f410     d3dx9:d3dxmathx3d.obj
 0002:00007418       ?const3dn_SignMasks@@3T__m64@@B 0046f418     d3dx9:d3dxmathx3d.obj
 0002:00007420       ?const3dn_epsilon@@3T__m64@@B 0046f420     d3dx9:d3dxmathx3d.obj
 0002:00007428       ?const3dn_dwordLo@@3T__m64@@B 0046f428     d3dx9:d3dxmathx3d.obj
 0002:00007430       ?const3dn_max@@3T__m64@@B  0046f430     d3dx9:d3dxmathx3d.obj
 0002:00007438       ?const3dn_min@@3T__m64@@B  0046f438     d3dx9:d3dxmathx3d.obj
 0002:00007440       ?const3dn_halves@@3T__m64@@B 0046f440     d3dx9:d3dxmathx3d.obj
 0002:00007448       ?const3dn_FltMin@@3T__m64@@B 0046f448     d3dx9:d3dxmathx3d.obj
 0002:00007450       ?g_negate_low@@3T__m64@@B  0046f450     d3dx9:d3dxmathx3d.obj
 0002:00007458       ?g_negate_high@@3T__m64@@B 0046f458     d3dx9:d3dxmathx3d.obj
 0002:00007460       ?g_const_1@@3T__m64@@B     0046f460     d3dx9:d3dxmathx3d.obj
 0002:00007468       ?g_const_half@@3T__m64@@B  0046f468     d3dx9:d3dxmathx3d.obj
 0002:00007470       ?g_const_2@@3T__m64@@B     0046f470     d3dx9:d3dxmathx3d.obj
 0002:00007478       ?g_const_3@@3T__m64@@B     0046f478     d3dx9:d3dxmathx3d.obj
 0002:00007480       ?g_const_2_3@@3T__m64@@B   0046f480     d3dx9:d3dxmathx3d.obj
 0002:00007488       ?g_const_3_2@@3T__m64@@B   0046f488     d3dx9:d3dxmathx3d.obj
 0002:00007490       ?g_const_0@@3T__m64@@B     0046f490     d3dx9:d3dxmathx3d.obj
 0002:00007498       ?g_const_0_1@@3T__m64@@B   0046f498     d3dx9:d3dxmathx3d.obj
 0002:000074a0       ?g_const_1_0@@3T__m64@@B   0046f4a0     d3dx9:d3dxmathx3d.obj
 0002:000074a8       ?g_const_nh_nl@@3T__m64@@B 0046f4a8     d3dx9:d3dxmathx3d.obj
 0002:000074b0       ?g_const_n2@@3T__m64@@B    0046f4b0     d3dx9:d3dxmathx3d.obj
 0002:000074b8       ?g_const_n2_1@@3T__m64@@B  0046f4b8     d3dx9:d3dxmathx3d.obj
 0002:000074c0       ?g_const_niner@@3T__m64@@B 0046f4c0     d3dx9:d3dxmathx3d.obj
 0002:000074c8       ?g_const_colRG@@3T__m64@@B 0046f4c8     d3dx9:d3dxmathx3d.obj
 0002:000074d0       ?g_const_colB0@@3T__m64@@B 0046f4d0     d3dx9:d3dxmathx3d.obj
 0002:000074d8       ??_C@_0N@FFJGBINN@AuthenticAMD?$AA@ 0046f4d8     d3dx9:d3dxmathx3d.obj
 0002:000074e8       ??_C@_0N@GFHLKNJN@UnknownVendr?$AA@ 0046f4e8     d3dx9:d3dxmathx3d.obj
 0002:000074f8       ??_7CNode@D3DXShader@@6B@  0046f4f8     d3dx9:cnode.obj
 0002:00007508       ??_7CNodeList@D3DXShader@@6B@ 0046f508     d3dx9:cnode.obj
 0002:00007518       ??_7CNodeToken@D3DXShader@@6B@ 0046f518     d3dx9:cnode.obj
 0002:00007528       ??_7CNodeType@D3DXShader@@6B@ 0046f528     d3dx9:cnode.obj
 0002:00007538       ??_7CNodeVariable@D3DXShader@@6B@ 0046f538     d3dx9:cnode.obj
 0002:00007548       ??_7CNodeValue@D3DXShader@@6B@ 0046f548     d3dx9:cnode.obj
 0002:00007558       ??_C@_0FH@PHGMEDJN@integer?5constant?5register?5?8?$CFs?8?5m@ 0046f558     d3dx9:d3dx9fragment.obj
 0002:000075b0       ??_C@_0EP@PDBMPKMG@boolean?5constant?5register?5?8?$CFs?8?5m@ 0046f5b0     d3dx9:d3dx9fragment.obj
 0002:00007600       ??_C@_0EK@OACHEGCL@Constant?5variable?5?8?$CFs?8?5bound?5to?5@ 0046f600     d3dx9:d3dx9fragment.obj
 0002:0000764c       ??_7CNodeAsmInstruction@D3DXShader@@6B@ 0046f64c     d3dx9:cnodeasm.obj
 0002:0000765c       ??_7CNodeAsmRegister@D3DXShader@@6B@ 0046f65c     d3dx9:cnodeasm.obj
 0002:0000766c       ??_C@_01FJMABOPO@x?$AA@    0046f66c     d3dx9:cprogram.obj
 0002:0000a948       ??_C@_0BB@MBPKLAMF@D3DCOLORtoUBYTE4?$AA@ 00472948     d3dx9:cparse.obj
 0002:0000a95c       ??_C@_09KDFGPPLL@transpose?$AA@ 0047295c     d3dx9:cparse.obj
 0002:0000a968       ??_C@_0M@PJHIFGGE@texCUBEbias?$AA@ 00472968     d3dx9:cparse.obj
 0002:0000a974       ??_C@_0M@PFNOMGAK@texCUBEproj?$AA@ 00472974     d3dx9:cparse.obj
 0002:0000a980       ??_C@_07JBKIGMPF@texCUBE?$AA@ 00472980     d3dx9:cparse.obj
 0002:0000a988       ??_C@_09GPAPBMJG@tex3Dbias?$AA@ 00472988     d3dx9:cparse.obj
 0002:0000a994       ??_C@_09GDKJIMPI@tex3Dproj?$AA@ 00472994     d3dx9:cparse.obj
 0002:0000a9a0       ??_C@_05JDOPLAAN@tex3D?$AA@ 004729a0     d3dx9:cparse.obj
 0002:0000a9a8       ??_C@_09MJHIBHCC@tex2Dbias?$AA@ 004729a8     d3dx9:cparse.obj
 0002:0000a9b4       ??_C@_09MFNOIHEM@tex2Dproj?$AA@ 004729b4     d3dx9:cparse.obj
 0002:0000a9c0       ??_C@_05JCCNNKDK@tex2D?$AA@ 004729c0     d3dx9:cparse.obj
 0002:0000a9c8       ??_C@_09PIJAANLP@tex1Dbias?$AA@ 004729c8     d3dx9:cparse.obj
 0002:0000a9d4       ??_C@_09PEDGJNNB@tex1Dproj?$AA@ 004729d4     d3dx9:cparse.obj
 0002:0000a9e0       ??_C@_05JAGLGEGD@tex1D?$AA@ 004729e0     d3dx9:cparse.obj
 0002:0000a9e8       ??_C@_04FJHINJAO@tanh?$AA@ 004729e8     d3dx9:cparse.obj
 0002:0000a9f0       ??_C@_03IIINPABG@tan?$AA@  004729f0     d3dx9:cparse.obj
 0002:0000a9f4       ??_C@_04CNBNFAL@step?$AA@  004729f4     d3dx9:cparse.obj
 0002:0000a9fc       ??_C@_04EIAKFFMI@sqrt?$AA@ 004729fc     d3dx9:cparse.obj
 0002:0000aa04       ??_C@_0L@JKDMKNKF@smoothstep?$AA@ 00472a04     d3dx9:cparse.obj
 0002:0000aa10       ??_C@_04COOMCNPB@sinh?$AA@ 00472a10     d3dx9:cparse.obj
 0002:0000aa18       ??_C@_03BLEJJJBH@sin?$AA@  00472a18     d3dx9:cparse.obj
 0002:0000aa1c       ??_C@_04HHGHLBPI@sign?$AA@ 00472a1c     d3dx9:cparse.obj
 0002:0000aa24       ??_C@_08MEKLKAIJ@saturate?$AA@ 00472a24     d3dx9:cparse.obj
 0002:0000aa30       ??_C@_05HJAAKPLM@rsqrt?$AA@ 00472a30     d3dx9:cparse.obj
 0002:0000aa38       ??_C@_05MIMAKCN@round?$AA@ 00472a38     d3dx9:cparse.obj
 0002:0000aa40       ??_C@_02ODPEEKDN@ri?$AA@   00472a40     d3dx9:cparse.obj
 0002:0000aa44       ??_C@_07HCMBNDDM@refract?$AA@ 00472a44     d3dx9:cparse.obj
 0002:0000aa4c       ??_C@_01EFFIKLCJ@n?$AA@    00472a4c     d3dx9:cparse.obj
 0002:0000aa50       ??_C@_07CCHDGNII@reflect?$AA@ 00472a50     d3dx9:cparse.obj
 0002:0000aa58       ??_C@_07JLOPPFCD@radians?$AA@ 00472a58     d3dx9:cparse.obj
 0002:0000aa60       ??_C@_09MMDNNKKJ@normalize?$AA@ 00472a60     d3dx9:cparse.obj
 0002:0000aa6c       ??_C@_05GPLCCBII@noise?$AA@ 00472a6c     d3dx9:cparse.obj
 0002:0000aa74       ??_C@_02GIIHKPLE@ip?$AA@   00472a74     d3dx9:cparse.obj
 0002:0000aa78       ??_C@_04EHEDPDJG@modf?$AA@ 00472a78     d3dx9:cparse.obj
 0002:0000aa80       ??_C@_04KGLCPMCP@log2?$AA@ 00472a80     d3dx9:cparse.obj
 0002:0000aa88       ??_C@_05HGHHAHAP@log10?$AA@ 00472a88     d3dx9:cparse.obj
 0002:0000aa90       ??_C@_01GOHFPIOK@m?$AA@    00472a90     d3dx9:cparse.obj
 0002:0000aa94       ??_C@_01BDACAMKP@h?$AA@    00472a94     d3dx9:cparse.obj
 0002:0000aa98       ??_C@_04BBKNFAFH@lerp?$AA@ 00472a98     d3dx9:cparse.obj
 0002:0000aaa0       ??_C@_06IJDLPEM@length?$AA@ 00472aa0     d3dx9:cparse.obj
 0002:0000aaa8       ??_C@_05CEJMAHNP@ldexp?$AA@ 00472aa8     d3dx9:cparse.obj
 0002:0000aab0       ??_C@_05LGCGPNNP@isnan?$AA@ 00472ab0     d3dx9:cparse.obj
 0002:0000aab8       ??_C@_05OIHEAIFD@isinf?$AA@ 00472ab8     d3dx9:cparse.obj
 0002:0000aac0       ??_C@_08CHCKEDFL@isfinite?$AA@ 00472ac0     d3dx9:cparse.obj
 0002:0000aacc       ??_C@_05GKKHEGJL@frexp?$AA@ 00472acc     d3dx9:cparse.obj
 0002:0000aad4       ??_C@_04OJFMHLGL@frac?$AA@ 00472ad4     d3dx9:cparse.obj
 0002:0000aadc       ??_C@_04KEPJIHGP@fmod?$AA@ 00472adc     d3dx9:cparse.obj
 0002:0000aae4       ??_C@_05PBJFFIGL@floor?$AA@ 00472ae4     d3dx9:cparse.obj
 0002:0000aaec       ??_C@_02FAAGHLEH@Ng?$AA@   00472aec     d3dx9:cparse.obj
 0002:0000aaf0       ??_C@_01JPJNBJEM@I?$AA@    00472af0     d3dx9:cparse.obj
 0002:0000aaf4       ??_C@_01NANMIPIL@N?$AA@    00472af4     d3dx9:cparse.obj
 0002:0000aaf8       ??_C@_0M@ENCHEFMG@faceforward?$AA@ 00472af8     d3dx9:cparse.obj
 0002:0000ab04       ??_C@_04HPAFEEIN@exp2?$AA@ 00472b04     d3dx9:cparse.obj
 0002:0000ab0c       ??_C@_03GCCHHAFI@dot?$AA@  00472b0c     d3dx9:cparse.obj
 0002:0000ab10       ??_C@_08LHFODBFO@distance?$AA@ 00472b10     d3dx9:cparse.obj
 0002:0000ab1c       ??_C@_0M@OAMGFDFM@determinant?$AA@ 00472b1c     d3dx9:cparse.obj
 0002:0000ab28       ??_C@_07MHOHEFBH@degrees?$AA@ 00472b28     d3dx9:cparse.obj
 0002:0000ab30       ??_C@_05HCKPILGO@cross?$AA@ 00472b30     d3dx9:cparse.obj
 0002:0000ab38       ??_C@_04HPJJNFIM@cosh?$AA@ 00472b38     d3dx9:cparse.obj
 0002:0000ab40       ??_C@_03LALBNOCG@cos?$AA@  00472b40     d3dx9:cparse.obj
 0002:0000ab44       ??_C@_04POIGMEJN@clip?$AA@ 00472b44     d3dx9:cparse.obj
 0002:0000ab4c       ??_C@_05HADFAIAH@clamp?$AA@ 00472b4c     d3dx9:cparse.obj
 0002:0000ab54       ??_C@_04GFPJNGEK@ceil?$AA@ 00472b54     d3dx9:cparse.obj
 0002:0000ab5c       ??_C@_01EANLCPLP@y?$AA@    00472b5c     d3dx9:cparse.obj
 0002:0000ab60       ??_C@_05KNGEOGJB@atan2?$AA@ 00472b60     d3dx9:cparse.obj
 0002:0000ab68       ??_C@_04MLLJIGOK@atan?$AA@ 00472b68     d3dx9:cparse.obj
 0002:0000ab70       ??_C@_04FIHNOPOL@asin?$AA@ 00472b70     d3dx9:cparse.obj
 0002:0000ab78       ??_C@_03OBJFJEBA@any?$AA@  00472b78     d3dx9:cparse.obj
 0002:0000ab7c       ??_C@_03NFKEKGGK@all?$AA@  00472b7c     d3dx9:cparse.obj
 0002:0000ab80       ??_C@_04PDIFKINK@acos?$AA@ 00472b80     d3dx9:cparse.obj
 0002:0000ab88       ??_C@_0N@BAOCOKLF@vertexshader?$AA@ 00472b88     d3dx9:cparse.obj
 0002:0000ab98       ??_C@_0M@IFPDMPDN@pixelshader?$AA@ 00472b98     d3dx9:cparse.obj
 0002:0000aba4       ??_C@_07JDHEGGGP@texture?$AA@ 00472ba4     d3dx9:cparse.obj
 0002:0000abac       ??_C@_06ICGJLFIM@string?$AA@ 00472bac     d3dx9:cparse.obj
 0002:0000abb4       ??_C@_04HIBGFPH@NULL?$AA@  00472bb4     d3dx9:cparse.obj
 0002:0000abbc       ??_C@_06BNJCAIGJ@double?$AA@ 00472bbc     d3dx9:cparse.obj
 0002:0000abc4       ??_C@_05KNFBNCOH@float?$AA@ 00472bc4     d3dx9:cparse.obj
 0002:0000abcc       ??_C@_04GBGPFKGN@half?$AA@ 00472bcc     d3dx9:cparse.obj
 0002:0000abd4       ??_C@_03JBIPMCLC@int?$AA@  00472bd4     d3dx9:cparse.obj
 0002:0000abd8       ??_C@_04DDKJGDCM@bool?$AA@ 00472bd8     d3dx9:cparse.obj
 0002:0000acc8       ??_C@_06KLBDMJOP@Values?$AA@ 00472cc8     d3dx9:cparse.obj
 0002:0000acd0       ??_C@_04BBDAIEHH@pass?$AA@ 00472cd0     d3dx9:cparse.obj
 0002:0000acd8       ??_C@_09IDNELGEE@techinque?$AA@ 00472cd8     d3dx9:cparse.obj
 0002:0000ace4       ??_C@_08HFFPPCHF@function?$AA@ 00472ce4     d3dx9:cparse.obj
 0002:0000acf0       ??_C@_08LODIKCGI@variable?$AA@ 00472cf0     d3dx9:cparse.obj
 0002:0000acfc       ??_C@_04GPMDFGEJ@type?$AA@ 00472cfc     d3dx9:cparse.obj
 0002:0000ad04       ??_C@_0BL@IPAJHPPO@undeclared?5identifier?5?8?$CFs?8?$AA@ 00472d04     d3dx9:cparse.obj
 0002:0000ad20       ??_C@_06CGNOPMBC@matrix?$AA@ 00472d20     d3dx9:cparse.obj
 0002:0000ad28       ??_C@_06NBFPPGEG@vector?$AA@ 00472d28     d3dx9:cparse.obj
 0002:0000ad30       ??_C@_05KDALNKAH@dword?$AA@ 00472d30     d3dx9:cparse.obj
 0002:0000ad38       ??_C@_0CL@KELEHCEJ@?8?$CFs?8?3?5identifier?5represents?5a?5?$CFs@ 00472d38     d3dx9:cparse.obj
 0002:0000ad78       ??_C@_0BO@GDHIOAFG@?8?$CFs?8?3?5ambiguous?5function?5call?$AA@ 00472d78     d3dx9:cparse.obj
 0002:0000ad98       ??_C@_0IO@GOIFJIBG@?8?$CFs?8?3?5loop?5control?5variable?5used@ 00472d98     d3dx9:cparse.obj
 0002:0000ae28       ??_C@_04NNKAIPAK@proj?$AA@ 00472e28     d3dx9:cpslegacyprogram.obj
 0002:0000ae30       ??_C@_07JMFDKBIJ@texCube?$AA@ 00472e30     d3dx9:cpslegacyprogram.obj
 0002:0000ba98       ??_C@_07OJOPHEAL@SPECIAL?$AA@ 00473a98     d3dx9:cpslegacyprogram.obj
 0002:0000baa0       ??_C@_04KGKHEGKM@VOID?$AA@ 00473aa0     d3dx9:cpslegacyprogram.obj
 0002:0000bcac       ??_C@_0CL@OCGBAKPF@Application?5transferred?5too?5many@ 00473cac     d3dx9:jerror.obj
 0002:0000bcd8       ??_C@_0CL@BAKCGOKJ@Invalid?5SOS?5parameters?5for?5seque@ 00473cd8     d3dx9:jerror.obj
 0002:0000bd04       ??_C@_0DI@NFMBADOH@Corrupt?5JPEG?5data?3?5found?5marker?5@ 00473d04     d3dx9:jerror.obj
 0002:0000bd3c       ??_C@_0BL@DPFPFMLM@Premature?5end?5of?5JPEG?5file?$AA@ 00473d3c     d3dx9:jerror.obj
 0002:0000bd58       ??_C@_0CO@ODCCEDLN@Warning?3?5unknown?5JFIF?5revision?5n@ 00473d58     d3dx9:jerror.obj
 0002:0000bd88       ??_C@_0CE@PBLDOPKB@Corrupt?5JPEG?5data?3?5bad?5Huffman?5c@ 00473d88     d3dx9:jerror.obj
 0002:0000bdac       ??_C@_0DB@PGMEPGHN@Corrupt?5JPEG?5data?3?5premature?5end@ 00473dac     d3dx9:jerror.obj
 0002:0000bde0       ??_C@_0DM@PCOGCKJB@Corrupt?5JPEG?5data?3?5?$CFu?5extraneous@ 00473de0     d3dx9:jerror.obj
 0002:0000be20       ??_C@_0EC@CBCJOINE@Inconsistent?5progression?5sequenc@ 00473e20     d3dx9:jerror.obj
 0002:0000be64       ??_C@_0CG@KEGHCDOM@Unknown?5Adobe?5color?5transform?5co@ 00473e64     d3dx9:jerror.obj
 0002:0000be8c       ??_C@_0BH@LJLGPEFF@Obtained?5XMS?5handle?5?$CFu?$AA@ 00473e8c     d3dx9:jerror.obj
 0002:0000bea4       ??_C@_0BE@FOGGKKAO@Freed?5XMS?5handle?5?$CFu?$AA@ 00473ea4     d3dx9:jerror.obj
 0002:0000beb8       ??_C@_0DE@EEJCDLOO@Unrecognized?5component?5IDs?5?$CFd?5?$CFd@ 00473eb8     d3dx9:jerror.obj
 0002:0000beec       ??_C@_0DG@FCFDGNHE@JFIF?5extension?5marker?3?5RGB?5thumb@ 00473eec     d3dx9:jerror.obj
 0002:0000bf24       ??_C@_0DK@JGAPDCJL@JFIF?5extension?5marker?3?5palette?5t@ 00473f24     d3dx9:jerror.obj
 0002:0000bf60       ??_C@_0EC@ELDEPOJP@JFIF?5extension?5marker?3?5JPEG?9comp@ 00473f60     d3dx9:jerror.obj
 0002:0000bfa4       ??_C@_0BJ@GOCABEP@Opened?5temporary?5file?5?$CFs?$AA@ 00473fa4     d3dx9:jerror.obj
 0002:0000bfc0       ??_C@_0BJ@KDCGAOJB@Closed?5temporary?5file?5?$CFs?$AA@ 00473fc0     d3dx9:jerror.obj
 0002:0000bfdc       ??_C@_0BN@GAMIJLDC@?5?5Ss?$DN?$CFd?0?5Se?$DN?$CFd?0?5Ah?$DN?$CFd?0?5Al?$DN?$CFd?$AA@ 00473fdc     d3dx9:jerror.obj
 0002:0000bffc       ??_C@_0BO@CDEKFGLC@?5?5?5?5Component?5?$CFd?3?5dc?$DN?$CFd?5ac?$DN?$CFd?$AA@ 00473ffc     d3dx9:jerror.obj
 0002:0000c01c       ??_C@_0BN@BLOOHNC@Start?5Of?5Scan?3?5?$CFd?5components?$AA@ 0047401c     d3dx9:jerror.obj
 0002:0000c03c       ??_C@_0P@JLCHJELA@Start?5of?5Image?$AA@ 0047403c     d3dx9:jerror.obj
 0002:0000c04c       ??_C@_0BP@EDCAMHHE@?5?5?5?5Component?5?$CFd?3?5?$CFdhx?$CFdv?5q?$DN?$CFd?$AA@ 0047404c     d3dx9:jerror.obj
 0002:0000c06c       ??_C@_0DK@DMINKOGN@Start?5Of?5Frame?50x?$CF02x?3?5width?$DN?$CFu?0@ 0047406c     d3dx9:jerror.obj
 0002:0000c0a8       ??_C@_0DJ@PCBCLFML@Smoothing?5not?5supported?5with?5non@ 004740a8     d3dx9:jerror.obj
 0002:0000c0e4       ??_C@_05LLAPAOG@RST?$CFd?$AA@ 004740e4     d3dx9:jerror.obj
 0002:0000c0ec       ??_C@_0CF@NIMOLBCP@At?5marker?50x?$CF02x?0?5recovery?5actio@ 004740ec     d3dx9:jerror.obj
 0002:0000c114       ??_C@_0CE@FDPBEAOO@Selected?5?$CFd?5colors?5for?5quantizat@ 00474114     d3dx9:jerror.obj
 0002:0000c138       ??_C@_0BI@NEIBNACE@Quantizing?5to?5?$CFd?5colors?$AA@ 00474138     d3dx9:jerror.obj
 0002:0000c150       ??_C@_0CD@CNNAOOFA@Quantizing?5to?5?$CFd?5?$DN?5?$CFd?$CK?$CFd?$CK?$CFd?5colo@ 00474150     d3dx9:jerror.obj
 0002:0000c174       ??_C@_0CI@GHPOCOCL@?5?5?5?5?5?5?5?5?$CF4u?5?$CF4u?5?$CF4u?5?$CF4u?5?$CF4u?5?$CF4u?5@ 00474174     d3dx9:jerror.obj
 0002:0000c19c       ??_C@_0BJ@COPODLDN@Unexpected?5marker?50x?$CF02x?$AA@ 0047419c     d3dx9:jerror.obj
 0002:0000c1b8       ??_C@_0CH@EHHJCMGA@Miscellaneous?5marker?50x?$CF02x?0?5len@ 004741b8     d3dx9:jerror.obj
 0002:0000c1e0       ??_C@_0CB@BADBMAAB@?5?5?5?5with?5?$CFd?5x?5?$CFd?5thumbnail?5image@ 004741e0     d3dx9:jerror.obj
 0002:0000c204       ??_C@_0CO@KKPHGHBA@JFIF?5extension?5marker?3?5type?50x?$CF0@ 00474204     d3dx9:jerror.obj
 0002:0000c234       ??_C@_0DM@JLHNPIBE@Warning?3?5thumbnail?5image?5size?5do@ 00474234     d3dx9:jerror.obj
 0002:0000c270       ??_C@_0DF@LOKNABIG@JFIF?5APP0?5marker?3?5version?5?$CFd?4?$CF02@ 00474270     d3dx9:jerror.obj
 0002:0000c2a8       ??_C@_0CI@FKGPAJC@?5?5?5?5?5?5?5?5?$CF3d?5?$CF3d?5?$CF3d?5?$CF3d?5?$CF3d?5?$CF3d?5@ 004742a8     d3dx9:jerror.obj
 0002:0000c2d0       ??_C@_0N@HJHFKELG@End?5Of?5Image?$AA@ 004742d0     d3dx9:jerror.obj
 0002:0000c2e0       ??_C@_0BH@GIPOLIGC@Obtained?5EMS?5handle?5?$CFu?$AA@ 004742e0     d3dx9:jerror.obj
 0002:0000c2f8       ??_C@_0BE@IPCOOGDJ@Freed?5EMS?5handle?5?$CFu?$AA@ 004742f8     d3dx9:jerror.obj
 0002:0000c30c       ??_C@_0BL@EMFIKBEK@Define?5Restart?5Interval?5?$CFu?$AA@ 0047430c     d3dx9:jerror.obj
 0002:0000c328       ??_C@_0CL@KLDOJIKN@Define?5Quantization?5Table?5?$CFd?5?5pr@ 00474328     d3dx9:jerror.obj
 0002:0000c354       ??_C@_0BM@MDIEILCE@Define?5Huffman?5Table?50x?$CF02x?$AA@ 00474354     d3dx9:jerror.obj
 0002:0000c370       ??_C@_0CH@KIJGKPAA@Define?5Arithmetic?5Table?50x?$CF02x?3?5@ 00474370     d3dx9:jerror.obj
 0002:0000c398       ??_C@_0CM@CAEPHFAA@Unknown?5APP14?5marker?5?$CInot?5Adobe?$CJ@ 00474398     d3dx9:jerror.obj
 0002:0000c3c4       ??_C@_0CK@HCPFFNKJ@Unknown?5APP0?5marker?5?$CInot?5JFIF?$CJ?0?5@ 004743c4     d3dx9:jerror.obj
 0002:0000c3f0       ??_C@_0EC@EHPKAOHA@Adobe?5APP14?5marker?3?5version?5?$CFd?0?5@ 004743f0     d3dx9:jerror.obj
 0002:0000c434       ??_C@_0DO@EGLODMBB@Caution?3?5quantization?5tables?5are@ 00474434     d3dx9:jerror.obj
 0002:0000c474       ??_C@_0BA@LIJBPGPA@6b?5?527?9Mar?91998?$AA@ 00474474     d3dx9:jerror.obj
 0002:0000c484       ??_C@_0CD@IMBKIDCD@Copyright?5?$CIC?$CJ?51998?0?5Thomas?5G?4?5La@ 00474484     d3dx9:jerror.obj
 0002:0000c4a8       ??_C@_0BE@FDPDCBIN@Write?5to?5XMS?5failed?$AA@ 004744a8     d3dx9:jerror.obj
 0002:0000c4bc       ??_C@_0BF@EKLGFGNM@Read?5from?5XMS?5failed?$AA@ 004744bc     d3dx9:jerror.obj
 0002:0000c4d4       ??_C@_0CH@LJLHCCHC@Image?5too?5wide?5for?5this?5implemen@ 004744d4     d3dx9:jerror.obj
 0002:0000c4fc       ??_C@_0CD@GCLFJCHC@Virtual?5array?5controller?5messed?5@ 004744fc     d3dx9:jerror.obj
 0002:0000c520       ??_C@_0BP@BPKOBOIP@Unsupported?5marker?5type?50x?$CF02x?$AA@ 00474520     d3dx9:jerror.obj
 0002:0000c540       ??_C@_0CK@EPADOAKC@Application?5transferred?5too?5few?5@ 00474540     d3dx9:jerror.obj
 0002:0000c56c       ??_C@_0DG@KALDLIJB@Write?5failed?5on?5temporary?5file?5?9@ 0047456c     d3dx9:jerror.obj
 0002:0000c5a4       ??_C@_0BO@GOBJOAAI@Seek?5failed?5on?5temporary?5file?$AA@ 004745a4     d3dx9:jerror.obj
 0002:0000c5c4       ??_C@_0BO@EEPJGHHI@Read?5failed?5on?5temporary?5file?$AA@ 004745c4     d3dx9:jerror.obj
 0002:0000c5e4       ??_C@_0CD@POKNOPOF@Failed?5to?5create?5temporary?5file?5@ 004745e4     d3dx9:jerror.obj
 0002:0000c608       ??_C@_0CM@HONLBDPH@Invalid?5JPEG?5file?5structure?3?5SOS@ 00474608     d3dx9:jerror.obj
 0002:0000c634       ??_C@_0CN@HGJCMLNE@Invalid?5JPEG?5file?5structure?3?5two@ 00474634     d3dx9:jerror.obj
 0002:0000c664       ??_C@_0CK@HMKECJK@Unsupported?5JPEG?5process?3?5SOF?5ty@ 00474664     d3dx9:jerror.obj
 0002:0000c690       ??_C@_0DA@GJIJGINK@Invalid?5JPEG?5file?5structure?3?5mis@ 00474690     d3dx9:jerror.obj
 0002:0000c6c0       ??_C@_0CN@IHJJJAFJ@Invalid?5JPEG?5file?5structure?3?5two@ 004746c0     d3dx9:jerror.obj
 0002:0000c6f0       ??_C@_0CH@NHMNHHIB@Cannot?5quantize?5to?5more?5than?5?$CFd?5@ 004746f0     d3dx9:jerror.obj
 0002:0000c718       ??_C@_0CI@PLMPLCNO@Cannot?5quantize?5to?5fewer?5than?5?$CFd@ 00474718     d3dx9:jerror.obj
 0002:0000c740       ??_C@_0CO@HPDBAEEA@Cannot?5quantize?5more?5than?5?$CFd?5col@ 00474740     d3dx9:jerror.obj
 0002:0000c770       ??_C@_0BO@DJPLELIB@Insufficient?5memory?5?$CIcase?5?$CFd?$CJ?$AA@ 00474770     d3dx9:jerror.obj
 0002:0000c790       ??_C@_0CL@GNLFDFCL@Not?5a?5JPEG?5file?3?5starts?5with?50x?$CF@ 00474790     d3dx9:jerror.obj
 0002:0000c7bc       ??_C@_0CK@CCHKIENB@Quantization?5table?50x?$CF02x?5was?5no@ 004747bc     d3dx9:jerror.obj
 0002:0000c7e8       ??_C@_0CC@BKPLBDLJ@JPEG?5datastream?5contains?5no?5imag@ 004747e8     d3dx9:jerror.obj
 0002:0000c80c       ??_C@_0CF@BKANFCCL@Huffman?5table?50x?$CF02x?5was?5not?5def@ 0047480c     d3dx9:jerror.obj
 0002:0000c834       ??_C@_0BM@HJHFKLAF@Backing?5store?5not?5supported?$AA@ 00474834     d3dx9:jerror.obj
 0002:0000c850       ??_C@_0CO@BEHINNOI@Requested?5feature?5was?5omitted?5at@ 00474850     d3dx9:jerror.obj
 0002:0000c880       ??_C@_0BE@EOAAHHJ@Not?5implemented?5yet?$AA@ 00474880     d3dx9:jerror.obj
 0002:0000c894       ??_C@_0CH@EFBBPPCK@Invalid?5color?5quantization?5mode?5@ 00474894     d3dx9:jerror.obj
 0002:0000c8bc       ??_C@_0CH@NIBDNILP@Scan?5script?5does?5not?5transmit?5al@ 004748bc     d3dx9:jerror.obj
 0002:0000c8e4       ??_C@_0DO@OPNPKGO@Cannot?5transcode?5due?5to?5multiple@ 004748e4     d3dx9:jerror.obj
 0002:0000c924       ??_C@_0BM@KEKMMNGA@Premature?5end?5of?5input?5file?$AA@ 00474924     d3dx9:jerror.obj
 0002:0000c940       ??_C@_0BB@JJAIKFBB@Empty?5input?5file?$AA@ 00474940     d3dx9:jerror.obj
 0002:0000c954       ??_C@_0CP@EKFPGPNP@Maximum?5supported?5image?5dimensio@ 00474954     d3dx9:jerror.obj
 0002:0000c984       ??_C@_0CB@LFBMFPHI@Missing?5Huffman?5code?5table?5entry@ 00474984     d3dx9:jerror.obj
 0002:0000c9a8       ??_C@_0CB@LLDOGNPJ@Huffman?5code?5size?5table?5overflow@ 004749a8     d3dx9:jerror.obj
 0002:0000c9cc       ??_C@_0CI@EKDDDHFF@Fractional?5sampling?5not?5implemen@ 004749cc     d3dx9:jerror.obj
 0002:0000c9f4       ??_C@_0CP@IDOBLGGD@Output?5file?5write?5error?5?9?9?9?5out?5@ 004749f4     d3dx9:jerror.obj
 0002:0000ca24       ??_C@_0BG@BALCKDNL@Input?5file?5read?5error?$AA@ 00474a24     d3dx9:jerror.obj
 0002:0000ca3c       ??_C@_0CB@DMGINPNE@Didn?8t?5expect?5more?5than?5one?5scan@ 00474a3c     d3dx9:jerror.obj
 0002:0000ca60       ??_C@_0BE@DGJBKIEB@Write?5to?5EMS?5failed?$AA@ 00474a60     d3dx9:jerror.obj
 0002:0000ca74       ??_C@_0BF@CPNENPBA@Read?5from?5EMS?5failed?$AA@ 00474a74     d3dx9:jerror.obj
 0002:0000ca8c       ??_C@_0CF@DAGGEAPM@Empty?5JPEG?5image?5?$CIDNL?5not?5suppor@ 00474a8c     d3dx9:jerror.obj
 0002:0000cab4       ??_C@_0BD@DIMECAOP@Bogus?5DQT?5index?5?$CFd?$AA@ 00474ab4     d3dx9:jerror.obj
 0002:0000cac8       ??_C@_0BD@KJHFPHIC@Bogus?5DHT?5index?5?$CFd?$AA@ 00474ac8     d3dx9:jerror.obj
 0002:0000cadc       ??_C@_0BF@CLIOOJFM@Bogus?5DAC?5value?50x?$CFx?$AA@ 00474adc     d3dx9:jerror.obj
 0002:0000caf4       ??_C@_0BD@LDBBBMFL@Bogus?5DAC?5index?5?$CFd?$AA@ 00474af4     d3dx9:jerror.obj
 0002:0000cb08       ??_C@_0CF@JDLOPNGO@Unsupported?5color?5conversion?5req@ 00474b08     d3dx9:jerror.obj
 0002:0000cb30       ??_C@_0CG@BEBDNOCG@Too?5many?5color?5components?3?5?$CFd?0?5m@ 00474b30     d3dx9:jerror.obj
 0002:0000cb58       ??_C@_0CF@LAEFHNAH@CCIR601?5sampling?5not?5implemented@ 00474b58     d3dx9:jerror.obj
 0002:0000cb80       ??_C@_0BM@PKHCPJDH@Suspension?5not?5allowed?5here?$AA@ 00474b80     d3dx9:jerror.obj
 0002:0000cb9c       ??_C@_0CL@JKHIPJLJ@Buffer?5passed?5to?5JPEG?5library?5is@ 00474b9c     d3dx9:jerror.obj
 0002:0000cbc8       ??_C@_0BL@CBOEEPLK@Bogus?5virtual?5array?5access?$AA@ 00474bc8     d3dx9:jerror.obj
 0002:0000cbe8       ??_C@_0EN@DKAEGIBH@JPEG?5parameter?5struct?5mismatch?3?5@ 00474be8     d3dx9:jerror.obj
 0002:0000cc38       ??_C@_0CK@BAMFIBMM@Improper?5call?5to?5JPEG?5library?5in@ 00474c38     d3dx9:jerror.obj
 0002:0000cc64       ??_C@_0CA@MJDDICLK@Invalid?5scan?5script?5at?5entry?5?$CFd?$AA@ 00474c64     d3dx9:jerror.obj
 0002:0000cc84       ??_C@_0BH@HMMHPOPE@Bogus?5sampling?5factors?$AA@ 00474c84     d3dx9:jerror.obj
 0002:0000cc9c       ??_C@_0DH@HIKEGPKP@Invalid?5progressive?5parameters?5a@ 00474c9c     d3dx9:jerror.obj
 0002:0000ccd4       ??_C@_0DH@LNGGEGOL@Invalid?5progressive?5parameters?5S@ 00474cd4     d3dx9:jerror.obj
 0002:0000cd0c       ??_C@_0CD@LDBDNLHK@Unsupported?5JPEG?5data?5precision?5@ 00474d0c     d3dx9:jerror.obj
 0002:0000cd30       ??_C@_0BM@OEMICEFD@Invalid?5memory?5pool?5code?5?$CFd?$AA@ 00474d30     d3dx9:jerror.obj
 0002:0000cd4c       ??_C@_0DA@HLEOHNPA@Sampling?5factors?5too?5large?5for?5i@ 00474d4c     d3dx9:jerror.obj
 0002:0000cd7c       ??_C@_0DN@ELFKFKL@Wrong?5JPEG?5library?5version?3?5libr@ 00474d7c     d3dx9:jerror.obj
 0002:0000cdbc       ??_C@_0BE@OGLAEMOG@Bogus?5marker?5length?$AA@ 00474dbc     d3dx9:jerror.obj
 0002:0000cdd0       ??_C@_0BG@NEGIHEMC@Bogus?5JPEG?5colorspace?$AA@ 00474dd0     d3dx9:jerror.obj
 0002:0000cde8       ??_C@_0BH@BGDIGLHC@Bogus?5input?5colorspace?$AA@ 00474de8     d3dx9:jerror.obj
 0002:0000ce00       ??_C@_0BP@EOFJNLFD@Bogus?5Huffman?5table?5definition?$AA@ 00474e00     d3dx9:jerror.obj
 0002:0000ce20       ??_C@_0CI@MBJANLAP@IDCT?5output?5block?5size?5?$CFd?5not?5su@ 00474e20     d3dx9:jerror.obj
 0002:0000ce48       ??_C@_0BN@OJEJKKDL@DCT?5coefficient?5out?5of?5range?$AA@ 00474e48     d3dx9:jerror.obj
 0002:0000ce68       ??_C@_0BP@ONFLCDHG@Invalid?5component?5ID?5?$CFd?5in?5SOS?$AA@ 00474e68     d3dx9:jerror.obj
 0002:0000ce88       ??_C@_0BK@DKALDNKG@Bogus?5buffer?5control?5mode?$AA@ 00474e88     d3dx9:jerror.obj
 0002:0000cea4       ??_C@_0CF@DENLILGA@MAX_ALLOC_CHUNK?5is?5wrong?0?5please@ 00474ea4     d3dx9:jerror.obj
 0002:0000cecc       ??_C@_0CA@FDMPGPNI@ALIGN_TYPE?5is?5wrong?0?5please?5fix?$AA@ 00474ecc     d3dx9:jerror.obj
 0002:0000ceec       ??_C@_0DJ@KONAFFHE@Sorry?0?5there?5are?5legal?5restricti@ 00474eec     d3dx9:jerror.obj
 0002:0000cf28       ??_C@_0BG@MIBALFBH@Bogus?5message?5code?5?$CFd?$AA@ 00474f28     d3dx9:jerror.obj
 0002:0000cfcc       ??_C@_0BD@LBMCPKOE@zlib?5version?5error?$AA@ 00474fcc     d3dx9:pngread.obj
 0002:0000cfe0       ??_C@_0BC@MCPIPOGP@zlib?5memory?5error?$AA@ 00474fe0     d3dx9:pngread.obj
 0002:0000cff4       ??_C@_0BD@CPDHIJBA@Unknown?5zlib?5error?$AA@ 00474ff4     d3dx9:pngread.obj
 0002:0000d008       ??_C@_05DOIEBMOI@1?41?44?$AA@ 00475008     d3dx9:pngread.obj
 0002:0000d010       ??_C@_0DH@LDFDLODO@Incompatible?5libpng?5version?5in?5a@ 00475010     d3dx9:pngread.obj
 0002:0000d048       ??_C@_0BJ@LAKDHAPN@Missing?5PLTE?5before?5IDAT?$AA@ 00475048     d3dx9:pngread.obj
 0002:0000d064       ??_C@_0BJ@FFGICIDJ@Missing?5IHDR?5before?5IDAT?$AA@ 00475064     d3dx9:pngread.obj
 0002:0000d080       ??_C@_0CH@NMANOLCN@PNG?5file?5corrupted?5by?5ASCII?5conv@ 00475080     d3dx9:pngread.obj
 0002:0000d0a8       ??_C@_0P@KIMIGLKH@Not?5a?5PNG?5file?$AA@ 004750a8     d3dx9:pngread.obj
 0002:0000d0b8       ??_C@_0BG@OKGHHCLP@Extra?5compressed?5data?$AA@ 004750b8     d3dx9:pngread.obj
 0002:0000d0d0       ??_C@_0BE@JMOGBNJB@Decompression?5error?$AA@ 004750d0     d3dx9:pngread.obj
 0002:0000d0e4       ??_C@_0BG@EIEOOJHA@Not?5enough?5image?5data?$AA@ 004750e4     d3dx9:pngread.obj
 0002:0000d0fc       ??_C@_0CB@KCPNIGFM@Invalid?5attempt?5to?5read?5row?5data@ 004750fc     d3dx9:pngread.obj
 0002:0000d120       ??_C@_0DC@MHGEAIEM@Width?5too?5large?5for?5libpng?5to?5pr@ 00475120     d3dx9:pngget.obj
 0002:0000d158       __real@3fa999999999999a    00475158     d3dx9:pngrtran.obj
 0002:0000d160       __real@40efffe000000000    00475160     d3dx9:pngrtran.obj
 0002:0000d168       __real@3ef0001000100010    00475168     d3dx9:pngrtran.obj
 0002:0000d170       __real@3f70000000000000    00475170     d3dx9:pngrtran.obj
 0002:0000d178       ??_C@_0CC@JEAKIKEF@png_do_dither?5returned?5rowbytes?$DN@ 00475178     d3dx9:pngrtran.obj
 0002:0000d19c       ??_C@_0BA@DBGPKIA@NULL?5row?5buffer?$AA@ 0047519c     d3dx9:pngrtran.obj
 0002:0000d1ac       ??_C@_0DP@GHHOJINM@Width?5too?5large?5to?5process?5image@ 004751ac     d3dx9:pngset.obj
 0002:0000d1f0       __real@3fdd1758e0000000    004751f0     d3dx9:pngset.obj
 0002:0000d1f8       ??_C@_0BL@GPADEDKN@Call?5to?5NULL?5read?5function?$AA@ 004751f8     d3dx9:pngrio.obj
 0002:0000d214       ??_C@_0DC@EOBOCMJO@same?5structure?4?5?5Resetting?5write@ 00475214     d3dx9:pngrio.obj
 0002:0000d248       ??_C@_0EB@NJKELLKM@It?8s?5an?5error?5to?5set?5both?5read_d@ 00475248     d3dx9:pngrio.obj
 0002:0000d294       __real@3b800000            00475294     d3dx9:dxtn.obj
 0002:0000d30c       __real@39800000            0047530c     d3dx9:dxtn.obj
 0002:0000d348       __real@3f2aaaab            00475348     d3dx9:dxtn.obj
 0002:0000d368       __real@3ea00000            00475368     d3dx9:dxtn.obj
 0002:0000d36c       __real@3e400000            0047536c     d3dx9:dxtn.obj
 0002:0000d370       __real@3ee00000            00475370     d3dx9:dxtn.obj
 0002:0000d374       __real@3e4ccccd            00475374     d3dx9:dxtn.obj
 0002:0000d418       ??_C@_0BG@LMLMDOEO@D3DX9?5Shader?5Compiler?$AA@ 00475418     d3dx9:cshaderprogram.obj
 0002:0000d8e0       ?jpeg_natural_order@D3DX@@3QBHB 004758e0     d3dx9:jutils.obj
 0002:0000da24       ??_C@_0BA@MOKMMFOD@need?5dictionary?$AA@ 00475a24     d3dx9:inflate.obj
 0002:0000da34       ??_C@_0BF@MEIGEHBE@incorrect?5data?5check?$AA@ 00475a34     d3dx9:inflate.obj
 0002:0000da4c       ??_C@_0BH@LIBMMIGA@incorrect?5header?5check?$AA@ 00475a4c     d3dx9:inflate.obj
 0002:0000da64       ??_C@_0BE@EMOGCLGO@invalid?5window?5size?$AA@ 00475a64     d3dx9:inflate.obj
 0002:0000da78       ??_C@_0BL@IHKGDAEE@unknown?5compression?5method?$AA@ 00475a78     d3dx9:inflate.obj
 0002:0000da94       ??_C@_0O@BPALFKAJ@Out?5of?5Memory?$AA@ 00475a94     d3dx9:pngmem.obj
 0002:0000db1c       ??_C@_0BD@GFBMLKLH@invalid?5chunk?5type?$AA@ 00475b1c     d3dx9:pngrutil.obj
 0002:0000db30       ??_C@_0CC@FECADCN@Ignoring?5bad?5adaptive?5filter?5typ@ 00475b30     d3dx9:pngrutil.obj
 0002:0000db54       ??_C@_09BJGMGMHA@CRC?5error?$AA@ 00475b54     d3dx9:pngrutil.obj
 0002:0000db60       ??_C@_0BO@KOOEGEDO@Unknown?5filter?5method?5in?5IHDR?$AA@ 00475b60     d3dx9:pngrutil.obj
 0002:0000db80       ??_C@_0CD@DDOOCEDP@Unknown?5compression?5method?5in?5IH@ 00475b80     d3dx9:pngrutil.obj
 0002:0000dba4       ??_C@_0CB@EMHJMLOA@Unknown?5interlace?5method?5in?5IHDR@ 00475ba4     d3dx9:pngrutil.obj
 0002:0000dbc8       ??_C@_0DB@FGMBGHOJ@Invalid?5color?5type?1bit?5depth?5com@ 00475bc8     d3dx9:pngrutil.obj
 0002:0000dbfc       ??_C@_0BL@KPIFPGMP@Invalid?5color?5type?5in?5IHDR?$AA@ 00475bfc     d3dx9:pngrutil.obj
 0002:0000dc18       ??_C@_0BK@OAKOLNFJ@Invalid?5bit?5depth?5in?5IHDR?$AA@ 00475c18     d3dx9:pngrutil.obj
 0002:0000dc34       ??_C@_0BL@PKEOJJBA@Invalid?5image?5size?5in?5IHDR?$AA@ 00475c34     d3dx9:pngrutil.obj
 0002:0000dc50       ??_C@_0BD@CLODLFAN@Invalid?5IHDR?5chunk?$AA@ 00475c50     d3dx9:pngrutil.obj
 0002:0000dc64       ??_C@_0BC@KBAKFAAH@Out?5of?5place?5IHDR?$AA@ 00475c64     d3dx9:pngrutil.obj
 0002:0000dc78       ??_C@_0CH@GNNEJFAH@Truncating?5incorrect?5tRNS?5chunk?5@ 00475c78     d3dx9:pngrutil.obj
 0002:0000dca0       ??_C@_0BG@HHEHMEJK@Invalid?5palette?5chunk?$AA@ 00475ca0     d3dx9:pngrutil.obj
 0002:0000dcb8       ??_C@_0BF@PMKDIIMG@Duplicate?5PLTE?5chunk?$AA@ 00475cb8     d3dx9:pngrutil.obj
 0002:0000dcd0       ??_C@_0BI@GEKPHPN@Invalid?5PLTE?5after?5IDAT?$AA@ 00475cd0     d3dx9:pngrutil.obj
 0002:0000dce8       ??_C@_0BJ@LEBILHKO@Missing?5IHDR?5before?5PLTE?$AA@ 00475ce8     d3dx9:pngrutil.obj
 0002:0000dd04       ??_C@_0BM@PFCLLCBO@Incorrect?5IEND?5chunk?5length?$AA@ 00475d04     d3dx9:pngrutil.obj
 0002:0000dd20       ??_C@_0BB@BLPFHNNN@No?5image?5in?5file?$AA@ 00475d20     d3dx9:pngrutil.obj
 0002:0000dd34       ??_C@_0DI@KINMKNNO@Ignoring?5incorrect?5gAMA?5value?5wh@ 00475d34     d3dx9:pngrutil.obj
 0002:0000dd70       __real@407f400000000000    00475d70     d3dx9:pngrutil.obj
 0002:0000dd78       __real@40e631e000000000    00475d78     d3dx9:pngrutil.obj
 0002:0000dd80       ??_C@_0BF@IMCFKHDJ@Duplicate?5gAMA?5chunk?$AA@ 00475d80     d3dx9:pngrutil.obj
 0002:0000dd98       ??_C@_0BI@JEEHFLME@Out?5of?5place?5gAMA?5chunk?$AA@ 00475d98     d3dx9:pngrutil.obj
 0002:0000ddb0       ??_C@_0BI@POPIJBNN@Invalid?5gAMA?5after?5IDAT?$AA@ 00475db0     d3dx9:pngrutil.obj
 0002:0000ddc8       ??_C@_0BM@NIAHDFBB@Incorrect?5gAMA?5chunk?5length?$AA@ 00475dc8     d3dx9:pngrutil.obj
 0002:0000dde4       ??_C@_0BJ@CCOIFGBO@Missing?5IHDR?5before?5gAMA?$AA@ 00475de4     d3dx9:pngrutil.obj
 0002:0000de00       __real@47c35000            00475e00     d3dx9:pngrutil.obj
 0002:0000de04       ??_C@_0BE@CEGOJHBA@Unknown?5sRGB?5intent?$AA@ 00475e04     d3dx9:pngrutil.obj
 0002:0000de18       ??_C@_0BF@EFDCKHOG@Duplicate?5sRGB?5chunk?$AA@ 00475e18     d3dx9:pngrutil.obj
 0002:0000de30       ??_C@_0BI@FNFAFLBL@Out?5of?5place?5sRGB?5chunk?$AA@ 00475e30     d3dx9:pngrutil.obj
 0002:0000de48       ??_C@_0BI@PGAMKAKH@Invalid?5sRGB?5after?5IDAT?$AA@ 00475e48     d3dx9:pngrutil.obj
 0002:0000de60       ??_C@_0BM@FMAJKMKD@Incorrect?5sRGB?5chunk?5length?$AA@ 00475e60     d3dx9:pngrutil.obj
 0002:0000de7c       ??_C@_0BJ@NDJOEJDI@Missing?5IHDR?5before?5sRGB?$AA@ 00475e7c     d3dx9:pngrutil.obj
 0002:0000de98       ??_C@_0CK@JMGMOHJA@tRNS?5chunk?5not?5allowed?5with?5alph@ 00475e98     d3dx9:pngrutil.obj
 0002:0000dec4       ??_C@_0BM@JNMFOMLO@Incorrect?5tRNS?5chunk?5length?$AA@ 00475ec4     d3dx9:pngrutil.obj
 0002:0000dee0       ??_C@_0BF@HALLDFIL@Duplicate?5tRNS?5chunk?$AA@ 00475ee0     d3dx9:pngrutil.obj
 0002:0000def8       ??_C@_0BI@MMDCNIMN@Invalid?5tRNS?5after?5IDAT?$AA@ 00475ef8     d3dx9:pngrutil.obj
 0002:0000df10       ??_C@_0BH@JJNMONHM@Zero?5length?5tRNS?5chunk?$AA@ 00475f10     d3dx9:pngrutil.obj
 0002:0000df28       ??_C@_0BJ@NIHNNFHD@Missing?5PLTE?5before?5tRNS?$AA@ 00475f28     d3dx9:pngrutil.obj
 0002:0000df44       ??_C@_0BJ@DNLGINLH@Missing?5IHDR?5before?5tRNS?$AA@ 00475f44     d3dx9:pngrutil.obj
 0002:0000df60       ??_C@_0BH@OMJPKJPP@unknown?5critical?5chunk?$AA@ 00475f60     d3dx9:pngrutil.obj
 0002:0000df78       ??_C@_0BH@KJLLHDND@Extra?5compression?5data?$AA@ 00475f78     d3dx9:pngrutil.obj
 0002:0000df90       ??_C@_0BE@JLEKBIKH@Decompression?5Error?$AA@ 00475f90     d3dx9:pngrutil.obj
 0002:0000e914       ??_C@_0BK@BMMPFBBH@invalid?5bit?5length?5repeat?$AA@ 00476914     d3dx9:infblock.obj
 0002:0000e930       ??_C@_0CE@GMIGFPBB@too?5many?5length?5or?5distance?5symb@ 00476930     d3dx9:infblock.obj
 0002:0000e954       ??_C@_0BN@LGAADGOK@invalid?5stored?5block?5lengths?$AA@ 00476954     d3dx9:infblock.obj
 0002:0000e974       ??_C@_0BD@PJCBIDD@invalid?5block?5type?$AA@ 00476974     d3dx9:infblock.obj
 0002:0000e988       __real@3f8a8bd4            00476988     d3dx9:jidctflt.obj
 0002:0000e98c       __real@40273d75            0047698c     d3dx9:jidctflt.obj
 0002:0000e990       __real@3fec835e            00476990     d3dx9:jidctflt.obj
 0002:0000e994       __real@3fb504f3            00476994     d3dx9:jidctflt.obj
 0002:0000ead0       ??_C@_0BG@LBKINIKP@invalid?5distance?5code?$AA@ 00476ad0     d3dx9:infcodes.obj
 0002:0000eae8       ??_C@_0BM@FFFLPBBC@invalid?5literal?1length?5code?$AA@ 00476ae8     d3dx9:infcodes.obj
 0002:0000eb08       _d3dx_inflate_copyright    00476b08     d3dx9:inftrees.obj
 0002:0000ed28       ??_C@_0CE@LOHAHEGK@incomplete?5dynamic?5bit?5lengths?5t@ 00476d28     d3dx9:inftrees.obj
 0002:0000ed4c       ??_C@_0CI@CGMOPDPD@oversubscribed?5dynamic?5bit?5lengt@ 00476d4c     d3dx9:inftrees.obj
 0002:0000ed74       ??_C@_0BP@NEEEJJNA@incomplete?5literal?1length?5tree?$AA@ 00476d74     d3dx9:inftrees.obj
 0002:0000ed94       ??_C@_0CD@GJIDGCKE@oversubscribed?5literal?1length?5tr@ 00476d94     d3dx9:inftrees.obj
 0002:0000edb8       ??_C@_0CB@KPKKKLFO@empty?5distance?5tree?5with?5lengths@ 00476db8     d3dx9:inftrees.obj
 0002:0000eddc       ??_C@_0BJ@CBCPDPJF@incomplete?5distance?5tree?$AA@ 00476ddc     d3dx9:inftrees.obj
 0002:0000edf8       ??_C@_0BN@KBLCDIAI@oversubscribed?5distance?5tree?$AA@ 00476df8     d3dx9:inftrees.obj
 0002:0000f008       ??_C@_07LCBHPJJN@LC_TIME?$AA@ 00477008     LIBC:setlocal.obj
 0002:0000f010       ??_C@_0L@DLHIECNL@LC_NUMERIC?$AA@ 00477010     LIBC:setlocal.obj
 0002:0000f01c       ??_C@_0M@MIENIKLA@LC_MONETARY?$AA@ 0047701c     LIBC:setlocal.obj
 0002:0000f028       ??_C@_08EADHIDAD@LC_CTYPE?$AA@ 00477028     LIBC:setlocal.obj
 0002:0000f034       ??_C@_0L@KFJHEKIK@LC_COLLATE?$AA@ 00477034     LIBC:setlocal.obj
 0002:0000f040       ??_C@_06NEFDFEKB@LC_ALL?$AA@ 00477040     LIBC:setlocal.obj
 0002:0000f048       ??_C@_03EGDHDPFD@_?4?0?$AA@ 00477048     LIBC:setlocal.obj
 0002:0000f04c       ??_C@_01LFCBOECM@?4?$AA@   0047704c     LIBC:setlocal.obj
 0002:0000f050       ??_C@_01IDAFKMJL@_?$AA@    00477050     LIBC:setlocal.obj
 0002:0000f054       ??_C@_01NEMOKFLO@?$DN?$AA@ 00477054     LIBC:setlocal.obj
 0002:0000f058       ??_C@_02BALPLPBG@?$DN?$DL?$AA@ 00477058     LIBC:setlocal.obj
 0002:0000f0f0       ??_C@_0P@MIGLKIOC@CorExitProcess?$AA@ 004770f0     LIBC:crt0dat.obj
 0002:0000f100       ??_C@_0M@MBOPBNBK@mscoree?4dll?$AA@ 00477100     LIBC:crt0dat.obj
 0002:0000f10c       ??_C@_05KLBDPFGC@e?$CL000?$AA@ 0047710c     LIBC:cvt.obj
 0002:0000f118       __real@4150017ec0000000    00477118     LIBC:testfdiv.obj
 0002:0000f120       __real@4147ffff80000000    00477120     LIBC:testfdiv.obj
 0002:0000f128       ??_C@_0BK@NHEOCAHP@IsProcessorFeaturePresent?$AA@ 00477128     LIBC:testfdiv.obj
 0002:0000f144       ??_C@_08CPNIBGIE@KERNEL32?$AA@ 00477144     LIBC:testfdiv.obj
 0002:0000f150       ___lookuptable             00477150     LIBC:output.obj
 0002:0000f1ac       ??_C@_1O@CEDCILHN@?$AA?$CI?$AAn?$AAu?$AAl?$AAl?$AA?$CJ?$AA?$AA@ 004771ac     LIBC:output.obj
 0002:0000f1bc       ??_C@_06OJHGLDPL@?$CInull?$CJ?$AA@ 004771bc     LIBC:output.obj
 0002:0000f1c4       ??_C@_0CF@GOGNBNAK@Microsoft?5Visual?5C?$CL?$CL?5Runtime?5Lib@ 004771c4     LIBC:secfail.obj
 0002:0000f1ec       ??_C@_09KLGCKDOD@Program?3?5?$AA@ 004771ec     LIBC:secfail.obj
 0002:0000f1f8       ??_C@_02PHMGELLB@?6?6?$AA@ 004771f8     LIBC:secfail.obj
 0002:0000f1fc       ??_C@_03KHICJKCI@?4?4?4?$AA@ 004771fc     LIBC:secfail.obj
 0002:0000f200       ??_C@_0BH@DNAGHKFM@?$DMprogram?5name?5unknown?$DO?$AA@ 00477200     LIBC:secfail.obj
 0002:0000f218       ??_C@_0KA@JEHFIFGP@A?5buffer?5overrun?5has?5been?5detect@ 00477218     LIBC:secfail.obj
 0002:0000f2b8       ??_C@_0BJ@MDEKIEOJ@Buffer?5overrun?5detected?$CB?$AA@ 004772b8     LIBC:secfail.obj
 0002:0000f2d8       ??_C@_0LB@BPLHHLFD@A?5security?5error?5of?5unknown?5caus@ 004772d8     LIBC:secfail.obj
 0002:0000f38c       ??_C@_0CD@GMKACBEK@Unknown?5security?5failure?5detecte@ 0047738c     LIBC:secfail.obj
 0002:0000f498       ??_C@_05EOHGHCHD@exp10?$AA@ 00477498     LIBC:libm_error.obj
 0002:0000f4b8       __DEFAULT_CW_in_mem        004774b8     LIBC:common.obj
 0002:0000f4ba       __pi_by_2_to_61            004774ba     LIBC:common.obj
 0002:0000f4f4       ??_C@_0P@GGKDKEEG@runtime?5error?5?$AA@ 004774f4     LIBC:crt0msg.obj
 0002:0000f504       ??_C@_02PCIJFNDE@?$AN?6?$AA@ 00477504     LIBC:crt0msg.obj
 0002:0000f508       ??_C@_0O@MJNIPGOH@TLOSS?5error?$AN?6?$AA@ 00477508     LIBC:crt0msg.obj
 0002:0000f518       ??_C@_0N@BONNPDHF@SING?5error?$AN?6?$AA@ 00477518     LIBC:crt0msg.obj
 0002:0000f528       ??_C@_0P@MBDAJNE@DOMAIN?5error?$AN?6?$AA@ 00477528     LIBC:crt0msg.obj
 0002:0000f538       ??_C@_0CF@KJDAIALP@R6028?$AN?6?9?5unable?5to?5initialize?5he@ 00477538     LIBC:crt0msg.obj
 0002:0000f560       ??_C@_0DF@GAKBPDFP@R6027?$AN?6?9?5not?5enough?5space?5for?5lo@ 00477560     LIBC:crt0msg.obj
 0002:0000f598       ??_C@_0DF@IBLNNAIG@R6026?$AN?6?9?5not?5enough?5space?5for?5st@ 00477598     LIBC:crt0msg.obj
 0002:0000f5d0       ??_C@_0CG@IOHKGFNJ@R6025?$AN?6?9?5pure?5virtual?5function?5c@ 004775d0     LIBC:crt0msg.obj
 0002:0000f5f8       ??_C@_0DF@JIJJFJDC@R6024?$AN?6?9?5not?5enough?5space?5for?5_o@ 004775f8     LIBC:crt0msg.obj
 0002:0000f630       ??_C@_0CJ@EGEJHFME@R6019?$AN?6?9?5unable?5to?5open?5console?5@ 00477630     LIBC:crt0msg.obj
 0002:0000f65c       ??_C@_0CB@GNHNIELH@R6018?$AN?6?9?5unexpected?5heap?5error?$AN?6@ 0047765c     LIBC:crt0msg.obj
 0002:0000f680       ??_C@_0CN@FOLDKNG@R6017?$AN?6?9?5unexpected?5multithread?5@ 00477680     LIBC:crt0msg.obj
 0002:0000f6b0       ??_C@_0CM@FAHFJNHO@R6016?$AN?6?9?5not?5enough?5space?5for?5th@ 004776b0     LIBC:crt0msg.obj
 0002:0000f6e0       ??_C@_0JG@LBKMGKLD@?$AN?6This?5application?5has?5requested@ 004776e0     LIBC:crt0msg.obj
 0002:0000f778       ??_C@_0CM@FLCNIPKK@R6009?$AN?6?9?5not?5enough?5space?5for?5en@ 00477778     LIBC:crt0msg.obj
 0002:0000f7a4       ??_C@_0CK@KMMJOAPP@R6008?$AN?6?9?5not?5enough?5space?5for?5ar@ 004777a4     LIBC:crt0msg.obj
 0002:0000f7d0       ??_C@_0CF@HOHMHDEK@R6002?$AN?6?9?5floating?5point?5not?5load@ 004777d0     LIBC:crt0msg.obj
 0002:0000f7f8       ??_C@_0BK@OFGJDLJJ@Runtime?5Error?$CB?6?6Program?3?5?$AA@ 004777f8     LIBC:crt0msg.obj
 0002:0000f834       ??_C@_0L@KDOEJCKC@_nextafter?$AA@ 00477834     LIBC:fpexcept.obj
 0002:0000f840       ??_C@_05JGDBENOH@_logb?$AA@ 00477840     LIBC:fpexcept.obj
 0002:0000f848       ??_C@_03ONILCKOB@_yn?$AA@  00477848     LIBC:fpexcept.obj
 0002:0000f84c       ??_C@_03NAKIGLHK@_y1?$AA@  0047784c     LIBC:fpexcept.obj
 0002:0000f850       ??_C@_03MJLDFKDL@_y0?$AA@  00477850     LIBC:fpexcept.obj
 0002:0000f854       ??_C@_06MEIMCGCF@_hypot?$AA@ 00477854     LIBC:fpexcept.obj
 0002:0000f85c       ??_C@_05KBKMEMPO@_cabs?$AA@ 0047785c     LIBC:fpexcept.obj
 0002:0000f864       ??_C@_04ODHECPBC@fabs?$AA@ 00477864     LIBC:fpexcept.obj
 0002:0000f870       ___rgLocInfo               00477870     LIBC:getqloc.obj
 0002:0000fd14       ??_C@_08PKBIPKE@Paraguay?$AA@ 00477d14     LIBC:getqloc.obj
 0002:0000fd20       ??_C@_07GHBIBIBP@Uruguay?$AA@ 00477d20     LIBC:getqloc.obj
 0002:0000fd28       ??_C@_05HBNKAPDN@Chile?$AA@ 00477d28     LIBC:getqloc.obj
 0002:0000fd30       ??_C@_07FEIFIPNF@Ecuador?$AA@ 00477d30     LIBC:getqloc.obj
 0002:0000fd38       ??_C@_09PGNFPGME@Argentina?$AA@ 00477d38     LIBC:getqloc.obj
 0002:0000fd44       ??_C@_04IALPBJF@Peru?$AA@  00477d44     LIBC:getqloc.obj
 0002:0000fd4c       ??_C@_08IJPLNLKH@Colombia?$AA@ 00477d4c     LIBC:getqloc.obj
 0002:0000fd58       ??_C@_09IDMFKCN@Venezuela?$AA@ 00477d58     LIBC:getqloc.obj
 0002:0000fd64       ??_C@_0BD@DNEJOGOK@Dominican?5Republic?$AA@ 00477d64     LIBC:getqloc.obj
 0002:0000fd78       ??_C@_0N@LPINDNDB@South?5Africa?$AA@ 00477d78     LIBC:getqloc.obj
 0002:0000fd88       ??_C@_06BLJPEOBG@Panama?$AA@ 00477d88     LIBC:getqloc.obj
 0002:0000fd90       ??_C@_0L@BOCNDGON@Luxembourg?$AA@ 00477d90     LIBC:getqloc.obj
 0002:0000fd9c       ??_C@_0L@CONEHKA@Costa?5Rica?$AA@ 00477d9c     LIBC:getqloc.obj
 0002:0000fda8       ??_C@_0M@KGBPELAM@Switzerland?$AA@ 00477da8     LIBC:getqloc.obj
 0002:0000fdb4       ??_C@_09FJGLIMAG@Guatemala?$AA@ 00477db4     LIBC:getqloc.obj
 0002:0000fdc0       ??_C@_06ECHIPDMK@Canada?$AA@ 00477dc0     LIBC:getqloc.obj
 0002:0000fdc8       ??_C@_0BG@CCEBNPGH@Spanish?5?9?5Modern?5Sort?$AA@ 00477dc8     LIBC:getqloc.obj
 0002:0000fde0       ??_C@_09EFGJAPAD@Australia?$AA@ 00477de0     LIBC:getqloc.obj
 0002:0000fdec       ??_C@_07NEKHPBCG@English?$AA@ 00477dec     LIBC:getqloc.obj
 0002:0000fdf4       ??_C@_07LKIIOGFH@Austria?$AA@ 00477df4     LIBC:getqloc.obj
 0002:0000fdfc       ??_C@_06EDDDIONA@German?$AA@ 00477dfc     LIBC:getqloc.obj
 0002:0000fe04       ??_C@_07LIIIOFOA@Belgium?$AA@ 00477e04     LIBC:getqloc.obj
 0002:0000fe0c       ??_C@_06DIAOLLEH@Mexico?$AA@ 00477e0c     LIBC:getqloc.obj
 0002:0000fe14       ??_C@_07PFALJOGE@Spanish?$AA@ 00477e14     LIBC:getqloc.obj
 0002:0000fe1c       ??_C@_06FFOOPAJB@Basque?$AA@ 00477e1c     LIBC:getqloc.obj
 0002:0000fe24       ??_C@_06DGHNDJFJ@Sweden?$AA@ 00477e24     LIBC:getqloc.obj
 0002:0000fe2c       ??_C@_07OBINPKFN@Swedish?$AA@ 00477e2c     LIBC:getqloc.obj
 0002:0000fe34       ??_C@_07NCOIHDGC@Iceland?$AA@ 00477e34     LIBC:getqloc.obj
 0002:0000fe3c       ??_C@_09JHBBDDIA@Icelandic?$AA@ 00477e3c     LIBC:getqloc.obj
 0002:0000fe48       ??_C@_06COBCPIFO@France?$AA@ 00477e48     LIBC:getqloc.obj
 0002:0000fe50       ??_C@_06GODMCAND@French?$AA@ 00477e50     LIBC:getqloc.obj
 0002:0000fe58       ??_C@_07MFHPMOED@Finland?$AA@ 00477e58     LIBC:getqloc.obj
 0002:0000fe60       ??_C@_07MCEAMKOD@Finnish?$AA@ 00477e60     LIBC:getqloc.obj
 0002:0000fe68       ??_C@_05CBHOCCK@Spain?$AA@ 00477e68     LIBC:getqloc.obj
 0002:0000fe70       ??_C@_0BL@GIOEGDHB@Spanish?5?9?5Traditional?5Sort?$AA@ 00477e70     LIBC:getqloc.obj
 0002:0000fe8c       ___rglangidNotDefault      00477e8c     LIBC:getqloc.obj
 0002:0000fea0       ___rg_country              00477ea0     LIBC:getqloc.obj
 0002:0000ff58       ??_C@_0O@FMJNFNKE@united?9states?$AA@ 00477f58     LIBC:getqloc.obj
 0002:0000ff68       ??_C@_0P@NDHFFKCA@united?9kingdom?$AA@ 00477f68     LIBC:getqloc.obj
 0002:0000ff78       ??_C@_0BC@HHDADLGF@trinidad?5?$CG?5tobago?$AA@ 00477f78     LIBC:getqloc.obj
 0002:0000ff8c       ??_C@_0M@IOAEBDAC@south?9korea?$AA@ 00477f8c     LIBC:getqloc.obj
 0002:0000ff98       ??_C@_0N@FIELFKIJ@south?9africa?$AA@ 00477f98     LIBC:getqloc.obj
 0002:0000ffa8       ??_C@_0M@OPNDHCMC@south?5korea?$AA@ 00477fa8     LIBC:getqloc.obj
 0002:0000ffb4       ??_C@_0N@MDEOEPFI@south?5africa?$AA@ 00477fb4     LIBC:getqloc.obj
 0002:0000ffc4       ??_C@_06FKAPCJLB@slovak?$AA@ 00477fc4     LIBC:getqloc.obj
 0002:0000ffcc       ??_C@_0M@EFJANOAL@puerto?9rico?$AA@ 00477fcc     LIBC:getqloc.obj
 0002:0000ffd8       ??_C@_08PGOJKDAI@pr?9china?$AA@ 00477fd8     LIBC:getqloc.obj
 0002:0000ffe4       ??_C@_08JHDOMCMI@pr?5china?$AA@ 00477fe4     LIBC:getqloc.obj
 0002:0000fff0       ??_C@_02JHCHFBLL@nz?$AA@   00477ff0     LIBC:getqloc.obj
 0002:0000fff4       ??_C@_0M@LINHDHKP@new?9zealand?$AA@ 00477ff4     LIBC:getqloc.obj
 0002:00010000       ??_C@_09IIIPPBDB@hong?9kong?$AA@ 00478000     LIBC:getqloc.obj
 0002:0001000c       ??_C@_07HJLCKBG@holland?$AA@ 0047800c     LIBC:getqloc.obj
 0002:00010014       ??_C@_0O@LEHGMHAG@great?5britain?$AA@ 00478014     LIBC:getqloc.obj
 0002:00010024       ??_C@_07FACOMELA@england?$AA@ 00478024     LIBC:getqloc.obj
 0002:0001002c       ??_C@_05JIHCEICB@czech?$AA@ 0047802c     LIBC:getqloc.obj
 0002:00010034       ??_C@_05BBJOBLGB@china?$AA@ 00478034     LIBC:getqloc.obj
 0002:0001003c       ??_C@_07GPKPHICP@britain?$AA@ 0047803c     LIBC:getqloc.obj
 0002:00010044       ??_C@_07MHIPBHMG@america?$AA@ 00478044     LIBC:getqloc.obj
 0002:00010050       ___rg_language             00478050     LIBC:getqloc.obj
 0002:00010258       ??_C@_03KIALPMKC@usa?$AA@  00478258     LIBC:getqloc.obj
 0002:0001025c       ??_C@_02FGJGKGGD@us?$AA@   0047825c     LIBC:getqloc.obj
 0002:00010260       ??_C@_02NEINDODK@uk?$AA@   00478260     LIBC:getqloc.obj
 0002:00010264       ??_C@_05JMPCFJFJ@swiss?$AA@ 00478264     LIBC:getqloc.obj
 0002:0001026c       ??_C@_0BA@HLOCPIOD@swedish?9finland?$AA@ 0047826c     LIBC:getqloc.obj
 0002:0001027c       ??_C@_0BC@PKCNIABK@spanish?9venezuela?$AA@ 0047827c     LIBC:getqloc.obj
 0002:00010290       ??_C@_0BA@GBHHMIJI@spanish?9uruguay?$AA@ 00478290     LIBC:getqloc.obj
 0002:000102a0       ??_C@_0BE@BHDOHPMC@spanish?9puerto?5rico?$AA@ 004782a0     LIBC:getqloc.obj
 0002:000102b4       ??_C@_0N@KMOIDGGN@spanish?9peru?$AA@ 004782b4     LIBC:getqloc.obj
 0002:000102c4       ??_C@_0BB@HMHLPGPH@spanish?9paraguay?$AA@ 004782c4     LIBC:getqloc.obj
 0002:000102d8       ??_C@_0P@MCPKNGFD@spanish?9panama?$AA@ 004782d8     LIBC:getqloc.obj
 0002:000102e8       ??_C@_0BC@IHOHGAIL@spanish?9nicaragua?$AA@ 004782e8     LIBC:getqloc.obj
 0002:000102fc       ??_C@_0P@KLMJDNFJ@spanish?9modern?$AA@ 004782fc     LIBC:getqloc.obj
 0002:0001030c       ??_C@_0BA@BPAPGBCM@spanish?9mexican?$AA@ 0047830c     LIBC:getqloc.obj
 0002:0001031c       ??_C@_0BB@PDECHHHE@spanish?9honduras?$AA@ 0047831c     LIBC:getqloc.obj
 0002:00010330       ??_C@_0BC@KLHKFGDB@spanish?9guatemala?$AA@ 00478330     LIBC:getqloc.obj
 0002:00010344       ??_C@_0BE@MFOOKJAI@spanish?9el?5salvador?$AA@ 00478344     LIBC:getqloc.obj
 0002:00010358       ??_C@_0BA@FCOKFPFC@spanish?9ecuador?$AA@ 00478358     LIBC:getqloc.obj
 0002:00010368       ??_C@_0BL@PLMGIMOO@spanish?9dominican?5republic?$AA@ 00478368     LIBC:getqloc.obj
 0002:00010384       ??_C@_0BD@HLGDNMHB@spanish?9costa?5rica?$AA@ 00478384     LIBC:getqloc.obj
 0002:00010398       ??_C@_0BB@PKCBKCPE@spanish?9colombia?$AA@ 00478398     LIBC:getqloc.obj
 0002:000103ac       ??_C@_0O@MCBIJGNE@spanish?9chile?$AA@ 004783ac     LIBC:getqloc.obj
 0002:000103bc       ??_C@_0BA@BEFEIGJJ@spanish?9bolivia?$AA@ 004783bc     LIBC:getqloc.obj
 0002:000103cc       ??_C@_0BC@EMECMPD@spanish?9argentina?$AA@ 004783cc     LIBC:getqloc.obj
 0002:000103e0       ??_C@_0BF@EALFLENP@portuguese?9brazilian?$AA@ 004783e0     LIBC:getqloc.obj
 0002:000103f8       ??_C@_0BC@HBLEBLNN@norwegian?9nynorsk?$AA@ 004783f8     LIBC:getqloc.obj
 0002:0001040c       ??_C@_0BB@HMACDDCK@norwegian?9bokmal?$AA@ 0047840c     LIBC:getqloc.obj
 0002:00010420       ??_C@_09BAFFPPHE@norwegian?$AA@ 00478420     LIBC:getqloc.obj
 0002:0001042c       ??_C@_0O@EAJFJDFG@italian?9swiss?$AA@ 0047842c     LIBC:getqloc.obj
 0002:0001043c       ??_C@_0O@CNOMPGD@irish?9english?$AA@ 0047843c     LIBC:getqloc.obj
 0002:0001044c       ??_C@_0N@EDHBGCKG@german?9swiss?$AA@ 0047844c     LIBC:getqloc.obj
 0002:0001045c       ??_C@_0BC@JACMHNBP@german?9luxembourg?$AA@ 0047845c     LIBC:getqloc.obj
 0002:00010470       ??_C@_0BE@HBGMGFEG@german?9lichtenstein?$AA@ 00478470     LIBC:getqloc.obj
 0002:00010484       ??_C@_0BA@HKKBIBKL@german?9austrian?$AA@ 00478484     LIBC:getqloc.obj
 0002:00010494       ??_C@_0N@GCAEPEBK@french?9swiss?$AA@ 00478494     LIBC:getqloc.obj
 0002:000104a4       ??_C@_0BC@DJFJJCK@french?9luxembourg?$AA@ 004784a4     LIBC:getqloc.obj
 0002:000104b8       ??_C@_0BA@NNCEDFIC@french?9canadian?$AA@ 004784b8     LIBC:getqloc.obj
 0002:000104c8       ??_C@_0P@CMPOCLM@french?9belgian?$AA@ 004784c8     LIBC:getqloc.obj
 0002:000104d8       ??_C@_0M@GHHDJOK@english?9usa?$AA@ 004784d8     LIBC:getqloc.obj
 0002:000104e4       ??_C@_0L@PLDJKEIL@english?9us?$AA@ 004784e4     LIBC:getqloc.obj
 0002:000104f0       ??_C@_0L@HJCCDMNC@english?9uk?$AA@ 004784f0     LIBC:getqloc.obj
 0002:000104fc       ??_C@_0BK@CKLIAGJB@english?9trinidad?5y?5tobago?$AA@ 004784fc     LIBC:getqloc.obj
 0002:00010518       ??_C@_0BF@JMJMGNNF@english?9south?5africa?$AA@ 00478518     LIBC:getqloc.obj
 0002:00010530       ??_C@_0L@DKIIFDFD@english?9nz?$AA@ 00478530     LIBC:getqloc.obj
 0002:0001053c       ??_C@_0BA@ONHGJCLH@english?9jamaica?$AA@ 0047853c     LIBC:getqloc.obj
 0002:0001054c       ??_C@_0M@HJBGHOPO@english?9ire?$AA@ 0047854c     LIBC:getqloc.obj
 0002:00010558       ??_C@_0BC@LFEKMIFB@english?9caribbean?$AA@ 00478558     LIBC:getqloc.obj
 0002:0001056c       ??_C@_0M@OLDPFKHI@english?9can?$AA@ 0047856c     LIBC:getqloc.obj
 0002:00010578       ??_C@_0P@OMDEHBMP@english?9belize?$AA@ 00478578     LIBC:getqloc.obj
 0002:00010588       ??_C@_0M@KFHFPFED@english?9aus?$AA@ 00478588     LIBC:getqloc.obj
 0002:00010594       ??_C@_0BB@MNMBKDFE@english?9american?$AA@ 00478594     LIBC:getqloc.obj
 0002:000105a8       ??_C@_0O@KIDLNNBA@dutch?9belgian?$AA@ 004785a8     LIBC:getqloc.obj
 0002:000105b8       ??_C@_0BE@JBKABBMH@chinese?9traditional?$AA@ 004785b8     LIBC:getqloc.obj
 0002:000105cc       ??_C@_0BC@MJJMPKCG@chinese?9singapore?$AA@ 004785cc     LIBC:getqloc.obj
 0002:000105e0       ??_C@_0BD@FDKADDCP@chinese?9simplified?$AA@ 004785e0     LIBC:getqloc.obj
 0002:000105f4       ??_C@_0BB@DBEFDDME@chinese?9hongkong?$AA@ 004785f4     LIBC:getqloc.obj
 0002:00010608       ??_C@_07DHNMFMCI@chinese?$AA@ 00478608     LIBC:getqloc.obj
 0002:00010610       ??_C@_03FNDDCHI@chi?$AA@   00478610     LIBC:getqloc.obj
 0002:00010614       ??_C@_03BMMIADDJ@chh?$AA@  00478614     LIBC:getqloc.obj
 0002:00010618       ??_C@_08OAIPJDGI@canadian?$AA@ 00478618     LIBC:getqloc.obj
 0002:00010624       ??_C@_07HBPMNPNJ@belgian?$AA@ 00478624     LIBC:getqloc.obj
 0002:0001062c       ??_C@_0L@OEKOPBEL@australian?$AA@ 0047862c     LIBC:getqloc.obj
 0002:00010638       ??_C@_0BB@MEIMBEDG@american?9english?$AA@ 00478638     LIBC:getqloc.obj
 0002:0001064c       ??_C@_0BB@DFMDPDGB@american?5english?$AA@ 0047864c     LIBC:getqloc.obj
 0002:00010660       ??_C@_08IJLOKOLL@american?$AA@ 00478660     LIBC:getqloc.obj
 0002:0001066c       ??_C@_03NFKLAGEF@OCP?$AA@  0047866c     LIBC:getqloc.obj
 0002:00010670       ??_C@_03DFHEHBHG@ACP?$AA@  00478670     LIBC:getqloc.obj
 0002:00010674       ??_C@_0BC@NFIEMBLL@Norwegian?9Nynorsk?$AA@ 00478674     LIBC:getqloc.obj
 0002:00010688       __real@00000000            00478688     d3dfont.obj
 0002:00010688       ??_C@_13NOLLCAOD@?$AA?$AA?$AA?$AA@ 00478688     LIBC:a_str.obj
 0002:00013fd0       __ctype                    0047bfd0     LIBC:ctype.obj
 0002:000141d8       __wctype                   0047c1d8     LIBC:ctype.obj
 0002:00014950       ??_C@_0BI@DFKBFLJE@GetProcessWindowStation?$AA@ 0047c950     LIBC:crtmbox.obj
 0002:00014968       ??_C@_0BK@CIDNPOGP@GetUserObjectInformationA?$AA@ 0047c968     LIBC:crtmbox.obj
 0002:00014984       ??_C@_0BD@HHGDFDBJ@GetLastActivePopup?$AA@ 0047c984     LIBC:crtmbox.obj
 0002:00014998       ??_C@_0BA@HNOPNCHB@GetActiveWindow?$AA@ 0047c998     LIBC:crtmbox.obj
 0002:000149a8       ??_C@_0M@CHKKJDAI@MessageBoxA?$AA@ 0047c9a8     LIBC:crtmbox.obj
 0002:000149b4       ??_C@_0L@GMPLCCII@user32?4dll?$AA@ 0047c9b4     LIBC:crtmbox.obj
 0002:000149c0       ??_C@_08JCCMCCIL@HH?3mm?3ss?$AA@ 0047c9c0     LIBC:strftime.obj
 0002:000149cc       ??_C@_0BE@CKGJFCPC@dddd?0?5MMMM?5dd?0?5yyyy?$AA@ 0047c9cc     LIBC:strftime.obj
 0002:000149e0       ??_C@_08BPBNCDIB@MM?1dd?1yy?$AA@ 0047c9e0     LIBC:strftime.obj
 0002:000149ec       ??_C@_02CJNFDJBF@PM?$AA@   0047c9ec     LIBC:strftime.obj
 0002:000149f0       ??_C@_02DEDBPAFC@AM?$AA@   0047c9f0     LIBC:strftime.obj
 0002:000149f4       ??_C@_08EDHMEBNP@December?$AA@ 0047c9f4     LIBC:strftime.obj
 0002:00014a00       ??_C@_08HCHEGEOA@November?$AA@ 0047ca00     LIBC:strftime.obj
 0002:00014a0c       ??_C@_07JJNFCEND@October?$AA@ 0047ca0c     LIBC:strftime.obj
 0002:00014a14       ??_C@_09BHHEALKD@September?$AA@ 0047ca14     LIBC:strftime.obj
 0002:00014a20       ??_C@_06LBBHFDDG@August?$AA@ 0047ca20     LIBC:strftime.obj
 0002:00014a28       ??_C@_04MIEPOIFP@July?$AA@ 0047ca28     LIBC:strftime.obj
 0002:00014a30       ??_C@_04CNLMGBGM@June?$AA@ 0047ca30     LIBC:strftime.obj
 0002:00014a38       ??_C@_05DMJDNLEJ@April?$AA@ 0047ca38     LIBC:strftime.obj
 0002:00014a40       ??_C@_05HPCKOFNC@March?$AA@ 0047ca40     LIBC:strftime.obj
 0002:00014a48       ??_C@_08GNJGEPFN@February?$AA@ 0047ca48     LIBC:strftime.obj
 0002:00014a54       ??_C@_07CGJPFGJA@January?$AA@ 0047ca54     LIBC:strftime.obj
 0002:00014a5c       ??_C@_03MKABNOCG@Dec?$AA@  0047ca5c     LIBC:strftime.obj
 0002:00014a60       ??_C@_03JPJOFNIA@Nov?$AA@  0047ca60     LIBC:strftime.obj
 0002:00014a64       ??_C@_03BMAOKBAD@Oct?$AA@  0047ca64     LIBC:strftime.obj
 0002:00014a68       ??_C@_03GGCAPAJC@Sep?$AA@  0047ca68     LIBC:strftime.obj
 0002:00014a6c       ??_C@_03IFJFEIGA@Aug?$AA@  0047ca6c     LIBC:strftime.obj
 0002:00014a70       ??_C@_03LBGABGKK@Jul?$AA@  0047ca70     LIBC:strftime.obj
 0002:00014a74       ??_C@_03IDFGHECI@Jun?$AA@  0047ca74     LIBC:strftime.obj
 0002:00014a78       ??_C@_03CNMDKL@May?$AA@    0047ca78     LIBC:strftime.obj
 0002:00014a7c       ??_C@_03LEOLGMJP@Apr?$AA@  0047ca7c     LIBC:strftime.obj
 0002:00014a80       ??_C@_03ODNJBKGA@Mar?$AA@  0047ca80     LIBC:strftime.obj
 0002:00014a84       ??_C@_03HJBDCHOM@Feb?$AA@  0047ca84     LIBC:strftime.obj
 0002:00014a88       ??_C@_03JIHJHPIE@Jan?$AA@  0047ca88     LIBC:strftime.obj
 0002:00014a8c       ??_C@_08INBOOONO@Saturday?$AA@ 0047ca8c     LIBC:strftime.obj
 0002:00014a98       ??_C@_06JECMNKMI@Friday?$AA@ 0047ca98     LIBC:strftime.obj
 0002:00014aa0       ??_C@_08HACCIKIA@Thursday?$AA@ 0047caa0     LIBC:strftime.obj
 0002:00014aac       ??_C@_09DLIGFAKA@Wednesday?$AA@ 0047caac     LIBC:strftime.obj
 0002:00014ab8       ??_C@_07BAAGCFCM@Tuesday?$AA@ 0047cab8     LIBC:strftime.obj
 0002:00014ac0       ??_C@_06JLEDEDGH@Monday?$AA@ 0047cac0     LIBC:strftime.obj
 0002:00014ac8       ??_C@_06OOPIFAJ@Sunday?$AA@ 0047cac8     LIBC:strftime.obj
 0002:00014ad0       ??_C@_03FEFJNEK@Sat?$AA@   0047cad0     LIBC:strftime.obj
 0002:00014ad4       ??_C@_03IDIOELNC@Fri?$AA@  0047cad4     LIBC:strftime.obj
 0002:00014ad8       ??_C@_03IOFIKPDN@Thu?$AA@  0047cad8     LIBC:strftime.obj
 0002:00014adc       ??_C@_03MHOMLAJA@Wed?$AA@  0047cadc     LIBC:strftime.obj
 0002:00014ae0       ??_C@_03NAGEINEP@Tue?$AA@  0047cae0     LIBC:strftime.obj
 0002:00014ae4       ??_C@_03PDAGKDH@Mon?$AA@   0047cae4     LIBC:strftime.obj
 0002:00014ae8       ??_C@_03KOEHGMDN@Sun?$AA@  0047cae8     LIBC:strftime.obj
 0002:00014afc       ??_C@_06IMKFLFPG@1?$CDQNAN?$AA@ 0047cafc     LIBC:x10fout.obj
 0002:00014b04       ??_C@_05DNEBIAHO@1?$CDINF?$AA@ 0047cb04     LIBC:x10fout.obj
 0002:00014b0c       ??_C@_05PHHOCPM@1?$CDIND?$AA@ 0047cb0c     LIBC:x10fout.obj
 0002:00014b14       ??_C@_06PGGFOGJG@1?$CDSNAN?$AA@ 0047cb14     LIBC:x10fout.obj
 0002:00014b3c       ___dnames                  0047cb3c     LIBC:timeset.obj
 0002:00014b54       ___mnames                  0047cb54     LIBC:timeset.obj
 0002:00014d6c       _c_dfDIKeyboard            0047cd6c     dinput8:dilib2.obj
 0002:00014d84       _IID_IDirectMusicSegment8  0047cd84     dxguid:dxguid.obj
 0002:00014d94       _IID_IDirectMusicPerformance8 0047cd94     dxguid:dxguid.obj
 0002:00014da4       _IID_IDirectMusicLoader8   0047cda4     dxguid:dxguid.obj
 0002:00014db4       _GUID_StandardMIDIFile     0047cdb4     dxguid:dxguid.obj
 0002:00014dc4       _GUID_DirectMusicAllTypes  0047cdc4     dxguid:dxguid.obj
 0002:00014dd4       _CLSID_DirectMusicLoader   0047cdd4     dxguid:dxguid.obj
 0002:00014de4       _CLSID_DirectMusicSegment  0047cde4     dxguid:dxguid.obj
 0002:00014df4       _CLSID_DirectMusicPerformance 0047cdf4     dxguid:dxguid.obj
 0002:00014e04       _IID_IDirectSound3DListener 0047ce04     dxguid:dxguid.obj
 0002:00014e14       _GUID_SysKeyboard          0047ce14     dxguid:dxguid.obj
 0002:00014e24       _GUID_Key                  0047ce24     dxguid:dxguid.obj
 0002:00014e34       _IID_IDirectInput8A        0047ce34     dxguid:dxguid.obj
 0002:00014e44       _IID_IUnknown              0047ce44     uuid:unknwn_i.obj
 0002:00014e9c       ___rtc_iaa                 0047ce9c     LIBC:initsect.obj
 0002:00014ea0       ___rtc_izz                 0047cea0     LIBC:initsect.obj
 0002:00014ea4       ___rtc_taa                 0047cea4     LIBC:initsect.obj
 0002:00014ea8       ___rtc_tzz                 0047cea8     LIBC:initsect.obj
 0002:00014f44       __IMPORT_DESCRIPTOR_KERNEL32 0047cf44     kernel32:KERNEL32.dll
 0002:00014f58       __IMPORT_DESCRIPTOR_USER32 0047cf58     user32:USER32.dll
 0002:00014f6c       __IMPORT_DESCRIPTOR_GDI32  0047cf6c     gdi32:GDI32.dll
 0002:00014f80       __IMPORT_DESCRIPTOR_ADVAPI32 0047cf80     advapi32:ADVAPI32.dll
 0002:00014f94       __IMPORT_DESCRIPTOR_ole32  0047cf94     ole32:ole32.dll
 0002:00014fa8       __IMPORT_DESCRIPTOR_d3d9   0047cfa8     d3d9:d3d9.dll
 0002:00014fbc       __IMPORT_DESCRIPTOR_WINMM  0047cfbc     winmm:WINMM.dll
 0002:00014fd0       __IMPORT_DESCRIPTOR_DINPUT8 0047cfd0     dinput8:DINPUT8.dll
 0002:00014fe4       __IMPORT_DESCRIPTOR_mp3    0047cfe4     mp3:mp3.dll
 0002:00014ff8       __NULL_IMPORT_DESCRIPTOR   0047cff8     kernel32:KERNEL32.dll
 0003:00000000       ___xc_a                    0047e000     LIBC:crt0init.obj
 0003:00000014       ___xc_z                    0047e014     LIBC:crt0init.obj
 0003:00000018       ___xi_a                    0047e018     LIBC:crt0init.obj
 0003:00000030       ___xi_z                    0047e030     LIBC:crt0init.obj
 0003:00000034       ___xp_a                    0047e034     LIBC:crt0init.obj
 0003:00000040       ___xp_z                    0047e040     LIBC:crt0init.obj
 0003:00000044       ___xt_a                    0047e044     LIBC:crt0init.obj
 0003:0000004c       ___xt_z                    0047e04c     LIBC:crt0init.obj
 0003:00000084       ?g_VSParticleDecl@@3PAU_D3DVERTEXELEMENT9@@A 0047e084     particles.obj
 0003:000000b0       ?D3DRM_XTEMPLATES@@3PAEA   0047e0b0     xfile.obj
 0003:00000d80       ?g_D3DXFastTable@@3UD3DXFASTTABLE@@A 0047ed80     d3dx9:d3dxmath.obj
 0003:00000ea0       ?g_D3DXFastTableC@@3UD3DXFASTTABLE@@A 0047eea0     d3dx9:d3dxmath.obj
 0003:00000fc0       ?_D3DX_D3DRM_XTEMPLATES@@3PAEA 0047efc0     d3dx9:loadx.obj
 0003:00001c90       ?x_rgTemplateIds@@3PAPBU_GUID@@A 0047fc90     d3dx9:loadx.obj
 0003:00001cb0       ?x_rgPMTemplateIds@@3PAPBU_GUID@@A 0047fcb0     d3dx9:loadx.obj
 0003:00001cc0       ?x_szDefaultNames@@3PAPBDA 0047fcc0     d3dx9:loadx.obj
 0003:0000c164       ?g_CpuOptimization@@3W4_D3DX_CPU_OPTIMIZATION@@A 0048a164     d3dx9:cpudetect.obj
 0003:0000c168       ?d3dxtok_lhs@D3DXShader@@3PAFA 0048a168     d3dx9:cpreprocessor.obj
 0003:0000c1c8       ?d3dxtok_len@D3DXShader@@3PAFA 0048a1c8     d3dx9:cpreprocessor.obj
 0003:0000c228       ?d3dxtok_defred@D3DXShader@@3PAFA 0048a228     d3dx9:cpreprocessor.obj
 0003:0000c2c8       ?d3dxtok_dgoto@D3DXShader@@3PAFA 0048a2c8     d3dx9:cpreprocessor.obj
 0003:0000c2e8       ?d3dxtok_sindex@D3DXShader@@3PAFA 0048a2e8     d3dx9:cpreprocessor.obj
 0003:0000c388       ?d3dxtok_rindex@D3DXShader@@3PAFA 0048a388     d3dx9:cpreprocessor.obj
 0003:0000c428       ?d3dxtok_gindex@D3DXShader@@3PAFA 0048a428     d3dx9:cpreprocessor.obj
 0003:0000c448       ?d3dxtok_table@D3DXShader@@3PAFA 0048a448     d3dx9:cpreprocessor.obj
 0003:0000c730       ?d3dxtok_check@D3DXShader@@3PAFA 0048a730     d3dx9:cpreprocessor.obj
 0003:0000ca18       ?d3dxasm_lhs@D3DXShader@@3PAFA 0048aa18     d3dx9:cassembler.obj
 0003:0000ca98       ?d3dxasm_len@D3DXShader@@3PAFA 0048aa98     d3dx9:cassembler.obj
 0003:0000cb18       ?d3dxasm_defred@D3DXShader@@3PAFA 0048ab18     d3dx9:cassembler.obj
 0003:0000cc20       ?d3dxasm_dgoto@D3DXShader@@3PAFA 0048ac20     d3dx9:cassembler.obj
 0003:0000cc60       ?d3dxasm_sindex@D3DXShader@@3PAFA 0048ac60     d3dx9:cassembler.obj
 0003:0000cd68       ?d3dxasm_rindex@D3DXShader@@3PAFA 0048ad68     d3dx9:cassembler.obj
 0003:0000ce70       ?d3dxasm_gindex@D3DXShader@@3PAFA 0048ae70     d3dx9:cassembler.obj
 0003:0000ceb0       ?d3dxasm_table@D3DXShader@@3PAFA 0048aeb0     d3dx9:cassembler.obj
 0003:0000d100       ?d3dxasm_check@D3DXShader@@3PAFA 0048b100     d3dx9:cassembler.obj
 0003:0000d350       ?s_szVersionString@CAssembler@D3DXShader@@1PBDB 0048b350     d3dx9:cassembler.obj
 0003:0000db5c       ?g_pBoxFilter2D_A8R8G8B8@D3DXTex@@3P6GJPAI0IIII@ZA 0048bb5c     d3dx9:cblt.obj
 0003:0000db60       ?g_pBoxFilter2D_X8R8G8B8@D3DXTex@@3P6GJPAI0IIII@ZA 0048bb60     d3dx9:cblt.obj
 0003:0000ec70       ?d3dxshader_lhs@D3DXShader@@3PAFA 0048cc70     d3dx9:cparse.obj
 0003:0000eeb8       ?d3dxshader_len@D3DXShader@@3PAFA 0048ceb8     d3dx9:cparse.obj
 0003:0000f100       ?d3dxshader_defred@D3DXShader@@3PAFA 0048d100     d3dx9:cparse.obj
 0003:0000f4c0       ?d3dxshader_dgoto@D3DXShader@@3PAFA 0048d4c0     d3dx9:cparse.obj
 0003:0000f5a8       ?d3dxshader_sindex@D3DXShader@@3PAFA 0048d5a8     d3dx9:cparse.obj
 0003:0000f968       ?d3dxshader_rindex@D3DXShader@@3PAFA 0048d968     d3dx9:cparse.obj
 0003:0000fd28       ?d3dxshader_gindex@D3DXShader@@3PAFA 0048dd28     d3dx9:cparse.obj
 0003:0000fe10       ?d3dxshader_table@D3DXShader@@3PAFA 0048de10     d3dx9:cparse.obj
 0003:00011858       ?d3dxshader_check@D3DXShader@@3PAFA 0048f858     d3dx9:cparse.obj
 0003:000132e8       ?g_LegacySwizzle@D3DXShader@@3PAIA 004912e8     d3dx9:cpslegacyprogram.obj
 0003:00013338       ?g_SwizzleL@D3DXShader@@3PAIA 00491338     d3dx9:cpslegacyprogram.obj
 0003:000133b8       ?g_Swizzle@D3DXShader@@3PAIA 004913b8     d3dx9:cpsprogram.obj
 0003:00013a30       ?s_szVersionString@CShaderProgram@D3DXShader@@1PBDB 00491a30     d3dx9:cshaderprogram.obj
 0003:00013a40       ?s_dbPi@@3NA               00491a40     d3dx9:d3dxtrigsse.obj
 0003:00014f60       _d3dx_inflate_mask         00492f60     d3dx9:infutil.obj
 0003:00014fa4       __fltused                  00492fa4     LIBC:fpinit.obj
 0003:00014fa8       __ldused                   00492fa8     LIBC:fpinit.obj
 0003:00014fac       __FPinit                   00492fac     LIBC:fpinit.obj
 0003:00014fb0       __FPmtinit                 00492fb0     LIBC:fpinit.obj
 0003:00014fb4       __FPmtterm                 00492fb4     LIBC:fpinit.obj
 0003:00014fb8       ___security_cookie         00492fb8     LIBC:seccook.obj
 0003:00014fbc       __NLG_Destination          00492fbc     LIBC:exsup.obj
 0003:00014fe0       __aexit_rtn                00492fe0     LIBC:wincrt0.obj
 0003:00014fe4       ___app_type                00492fe4     LIBC:wincrt0.obj
 0003:00015138       ___lc_category             00493138     LIBC:setlocal.obj
 0003:00015180       __half                     00493180     LIBC:pow.obj
 0003:00015190       __OP_FMODjmptab            00493190     LIBC:87fmod.obj
 0003:000151e0       __cfltcvt_tab              004931e0     LIBC:cmiscdat.obj
 0003:000151f8       ___nullstring              004931f8     LIBC:output.obj
 0003:000151fc       ___wnullstring             004931fc     LIBC:output.obj
 0003:00015204       ?__pUnexpected@@3P6AXXZA   00493204     LIBC:hooks.obj
 0003:00015208       ?__pInconsistency@@3P6AXXZA 00493208     LIBC:hooks.obj
 0003:00015308       __pmatherr                 00493308     LIBC:libm_error.obj
 0003:00015310       __indefinite               00493310     LIBC:87disp.obj
 0003:0001531a       __piby2                    0049331a     LIBC:87disp.obj
 0003:0001532c       __cpower                   0049332c     LIBC:87disp.obj
 0003:000153d0       __XcptActTab               004933d0     LIBC:winxfltr.obj
 0003:00015448       __First_FPE_Indx           00493448     LIBC:winxfltr.obj
 0003:0001544c       __Num_FPE                  0049344c     LIBC:winxfltr.obj
 0003:00015450       __XcptActTabCount          00493450     LIBC:winxfltr.obj
 0003:00015454       __fpecode                  00493454     LIBC:winxfltr.obj
 0003:00015458       ___badioinfo               00493458     LIBC:ioinit.obj
 0003:00015460       __amblksiz                 00493460     LIBC:heapinit.obj
 0003:00015468       __d_inf                    00493468     LIBC:util.obj
 0003:00015470       __d_ind                    00493470     LIBC:util.obj
 0003:00015478       __d_max                    00493478     LIBC:util.obj
 0003:00015480       __d_min                    00493480     LIBC:util.obj
 0003:00015488       __d_mzero                  00493488     LIBC:util.obj
 0003:00015590       ___lc_clike                00493590     LIBC:nlsdata2.obj
 0003:000155a0       __infinity                 004935a0     LIBC:87tran.obj
 0003:000155aa       __minfinity                004935aa     LIBC:87tran.obj
 0003:000155b4       __logemax                  004935b4     LIBC:87tran.obj
 0003:000155e4       __OP_EXPjmptab             004935e4     LIBC:87tran.obj
 0003:00015608       __pctype                   00493608     LIBC:ctype.obj
 0003:0001560c       __pwctype                  0049360c     LIBC:ctype.obj
 0003:00015610       ___mb_cur_max              00493610     LIBC:nlsdata1.obj
 0003:00015614       ___decimal_point           00493614     LIBC:nlsdata1.obj
 0003:00015618       ___decimal_point_length    00493618     LIBC:nlsdata1.obj
 0003:0001563a       __OP_SINHjmptab            0049363a     LIBC:87trigh.obj
 0003:0001565a       __OP_COSHjmptab            0049365a     LIBC:87trigh.obj
 0003:0001567a       __OP_TANHjmptab            0049367a     LIBC:87trigh.obj
 0003:00015800       __tmpoff                   00493800     LIBC:rmtmp.obj
 0003:00015804       __tempoff                  00493804     LIBC:rmtmp.obj
 0003:00015838       __iob                      00493838     LIBC:_file.obj
 0003:00015ac0       __matherr_flag             00493ac0     LIBC:matherr.obj
 0003:00015ad0       ___lc_time_curr            00493ad0     LIBC:strftime.obj
 0003:00015ad8       ___lc_time_c               00493ad8     LIBC:strftime.obj
 0003:00015b8c       ___lconv_static_decimal    00493b8c     LIBC:lconv.obj
 0003:00015b90       ___lconv_c                 00493b90     LIBC:lconv.obj
 0003:00015bc0       ___lconv                   00493bc0     LIBC:lconv.obj
 0003:00015d30       __timezone                 00493d30     LIBC:timeset.obj
 0003:00015d34       __daylight                 00493d34     LIBC:timeset.obj
 0003:00015d38       __dstbias                  00493d38     LIBC:timeset.obj
 0003:00015dc0       __tzname                   00493dc0     LIBC:timeset.obj
 0003:00015de0       __lpdays                   00493de0     LIBC:days.obj
 0003:00015e14       __days                     00493e14     LIBC:days.obj
 0003:00015e48       __pow10pos                 00493e48     LIBC:constpow.obj
 0003:00015fa8       __pow10neg                 00493fa8     LIBC:constpow.obj
 0003:00016120       ?m_pKeyboard@@3PAUIDirectInputDevice8A@@A 00494120     dxinput.obj
 0003:00016124       ?m_pDI@@3PAUIDirectInput8A@@A 00494124     dxinput.obj
 0003:00016168       ?m_RefCount@cParticleEmitter@@1KA 00494168     particles.obj
 0003:0001616c       ?m_pShader@cParticleEmitter@@1PAUIDirect3DVertexShader9@@A 0049416c     particles.obj
 0003:00016170       ?m_pDecl@cParticleEmitter@@1PAUIDirect3DVertexDeclaration9@@A 00494170     particles.obj
 0003:00016174       ?m_pTextures@cParticleEmitter@@1PAPAUIDirect3DTexture9@@A 00494174     particles.obj
 0003:00016180       ?pFont@@3PAVCD3DFont@@A    00494180     render.obj
 0003:00016184       ?fWidth@@3MA               00494184     render.obj
 0003:00016188       ?fTimeLapsed@@3MA          00494188     render.obj
 0003:0001618c       ?fFPS@@3MA                 0049418c     render.obj
 0003:00016190       ?pD3D@@3PAUIDirect3D9@@A   00494190     render.obj
 0003:00016194       ?dwHeight@@3KA             00494194     render.obj
 0003:00016198       ?item@@3KA                 00494198     render.obj
 0003:000161a0       ?strFPS@@3PADA             004941a0     render.obj
 0003:000161fc       ?pEffect@@3PAUID3DXEffect@@A 004941fc     render.obj
 0003:00016200       ?pMeshSonic@@3PAPAUID3DXMesh@@A 00494200     render.obj
 0003:00016210       ?Input@@3UUserInput@@A     00494210     render.obj
 0003:00016330       ?pSfxExp@@3PAPAVCMusicSegment@@A 00494330     render.obj
 0003:00016340       ?fTime@@3MA                00494340     render.obj
 0003:00016344       ?pDXMusic@@3PAVCMusicManager@@A 00494344     render.obj
 0003:00016348       ?objStar@@3PAUVECTOR3@@A   00494348     render.obj
 0003:0001a348       ?fHalfWidth@@3MA           00498348     render.obj
 0003:0001a34c       ?bRGB@@3_NA                0049834c     render.obj
 0003:0001a350       ?Elapsed@@3KA              00498350     render.obj
 0003:0001a354       ?fHeight@@3MA              00498354     render.obj
 0003:0001a358       ?index@@3HA                00498358     render.obj
 0003:0001a35c       ?bAlfa@@3EA                0049835c     render.obj
 0003:0001a360       ?pDevice@@3PAUIDirect3DDevice9@@A 00498360     render.obj
 0003:0001a364       ?pSfxSonic@@3PAVCMusicSegment@@A 00498364     render.obj
 0003:0001a368       ?pSfxLaser@@3PAVCMusicSegment@@A 00498368     render.obj
 0003:0001a36c       ?Time@@3KA                 0049836c     render.obj
 0003:0001a370       ?dwWidth@@3KA              00498370     render.obj
 0003:0001a374       ?fHalfHeight@@3MA          00498374     render.obj
 0003:0001a378       ?pMeshPlanet@@3PAUID3DXMesh@@A 00498378     render.obj
 0003:0001a37c       ?pMeshEnemy@@3PAUID3DXMesh@@A 0049837c     render.obj
 0003:0001a380       ?pMeshShip@@3PAUID3DXMesh@@A 00498380     render.obj
 0003:0001a384       ?pMeshLaser@@3PAUID3DXMesh@@A 00498384     render.obj
 0003:0001a388       ?pPlanetsMaterials@@3PAU_D3DMATERIAL9@@A 00498388     render.obj
 0003:0001a38c       ?pShipMaterials@@3PAU_D3DMATERIAL9@@A 0049838c     render.obj
 0003:0001a390       ?GuideTexture@@3PAUIDirect3DTexture9@@A 00498390     render.obj
 0003:0001a394       ?Guide@@3PAUID3DXSprite@@A 00498394     render.obj
 0003:0001a3a0       ?matProj@@3U_D3DXMATRIXA16@@A 004983a0     render.obj
 0003:0001a3e0       ?matTemp@@3U_D3DXMATRIXA16@@A 004983e0     render.obj
 0003:0001a420       ?objPlanets@@3PAVCPLANET@@A 00498420     render.obj
 0003:0001a8f0       ?vUpVec@@3UD3DXVECTOR3@@A  004988f0     render.obj
 0003:0001a900       ?objShip@@3VCSHIP@@A       00498900     render.obj
 0003:0001a980       ?matView@@3U_D3DXMATRIXA16@@A 00498980     render.obj
 0003:0001a9c0       ?matWorld@@3U_D3DXMATRIXA16@@A 004989c0     render.obj
 0003:0001aa00       ?vLookatPt@@3UD3DXVECTOR3@@A 00498a00     render.obj
 0003:0001aa0c       ?ShipEngine@@3VcParticleEmitter@@A 00498a0c     render.obj
 0003:0001aa30       ?vEyePt@@3UD3DXVECTOR3@@A  00498a30     render.obj
 0003:0001aa4c       ?bIsActive@@3HA            00498a4c     win32.obj
 0003:0001aa50       ?bWinMode@@3_NA            00498a50     win32.obj
 0003:0001aa58       ?cos_look@@3PAMA           00498a58     math3d.obj
 0003:0001b000       ?sin_look@@3PAMA           00499000     math3d.obj
 0003:0001b5a4       ?sm_pD3DDeviceCacheInfo@@3PAUIDirect3DDevice9@@A 004995a4     d3dx9:createmesh.obj
 0003:0001b5a8       ?sm_dwCacheSize@@3KA       004995a8     d3dx9:createmesh.obj
 0003:0001b5ac       ?sm_dwMagicNumber@@3KA     004995ac     d3dx9:createmesh.obj
 0003:0001b5b0       ?d3dxtok_vs@D3DXShader@@3PAHA 004995b0     d3dx9:cpreprocessor.obj
 0003:0001bd80       ?d3dxtok_ss@D3DXShader@@3PAFA 00499d80     d3dx9:cpreprocessor.obj
 0003:0001c168       ?d3dxtok_lval@D3DXShader@@3HA 0049a168     d3dx9:cpreprocessor.obj
 0003:0001c16c       ?d3dxtok_val@D3DXShader@@3HA 0049a16c     d3dx9:cpreprocessor.obj
 0003:0001c170       ?d3dxtok_vsp@D3DXShader@@3PAHA 0049a170     d3dx9:cpreprocessor.obj
 0003:0001c174       ?d3dxtok_ssp@D3DXShader@@3PAFA 0049a174     d3dx9:cpreprocessor.obj
 0003:0001c178       ?d3dxtok_char@D3DXShader@@3HA 0049a178     d3dx9:cpreprocessor.obj
 0003:0001c17c       ?d3dxtok_errflag@D3DXShader@@3HA 0049a17c     d3dx9:cpreprocessor.obj
 0003:0001c180       ?d3dxtok_nerrs@D3DXShader@@3HA 0049a180     d3dx9:cpreprocessor.obj
 0003:0001c184       ?d3dxtok_debug@D3DXShader@@3HA 0049a184     d3dx9:cpreprocessor.obj
 0003:0001c188       ?s_pPP@CPreProcessor@D3DXShader@@1PAV12@A 0049a188     d3dx9:cpreprocessor.obj
 0003:0001c190       ?d3dxasm_vs@D3DXShader@@3PAHA 0049a190     d3dx9:cassembler.obj
 0003:0001c960       ?d3dxasm_ss@D3DXShader@@3PAFA 0049a960     d3dx9:cassembler.obj
 0003:0001cd48       ?d3dxasm_lval@D3DXShader@@3HA 0049ad48     d3dx9:cassembler.obj
 0003:0001cd4c       ?d3dxasm_val@D3DXShader@@3HA 0049ad4c     d3dx9:cassembler.obj
 0003:0001cd50       ?d3dxasm_vsp@D3DXShader@@3PAHA 0049ad50     d3dx9:cassembler.obj
 0003:0001cd54       ?d3dxasm_ssp@D3DXShader@@3PAFA 0049ad54     d3dx9:cassembler.obj
 0003:0001cd58       ?d3dxasm_char@D3DXShader@@3HA 0049ad58     d3dx9:cassembler.obj
 0003:0001cd5c       ?d3dxasm_errflag@D3DXShader@@3HA 0049ad5c     d3dx9:cassembler.obj
 0003:0001cd60       ?d3dxasm_nerrs@D3DXShader@@3HA 0049ad60     d3dx9:cassembler.obj
 0003:0001cd64       ?d3dxasm_debug@D3DXShader@@3HA 0049ad64     d3dx9:cassembler.obj
 0003:0001cd68       ?s_pAsm@CAssembler@D3DXShader@@1PAV12@A 0049ad68     d3dx9:cassembler.obj
 0003:0001cd80       ?d3dxshader_vs@D3DXShader@@3PAHA 0049ad80     d3dx9:cparse.obj
 0003:0001d550       ?d3dxshader_ss@D3DXShader@@3PAFA 0049b550     d3dx9:cparse.obj
 0003:0001d938       ?d3dxshader_lval@D3DXShader@@3HA 0049b938     d3dx9:cparse.obj
 0003:0001d93c       ?d3dxshader_val@D3DXShader@@3HA 0049b93c     d3dx9:cparse.obj
 0003:0001d940       ?d3dxshader_vsp@D3DXShader@@3PAHA 0049b940     d3dx9:cparse.obj
 0003:0001d944       ?d3dxshader_ssp@D3DXShader@@3PAFA 0049b944     d3dx9:cparse.obj
 0003:0001d948       ?d3dxshader_char@D3DXShader@@3HA 0049b948     d3dx9:cparse.obj
 0003:0001d94c       ?d3dxshader_errflag@D3DXShader@@3HA 0049b94c     d3dx9:cparse.obj
 0003:0001d950       ?d3dxshader_nerrs@D3DXShader@@3HA 0049b950     d3dx9:cparse.obj
 0003:0001d954       ?d3dxshader_debug@D3DXShader@@3HA 0049b954     d3dx9:cparse.obj
 0003:0001d958       ?s_pParse@CParse@D3DXShader@@1PAV12@A 0049b958     d3dx9:cparse.obj
 0003:0001d960       ?s_pList@CText@D3DXCore@@1PAV12@A 0049b960     d3dx9:ctext.obj
 0003:0001d970       ?fvecf3pt0@?1??rsqrt_nr@@YG?AVF32vec1@@ABV2@@Z@4V2@B 0049b970     d3dx9:d3dxmathsse.obj
 0003:0001d980       ?fvecf0pt5@?1??rsqrt_nr@@YG?AVF32vec1@@ABV2@@Z@4V2@B 0049b980     d3dx9:d3dxmathsse.obj
 0003:0001d990       ??_B?1??rsqrt_nr@@YG?AVF32vec1@@ABV1@@Z@51 0049b990     d3dx9:d3dxmathsse.obj
 0003:0001d994       ?m_bTooBig@CShaderProgram@D3DXShader@@1HA 0049b994     d3dx9:cshaderprogram.obj
 0003:0001d998       ___fastflag                0049b998     LIBC:fpinit.obj
 0003:0001d99c       __adjust_fdiv              0049b99c     LIBC:fpinit.obj
 0003:0001d9a4       __aenvptr                  0049b9a4     LIBC:wincrt0.obj
 0003:0001d9a8       __wenvptr                  0049b9a8     LIBC:wincrt0.obj
 0003:0001d9ac       ___error_mode              0049b9ac     LIBC:wincrt0.obj
 0003:0001d9bc       _errno                     0049b9bc     LIBC:crt0dat.obj
 0003:0001d9c0       __doserrno                 0049b9c0     LIBC:crt0dat.obj
 0003:0001d9c4       __umaskval                 0049b9c4     LIBC:crt0dat.obj
 0003:0001d9c8       __osplatform               0049b9c8     LIBC:crt0dat.obj
 0003:0001d9cc       __osver                    0049b9cc     LIBC:crt0dat.obj
 0003:0001d9d0       __winver                   0049b9d0     LIBC:crt0dat.obj
 0003:0001d9d4       __winmajor                 0049b9d4     LIBC:crt0dat.obj
 0003:0001d9d8       __winminor                 0049b9d8     LIBC:crt0dat.obj
 0003:0001d9dc       ___argc                    0049b9dc     LIBC:crt0dat.obj
 0003:0001d9e0       ___argv                    0049b9e0     LIBC:crt0dat.obj
 0003:0001d9e4       ___wargv                   0049b9e4     LIBC:crt0dat.obj
 0003:0001d9e8       __environ                  0049b9e8     LIBC:crt0dat.obj
 0003:0001d9ec       ___initenv                 0049b9ec     LIBC:crt0dat.obj
 0003:0001d9f0       __wenviron                 0049b9f0     LIBC:crt0dat.obj
 0003:0001d9f4       ___winitenv                0049b9f4     LIBC:crt0dat.obj
 0003:0001d9f8       __pgmptr                   0049b9f8     LIBC:crt0dat.obj
 0003:0001d9fc       __wpgmptr                  0049b9fc     LIBC:crt0dat.obj
 0003:0001da00       __exitflag                 0049ba00     LIBC:crt0dat.obj
 0003:0001da04       __C_Termination_Done       0049ba04     LIBC:crt0dat.obj
 0003:0001da08       __C_Exit_Done              0049ba08     LIBC:crt0dat.obj
 0003:0001da40       ?_pCurrentException@@3PAUEHExceptionRecord@@A 0049ba40     LIBC:frame.obj
 0003:0001da44       ?_pCurrentExContext@@3PAU_CONTEXT@@A 0049ba44     LIBC:frame.obj
 0003:0001da48       ?__ProcessingThrow@@3HA    0049ba48     LIBC:frame.obj
 0003:0001da4c       ?__pSETranslator@@3P6AXIPAU_EXCEPTION_POINTERS@@@ZA 0049ba4c     LIBC:hooks.obj
 0003:0001da50       ?__pTerminate@@3P6AXXZA    0049ba50     LIBC:hooks.obj
 0003:0001da58       __adbgmsg                  0049ba58     LIBC:crt0msg.obj
 0003:0001da5c       __pxcptinfoptrs            0049ba5c     LIBC:winxfltr.obj
 0003:0001db6c       ___lc_time_intl            0049bb6c     LIBC:inittime.obj
 0003:0001db70       ___lconv_intl              0049bb70     LIBC:initmon.obj
 0003:0001db98       ___lc_handle               0049bb98     LIBC:nlsdata2.obj
 0003:0001dbb0       ___lc_codepage             0049bbb0     LIBC:nlsdata2.obj
 0003:0001dbb4       ___lc_collate_cp           0049bbb4     LIBC:nlsdata2.obj
 0003:0001dbbc       ___lc_id                   0049bbbc     LIBC:nlsdata3.obj
 0003:0001dc0c       ?_pnhHeap@@3P6AHI@ZA       0049bc0c     LIBC:handler.obj
 0003:0001dc10       __newmode                  0049bc10     LIBC:_newmode.obj
 0003:0001dc14       __old_pfxlen               0049bc14     LIBC:rmtmp.obj
 0003:0001dc18       __commode                  0049bc18     LIBC:ncommode.obj
 0003:0001dc48       __cflush                   0049bc48     LIBC:_file.obj
 0003:0001dc6c       ___lconv_static_null       0049bc6c     LIBC:lconv.obj
 0003:0001dc70       __fmode                    0049bc70     LIBC:txtmode.obj
 0003:0001dd4c       ___piob                    0049bd4c     <common>
 0003:0001dd60       __bufin                    0049bd60     <common>
 0003:0001ed60       __nstream                  0049cd60     <common>
 0003:0001ed64       ___ctype1                  0049cd64     <common>
 0003:0001ed68       ___sbh_pHeaderDefer        0049cd68     <common>
 0003:0001ed6c       ___sbh_cntHeaderList       0049cd6c     <common>
 0003:0001ed70       ___sbh_pHeaderList         0049cd70     <common>
 0003:0001ed74       ___sbh_threshold           0049cd74     <common>
 0003:0001ed78       ___sbh_pHeaderScan         0049cd78     <common>
 0003:0001ed7c       ___sbh_sizeHeaderList      0049cd7c     <common>
 0003:0001ed80       ___sbh_indGroupDefer       0049cd80     <common>
 0003:0001ed84       __crtheap                  0049cd84     <common>
 0003:0001ed88       ___active_heap             0049cd88     <common>
 0003:0001ed8c       __nhandle                  0049cd8c     <common>
 0003:0001eda0       ___pioinfo                 0049cda0     <common>
 0003:0001eea0       ___use_sse2_mathfcns       0049cea0     <common>
 0003:0001eea4       ___sse2_available          0049cea4     <common>
 0003:0001eea8       ___mblcid                  0049cea8     <common>
 0003:0001eeac       ___ismbcodepage            0049ceac     <common>
 0003:0001eec0       __mbctype                  0049cec0     <common>
 0003:0001efc4       ___mbcodepage              0049cfc4     <common>
 0003:0001efd0       ___mbulinfo                0049cfd0     <common>
 0003:0001efe0       __mbcasemap                0049cfe0     <common>
 0003:0001f0e0       ___env_initialized         0049d0e0     <common>
 0003:0001f0e4       ___onexitend               0049d0e4     <common>
 0003:0001f0e8       ___onexitbegin             0049d0e8     <common>
 0003:0001f0ec       ___mbctype_initialized     0049d0ec     <common>
 0003:0001f0f0       __acmdln                   0049d0f0     <common>

 entry point at        0001:00057a8e

 Static symbols

 0001:00066dc0       _$E1                       00467dc0 f   render.obj
 0001:00066dd0       _$E3                       00467dd0 f   render.obj
 0001:00066df0       _$E19                      00467df0 f   render.obj
 0001:00066e10       _$E20                      00467e10 f   render.obj
 0001:0003e136       ?SSEFloat16Conversion8@@YGXXZ 0043f136 f   d3dx9:float162.obj
 0001:0003bff1       ?SSEFloat16Conversion8@@YGXXZ 0043cff1 f   d3dx9:float16.obj
 0001:0003ef80       ProcPrologue               0043ff80 f   d3dx9:d3dxvec4.obj
 0001:0003efba       TransformLoop              0043ffba f   d3dx9:d3dxvec4.obj
 0001:0003f000       ProcEpilog                 00440000 f   d3dx9:d3dxvec4.obj
 0001:0003f760       ProcPrologue               00440760 f   d3dx9:d3dxvec3.obj
 0001:0003f7a0       ScalarLoop                 004407a0 f   d3dx9:d3dxvec3.obj
 0001:0003f7d9       SIMDMatrix                 004407d9 f   d3dx9:d3dxvec3.obj
 0001:0003f8e1       TransformLoop              004408e1 f   d3dx9:d3dxvec3.obj
 0001:0003fa2f       PostTransformLoop          00440a2f f   d3dx9:d3dxvec3.obj
 0001:0003fa57       ProcEpilog                 00440a57 f   d3dx9:d3dxvec3.obj
 0001:0003fa80       ProcPrologue               00440a80 f   d3dx9:d3dxvec3.obj
 0001:0003fac0       ScalarLoop                 00440ac0 f   d3dx9:d3dxvec3.obj
 0001:0003faf9       SIMDMatrix                 00440af9 f   d3dx9:d3dxvec3.obj
 0001:0003fbbd       TransformLoop              00440bbd f   d3dx9:d3dxvec3.obj
 0001:0003fcae       PostTransformLoop          00440cae f   d3dx9:d3dxvec3.obj
 0001:0003fcd6       ProcEpilog                 00440cd6 f   d3dx9:d3dxvec3.obj
 0001:0003f6c0       ProcPrologue               004406c0 f   d3dx9:d3dxvec3.obj
 0001:0003f6fa       TransformLoop              004406fa f   d3dx9:d3dxvec3.obj
 0001:0003f734       ProcEpilog                 00440734 f   d3dx9:d3dxvec3.obj
 0001:0003f2a0       ProcPrologue               004402a0 f   d3dx9:d3dxvec2.obj
 0001:0003f2e0       ScalarLoop                 004402e0 f   d3dx9:d3dxvec2.obj
 0001:0003f319       SIMDMatrix                 00440319 f   d3dx9:d3dxvec2.obj
 0001:0003f3dd       TransformLoop              004403dd f   d3dx9:d3dxvec2.obj
 0001:0003f497       PostTransformLoop          00440497 f   d3dx9:d3dxvec2.obj
 0001:0003f4bf       ProcEpilog                 004404bf f   d3dx9:d3dxvec2.obj
 0001:0003f500       ProcPrologue               00440500 f   d3dx9:d3dxvec2.obj
 0001:0003f540       ScalarLoop                 00440540 f   d3dx9:d3dxvec2.obj
 0001:0003f579       SIMDMatrix                 00440579 f   d3dx9:d3dxvec2.obj
 0001:0003f5f9       TransformLoop              004405f9 f   d3dx9:d3dxvec2.obj
 0001:0003f668       PostTransformLoop          00440668 f   d3dx9:d3dxvec2.obj
 0001:0003f690       ProcEpilog                 00440690 f   d3dx9:d3dxvec2.obj
 0001:0003f040       ProcPrologue               00440040 f   d3dx9:d3dxvec2.obj
 0001:0003f080       ScalarLoop                 00440080 f   d3dx9:d3dxvec2.obj
 0001:0003f0b9       SIMDMatrix                 004400b9 f   d3dx9:d3dxvec2.obj
 0001:0003f17d       TransformLoop              0044017d f   d3dx9:d3dxvec2.obj
 0001:0003f251       PostTransformLoop          00440251 f   d3dx9:d3dxvec2.obj
 0001:0003f279       ProcEpilog                 00440279 f   d3dx9:d3dxvec2.obj
 0001:0003eec0       ProcPrologue               0043fec0 f   d3dx9:d3dxplane.obj
 0001:0003eefa       TransformLoop              0043fefa f   d3dx9:d3dxplane.obj
 0001:0003ef40       ProcEpilog                 0043ff40 f   d3dx9:d3dxplane.obj
 0001:00045bc0       ProcPrologue               00446bc0 f   d3dx9:d3dxfloat16.obj
 0001:00045c03       Float32Algo                00446c03 f   d3dx9:d3dxfloat16.obj
 0001:00045d02       PostFloat32Algo            00446d02 f   d3dx9:d3dxfloat16.obj
 0001:00045d22       ProcEpilog                 00446d22 f   d3dx9:d3dxfloat16.obj
 0001:00045a80       ProcPrologue               00446a80 f   d3dx9:d3dxfloat16.obj
 0001:00045abf       Float16Algo                00446abf f   d3dx9:d3dxfloat16.obj
 0001:00045b72       PostFloat16Algo            00446b72 f   d3dx9:d3dxfloat16.obj
 0001:00045b92       ProcEpilog                 00446b92 f   d3dx9:d3dxfloat16.obj
 0001:0004a760       x5                         0044b760 f   d3dx9:amdmath.obj
 0001:0004a7d4       x7                         0044b7d4 f   d3dx9:amdmath.obj
 0001:0004a7da       ending                     0044b7da f   d3dx9:amdmath.obj
 0001:0004a6c0       exception                  0044b6c0 f   d3dx9:amdmath.obj
 0001:0004a640       exception                  0044b640 f   d3dx9:amdmath.obj
 0001:0004a65c       ending                     0044b65c f   d3dx9:amdmath.obj
 0001:0004a860       x5                         0044b860 f   d3dx9:amdmath.obj
 0001:0004a8d4       x7                         0044b8d4 f   d3dx9:amdmath.obj
 0001:0004a8da       ending                     0044b8da f   d3dx9:amdmath.obj
 0001:0004a960       x5                         0044b960 f   d3dx9:amdmath.obj
 0001:0004a9d4       x7                         0044b9d4 f   d3dx9:amdmath.obj
 0001:0004a9da       ending                     0044b9da f   d3dx9:amdmath.obj
 0001:000562bb       _huft_build@40             004572bb f   d3dx9:inftrees.obj
 0001:000366b0       ?png_format_buffer@D3DX@@YGXPAUpng_struct_def@1@PADPBD@Z 004376b0 f   d3dx9:pngerror.obj
 0001:000513e0       ?read_backing_store@D3DX@@YGXPAUjpeg_common_struct@1@PAUbacking_store_struct@1@PAXJJ@Z 004523e0 f   d3dx9:jmemansi.obj
 0001:00051440       ?write_backing_store@D3DX@@YGXPAUjpeg_common_struct@1@PAUbacking_store_struct@1@PAXJJ@Z 00452440 f   d3dx9:jmemansi.obj
 0001:000514a0       ?close_backing_store@D3DX@@YGXPAUjpeg_common_struct@1@PAUbacking_store_struct@1@@Z 004524a0 f   d3dx9:jmemansi.obj
 0001:00047640       ?alloc_small@D3DX@@YGPAXPAUjpeg_common_struct@1@HI@Z 00448640 f   d3dx9:jmemmgr.obj
 0001:00047770       ?alloc_large@D3DX@@YGPAXPAUjpeg_common_struct@1@HI@Z 00448770 f   d3dx9:jmemmgr.obj
 0001:00047820       ?alloc_sarray@D3DX@@YGPAPAEPAUjpeg_common_struct@1@HII@Z 00448820 f   d3dx9:jmemmgr.obj
 0001:000478c0       ?alloc_barray@D3DX@@YGPAPAY0EA@FPAUjpeg_common_struct@1@HII@Z 004488c0 f   d3dx9:jmemmgr.obj
 0001:00047960       ?request_virt_sarray@D3DX@@YGPAUjvirt_sarray_control@1@PAUjpeg_common_struct@1@HHIII@Z 00448960 f   d3dx9:jmemmgr.obj
 0001:000479d0       ?request_virt_barray@D3DX@@YGPAUjvirt_barray_control@1@PAUjpeg_common_struct@1@HHIII@Z 004489d0 f   d3dx9:jmemmgr.obj
 0001:00047a40       ?realize_virt_arrays@D3DX@@YGXPAUjpeg_common_struct@1@@Z 00448a40 f   d3dx9:jmemmgr.obj
 0001:00047bd0       ?do_sarray_io@D3DX@@YGXPAUjpeg_common_struct@1@PAUjvirt_sarray_control@1@H@Z 00448bd0 f   d3dx9:jmemmgr.obj
 0001:00047c70       ?do_barray_io@D3DX@@YGXPAUjpeg_common_struct@1@PAUjvirt_barray_control@1@H@Z 00448c70 f   d3dx9:jmemmgr.obj
 0001:00047d10       ?access_virt_sarray@D3DX@@YGPAPAEPAUjpeg_common_struct@1@PAUjvirt_sarray_control@1@IIH@Z 00448d10 f   d3dx9:jmemmgr.obj
 0001:00047e30       ?access_virt_barray@D3DX@@YGPAPAY0EA@FPAUjpeg_common_struct@1@PAUjvirt_barray_control@1@IIH@Z 00448e30 f   d3dx9:jmemmgr.obj
 0001:00047f50       ?free_pool@D3DX@@YGXPAUjpeg_common_struct@1@H@Z 00448f50 f   d3dx9:jmemmgr.obj
 0001:00048030       ?self_destruct@D3DX@@YGXPAUjpeg_common_struct@1@@Z 00449030 f   d3dx9:jmemmgr.obj
 0001:0004df70       ?start_pass_upsample@D3DX@@YGXPAUjpeg_decompress_struct@1@@Z 0044ef70 f   d3dx9:jdsample.obj
 0001:0004df90       ?sep_upsample@D3DX@@YGXPAUjpeg_decompress_struct@1@PAPAPAEPAIIPAPAE2I@Z 0044ef90 f   d3dx9:jdsample.obj
 0001:0004e070       ?fullsize_upsample@D3DX@@YGXPAUjpeg_decompress_struct@1@PAUjpeg_component_info@1@PAPAEPAPAPAE@Z 0044f070 f   d3dx9:jdsample.obj
 0001:0004e080       ?noop_upsample@D3DX@@YGXPAUjpeg_decompress_struct@1@PAUjpeg_component_info@1@PAPAEPAPAPAE@Z 0044f080 f   d3dx9:jdsample.obj
 0001:0004e090       ?int_upsample@D3DX@@YGXPAUjpeg_decompress_struct@1@PAUjpeg_component_info@1@PAPAEPAPAPAE@Z 0044f090 f   d3dx9:jdsample.obj
 0001:0004e190       ?h2v1_upsample@D3DX@@YGXPAUjpeg_decompress_struct@1@PAUjpeg_component_info@1@PAPAEPAPAPAE@Z 0044f190 f   d3dx9:jdsample.obj
 0001:0004e1f0       ?h2v2_upsample@D3DX@@YGXPAUjpeg_decompress_struct@1@PAUjpeg_component_info@1@PAPAEPAPAPAE@Z 0044f1f0 f   d3dx9:jdsample.obj
 0001:0004e270       ?h2v1_fancy_upsample_orig@D3DX@@YGXPAUjpeg_decompress_struct@1@PAUjpeg_component_info@1@PAPAEPAPAPAE@Z 0044f270 f   d3dx9:jdsample.obj
 0001:0004e330       ?h2v1_fancy_upsample_mmx@D3DX@@YGXPAUjpeg_decompress_struct@1@PAUjpeg_component_info@1@PAPAEPAPAPAE@Z 0044f330 f   d3dx9:jdsample.obj
 0001:0004e5c0       ?h2v2_fancy_upsample_orig@D3DX@@YGXPAUjpeg_decompress_struct@1@PAUjpeg_component_info@1@PAPAEPAPAPAE@Z 0044f5c0 f   d3dx9:jdsample.obj
 0001:0004e720       ?h2v2_fancy_upsample_mmx@D3DX@@YGXPAUjpeg_decompress_struct@1@PAUjpeg_component_info@1@PAPAEPAPAPAE@Z 0044f720 f   d3dx9:jdsample.obj
 0001:0004ecf0       ?h2v1_fancy_upsample@D3DX@@YGXPAUjpeg_decompress_struct@1@PAUjpeg_component_info@1@PAPAEPAPAPAE@Z 0044fcf0 f   d3dx9:jdsample.obj
 0001:0004ed70       ?h2v2_fancy_upsample@D3DX@@YGXPAUjpeg_decompress_struct@1@PAUjpeg_component_info@1@PAPAEPAPAPAE@Z 0044fd70 f   d3dx9:jdsample.obj
 0001:0004de00       ?post_process_1pass@D3DX@@YGXPAUjpeg_decompress_struct@1@PAPAPAEPAIIPAPAE2I@Z 0044ee00 f   d3dx9:jdpostct.obj
 0001:0004de80       ?start_pass_dpost@D3DX@@YGXPAUjpeg_decompress_struct@1@W4J_BUF_MODE@1@@Z 0044ee80 f   d3dx9:jdpostct.obj
 0001:0004cd10       ?process_restart@D3DX@@YGHPAUjpeg_decompress_struct@1@@Z 0044dd10 f   d3dx9:jdphuff.obj
 0001:0004cd80       ?decode_mcu_DC_first@D3DX@@YGHPAUjpeg_decompress_struct@1@PAPAY0EA@F@Z 0044dd80 f   d3dx9:jdphuff.obj
 0001:0004cfa0       ?decode_mcu_AC_first@D3DX@@YGHPAUjpeg_decompress_struct@1@PAPAY0EA@F@Z 0044dfa0 f   d3dx9:jdphuff.obj
 0001:0004d1e0       ?decode_mcu_DC_refine@D3DX@@YGHPAUjpeg_decompress_struct@1@PAPAY0EA@F@Z 0044e1e0 f   d3dx9:jdphuff.obj
 0001:0004d2e0       ?decode_mcu_AC_refine@D3DX@@YGHPAUjpeg_decompress_struct@1@PAPAY0EA@F@Z 0044e2e0 f   d3dx9:jdphuff.obj
 0001:0004d6d0       ?start_pass_phuff_decoder@D3DX@@YGXPAUjpeg_decompress_struct@1@@Z 0044e6d0 f   d3dx9:jdphuff.obj
 0001:00050820       ?build_ycc_rgb_table@D3DX@@YGXPAUjpeg_decompress_struct@1@@Z 00451820 f   d3dx9:jdmerge.obj
 0001:000508f0       ?start_pass_merged_upsample@D3DX@@YGXPAUjpeg_decompress_struct@1@@Z 004518f0 f   d3dx9:jdmerge.obj
 0001:00050910       ?merged_2v_upsample@D3DX@@YGXPAUjpeg_decompress_struct@1@PAPAPAEPAIIPAPAE2I@Z 00451910 f   d3dx9:jdmerge.obj
 0001:000509e0       ?merged_1v_upsample@D3DX@@YGXPAUjpeg_decompress_struct@1@PAPAPAEPAIIPAPAE2I@Z 004519e0 f   d3dx9:jdmerge.obj
 0001:00050a20       ?h2v1_merged_upsample@D3DX@@YGXPAUjpeg_decompress_struct@1@PAPAPAEIPAPAE@Z 00451a20 f   d3dx9:jdmerge.obj
 0001:00050b70       ?h2v2_merged_upsample_orig@D3DX@@YGXPAUjpeg_decompress_struct@1@PAPAPAEIPAPAE@Z 00451b70 f   d3dx9:jdmerge.obj
 0001:00050da0       ?h2v2_merged_upsample_mmx@D3DX@@YGXPAUjpeg_decompress_struct@1@PAPAPAEIPAPAE@Z 00451da0 f   d3dx9:jdmerge.obj
 0001:000512b0       ?h2v2_merged_upsample@D3DX@@YGXPAUjpeg_decompress_struct@1@PAPAPAEIPAPAE@Z 004522b0 f   d3dx9:jdmerge.obj
 0001:00046a20       ?use_merged_upsample@D3DX@@YGHPAUjpeg_decompress_struct@1@@Z 00447a20 f   d3dx9:jdmaster.obj
 0001:00046cb0       ?prepare_range_limit_table@D3DX@@YGXPAUjpeg_decompress_struct@1@@Z 00447cb0 f   d3dx9:jdmaster.obj
 0001:00046d30       ?master_selection@D3DX@@YGXPAUjpeg_decompress_struct@1@@Z 00447d30 f   d3dx9:jdmaster.obj
 0001:00046ed0       ?prepare_for_output_pass@D3DX@@YGXPAUjpeg_decompress_struct@1@@Z 00447ed0 f   d3dx9:jdmaster.obj
 0001:00047000       ?finish_output_pass@D3DX@@YGXPAUjpeg_decompress_struct@1@@Z 00448000 f   d3dx9:jdmaster.obj
 0001:00034dc0       ?get_soi@D3DX@@YGHPAUjpeg_decompress_struct@1@@Z 00435dc0 f   d3dx9:jdmarker.obj
 0001:00034e70       ?get_sof@D3DX@@YGHPAUjpeg_decompress_struct@1@HH@Z 00435e70 f   d3dx9:jdmarker.obj
 0001:00035130       ?get_sos@D3DX@@YGHPAUjpeg_decompress_struct@1@@Z 00436130 f   d3dx9:jdmarker.obj
 0001:000353f0       ?get_dht@D3DX@@YGHPAUjpeg_decompress_struct@1@@Z 004363f0 f   d3dx9:jdmarker.obj
 0001:000356c0       ?get_dqt@D3DX@@YGHPAUjpeg_decompress_struct@1@@Z 004366c0 f   d3dx9:jdmarker.obj
 0001:00035900       ?get_dri@D3DX@@YGHPAUjpeg_decompress_struct@1@@Z 00436900 f   d3dx9:jdmarker.obj
 0001:000359d0       ?examine_app0@D3DX@@YGXPAUjpeg_decompress_struct@1@PAEIJ@Z 004369d0 f   d3dx9:jdmarker.obj
 0001:00035bb0       ?examine_app14@D3DX@@YGXPAUjpeg_decompress_struct@1@PAEIJ@Z 00436bb0 f   d3dx9:jdmarker.obj
 0001:00035c50       ?get_interesting_appn@D3DX@@YGHPAUjpeg_decompress_struct@1@@Z 00436c50 f   d3dx9:jdmarker.obj
 0001:00035d90       ?skip_variable@D3DX@@YGHPAUjpeg_decompress_struct@1@@Z 00436d90 f   d3dx9:jdmarker.obj
 0001:00035e30       ?next_marker@D3DX@@YGHPAUjpeg_decompress_struct@1@@Z 00436e30 f   d3dx9:jdmarker.obj
 0001:00035f40       ?first_marker@D3DX@@YGHPAUjpeg_decompress_struct@1@@Z 00436f40 f   d3dx9:jdmarker.obj
 0001:00035fd0       ?read_markers@D3DX@@YGHPAUjpeg_decompress_struct@1@@Z 00436fd0 f   d3dx9:jdmarker.obj
 0001:000362e0       ?read_restart_marker@D3DX@@YGHPAUjpeg_decompress_struct@1@@Z 004372e0 f   d3dx9:jdmarker.obj
 0001:00036460       ?reset_marker_reader@D3DX@@YGXPAUjpeg_decompress_struct@1@@Z 00437460 f   d3dx9:jdmarker.obj
 0001:0004aba0       ?alloc_funny_pointers@D3DX@@YGXPAUjpeg_decompress_struct@1@@Z 0044bba0 f   d3dx9:jdmainct.obj
 0001:0004ac50       ?make_funny_pointers@D3DX@@YGXPAUjpeg_decompress_struct@1@@Z 0044bc50 f   d3dx9:jdmainct.obj
 0001:0004ada0       ?set_wraparound_pointers@D3DX@@YGXPAUjpeg_decompress_struct@1@@Z 0044bda0 f   d3dx9:jdmainct.obj
 0001:0004ae80       ?set_bottom_pointers@D3DX@@YGXPAUjpeg_decompress_struct@1@@Z 0044be80 f   d3dx9:jdmainct.obj
 0001:0004af30       ?process_data_simple_main@D3DX@@YGXPAUjpeg_decompress_struct@1@PAPAEPAII@Z 0044bf30 f   d3dx9:jdmainct.obj
 0001:0004afa0       ?process_data_context_main@D3DX@@YGXPAUjpeg_decompress_struct@1@PAPAEPAII@Z 0044bfa0 f   d3dx9:jdmainct.obj
 0001:0004b0d0       ?start_pass_main@D3DX@@YGXPAUjpeg_decompress_struct@1@W4J_BUF_MODE@1@@Z 0044c0d0 f   d3dx9:jdmainct.obj
 0001:00047070       ?initial_setup@D3DX@@YGXPAUjpeg_decompress_struct@1@@Z 00448070 f   d3dx9:jdinput.obj
 0001:00047250       ?per_scan_setup@D3DX@@YGXPAUjpeg_decompress_struct@1@@Z 00448250 f   d3dx9:jdinput.obj
 0001:000473e0       ?latch_quant_tables@D3DX@@YGXPAUjpeg_decompress_struct@1@@Z 004483e0 f   d3dx9:jdinput.obj
 0001:00047480       ?start_input_pass@D3DX@@YGXPAUjpeg_decompress_struct@1@@Z 00448480 f   d3dx9:jdinput.obj
 0001:000474c0       ?consume_markers@D3DX@@YGHPAUjpeg_decompress_struct@1@@Z 004484c0 f   d3dx9:jdinput.obj
 0001:00047580       ?reset_input_controller@D3DX@@YGXPAUjpeg_decompress_struct@1@@Z 00448580 f   d3dx9:jdinput.obj
 0001:000475d0       ?finish_input_pass@D3DX@@YGXPAUjpeg_decompress_struct@1@@Z 004485d0 f   d3dx9:jdinput.obj
 0001:0004c710       ?process_restart@D3DX@@YGHPAUjpeg_decompress_struct@1@@Z 0044d710 f   d3dx9:jdhuff.obj
 0001:0004c780       ?decode_mcu@D3DX@@YGHPAUjpeg_decompress_struct@1@PAPAY0EA@F@Z 0044d780 f   d3dx9:jdhuff.obj
 0001:0004cb90       ?start_pass_huff_decoder@D3DX@@YGXPAUjpeg_decompress_struct@1@@Z 0044db90 f   d3dx9:jdhuff.obj
 0001:0004d970       ?start_pass@D3DX@@YGXPAUjpeg_decompress_struct@1@@Z 0044e970 f   d3dx9:jddctmgr.obj
 0001:0004efe0       ?build_ycc_rgb_table@D3DX@@YGXPAUjpeg_decompress_struct@1@@Z 0044ffe0 f   d3dx9:jdcolor.obj
 0001:0004f0b0       ?ycc_rgb_convert@D3DX@@YGXPAUjpeg_decompress_struct@1@PAPAPAEIPAPAEH@Z 004500b0 f   d3dx9:jdcolor.obj
 0001:0004f1e0       ?ycc_rgb_convert_mmx@D3DX@@YGXPAUjpeg_decompress_struct@1@PAPAPAEIPAPAEH@Z 004501e0 f   d3dx9:jdcolor.obj
 0001:0004f350       ?null_convert@D3DX@@YGXPAUjpeg_decompress_struct@1@PAPAPAEIPAPAEH@Z 00450350 f   d3dx9:jdcolor.obj
 0001:0004f3e0       ?grayscale_convert@D3DX@@YGXPAUjpeg_decompress_struct@1@PAPAPAEIPAPAEH@Z 004503e0 f   d3dx9:jdcolor.obj
 0001:0004f410       ?gray_rgb_convert@D3DX@@YGXPAUjpeg_decompress_struct@1@PAPAPAEIPAPAEH@Z 00450410 f   d3dx9:jdcolor.obj
 0001:0004f470       ?ycck_cmyk_convert@D3DX@@YGXPAUjpeg_decompress_struct@1@PAPAPAEIPAPAEH@Z 00450470 f   d3dx9:jdcolor.obj
 0001:0004f5e0       ?build_cmyk_rgb_table@D3DX@@YGXPAUjpeg_decompress_struct@1@@Z 004505e0 f   d3dx9:jdcolor.obj
 0001:00050240       ?cmyk_rgb_convert@D3DX@@YGXPAUjpeg_decompress_struct@1@PAPAPAEIPAPAEH@Z 00451240 f   d3dx9:jdcolor.obj
 0001:00050420       ?ycck_rgb_convert@D3DX@@YGXPAUjpeg_decompress_struct@1@PAPAPAEIPAPAEH@Z 00451420 f   d3dx9:jdcolor.obj
 0001:00051520       ?start_pass_dcolor@D3DX@@YGXPAUjpeg_decompress_struct@1@@Z 00452520 f   d3dx9:jmemansi.obj
 0001:0004b210       ?start_iMCU_row@D3DX@@YGXPAUjpeg_decompress_struct@1@@Z 0044c210 f   d3dx9:jdcoefct.obj
 0001:0004b260       ?start_input_pass@D3DX@@YGXPAUjpeg_decompress_struct@1@@Z 0044c260 f   d3dx9:jdcoefct.obj
 0001:0004b280       ?decompress_onepass@D3DX@@YGHPAUjpeg_decompress_struct@1@PAPAPAE@Z 0044c280 f   d3dx9:jdcoefct.obj
 0001:0004b520       ?dummy_consume_data@D3DX@@YGHPAUjpeg_decompress_struct@1@@Z 0044c520 f   d3dx9:jdcoefct.obj
 0001:0004b530       ?consume_data@D3DX@@YGHPAUjpeg_decompress_struct@1@@Z 0044c530 f   d3dx9:jdcoefct.obj
 0001:0004b770       ?decompress_data@D3DX@@YGHPAUjpeg_decompress_struct@1@PAPAPAE@Z 0044c770 f   d3dx9:jdcoefct.obj
 0001:0004b900       ?smoothing_ok@D3DX@@YGHPAUjpeg_decompress_struct@1@@Z 0044c900 f   d3dx9:jdcoefct.obj
 0001:0004ba50       ?decompress_smooth_data@D3DX@@YGHPAUjpeg_decompress_struct@1@PAPAPAE@Z 0044ca50 f   d3dx9:jdcoefct.obj
 0001:0004c0b0       ?start_output_pass@D3DX@@YGXPAUjpeg_decompress_struct@1@@Z 0044d0b0 f   d3dx9:jdcoefct.obj
 0001:000347b0       ?output_pass_setup@D3DX@@YGHPAUjpeg_decompress_struct@1@@Z 004357b0 f   d3dx9:jdapistd.obj
 0001:00034a70       ?default_decompress_parms@D3DX@@YGXPAUjpeg_decompress_struct@1@@Z 00435a70 f   d3dx9:jdapimin.obj
 0001:00036510       ?error_exit@D3DX@@YGXPAUjpeg_common_struct@1@@Z 00437510 f   d3dx9:jerror.obj
 0001:00036530       ?output_message@D3DX@@YGXPAUjpeg_common_struct@1@@Z 00437530 f   d3dx9:jerror.obj
 0001:00036550       ?emit_message@D3DX@@YGXPAUjpeg_common_struct@1@H@Z 00437550 f   d3dx9:jerror.obj
 0001:00036590       ?format_message@D3DX@@YGXPAUjpeg_common_struct@1@PAD@Z 00437590 f   d3dx9:jerror.obj
 0001:00036640       ?reset_error_mgr@D3DX@@YGXPAUjpeg_common_struct@1@@Z 00437640 f   d3dx9:jerror.obj
 0001:000321eb       ?TokenEqual@D3DXShader@@YGHPBUD3DXTOKEN@1@0@Z 004331eb f   d3dx9:cnode.obj
 0001:00008f67       ?ScoreFormat@D3DXTex@@YGIPBU_D3DXFORMAT_INFO@@0@Z 00409f67 f   d3dx9:d3dx9tex.obj
 0001:000092b2       ?CheckTextureRequirements@@YGJPAUIDirect3DDevice9@@PAI111KPAW4_D3DFORMAT@@W4_D3DPOOL@@W4_D3DRESOURCETYPE@@@Z 0040a2b2 f   d3dx9:d3dx9tex.obj
 0001:00009bb8       ?CreateTextureFromFileInMemoryEx@@YGJPAUIDirect3DDevice9@@PBXIIIIIKW4_D3DFORMAT@@W4_D3DPOOL@@KKKPAU_D3DXIMAGE_INFO@@PAUtagPALETTEENTRY@@W4_D3DRESOURCETYPE@@PAPAUIDirect3DBaseTexture9@@@Z 0040abb8 f   d3dx9:d3dx9tex.obj
 0001:000219e0       ?d3dx_jpeg_error_exit@D3DXTex@@YGXPAUjpeg_common_struct@D3DX@@@Z 004229e0 f   d3dx9:cimage.obj
 0001:00021a43       ?d3dx_jpeg_ignore_message@D3DXTex@@YGXPAUjpeg_common_struct@D3DX@@@Z 00422a43 f   d3dx9:cimage.obj
 0001:000219fb       ?d3dx_jpeg_output_message@D3DXTex@@YGXPAUjpeg_common_struct@D3DX@@@Z 004229fb f   d3dx9:cimage.obj
 0001:00021a43       ?d3dx_jpeg_init_source@D3DXTex@@YGXPAUjpeg_decompress_struct@D3DX@@@Z 00422a43 f   d3dx9:cimage.obj
 0001:00021a18       ?d3dx_jpeg_fill_input_buffer@D3DXTex@@YGHPAUjpeg_decompress_struct@D3DX@@@Z 00422a18 f   d3dx9:cimage.obj
 0001:00021a30       ?d3dx_jpeg_skip_input_data@D3DXTex@@YGXPAUjpeg_decompress_struct@D3DX@@J@Z 00422a30 f   d3dx9:cimage.obj
 0001:00021a43       ?d3dx_jpeg_term_source@D3DXTex@@YGXPAUjpeg_decompress_struct@D3DX@@@Z 00422a43 f   d3dx9:cimage.obj
 0001:000224bc       ?d3dx_png_read_fn@D3DXTex@@YAXPAUpng_struct_def@D3DX@@PAEI@Z 004234bc f   d3dx9:cimage.obj
 0001:000224fd       ?d3dx_png_error_fn@D3DXTex@@YAXPAUpng_struct_def@D3DX@@PBD@Z 004234fd f   d3dx9:cimage.obj
 0001:00033232       ?d3dx_png_warning_fn@D3DXTex@@YAXPAUpng_struct_def@D3DX@@PBD@Z 00434232 f   d3dx9:cnodeasm.obj
 0001:00023030       ?TF_SetupTriangle@D3DXTex@@YGPAEIIH@Z 00424030 f   d3dx9:cblt.obj
 0001:000235d0       ?c_BoxFilter2D_X8R8G8B8@D3DXTex@@YGJPAI0IIII@Z 004245d0 f   d3dx9:cblt.obj
 0001:000236ba       ?mmx_BoxFilter2D_A8R8G8B8@D3DXTex@@YGJPAI0IIII@Z 004246ba f   d3dx9:cblt.obj
 0001:000237d2       ?init_BoxFilter2D_A8R8G8B8@D3DXTex@@YGJPAI0IIII@Z 004247d2 f   d3dx9:cblt.obj
 0001:0002380a       ?init_BoxFilter2D_X8R8G8B8@D3DXTex@@YGJPAI0IIII@Z 0042480a f   d3dx9:cblt.obj
 0001:0002529c       ?LF_SetupLinear@D3DXTex@@YGPAEIIH@Z 0042629c f   d3dx9:cblt.obj
 0001:00038c21       ?Decode565@D3DXTex@@YGXPAUD3DXCOLOR@@G@Z 00439c21 f   d3dx9:dxtn.obj
 0001:00038c6d       ?DecodePremult@D3DXTex@@YGJPAUD3DXCOLOR@@@Z 00439c6d f   d3dx9:dxtn.obj
 0001:00038ceb       ?EncodePremult@D3DXTex@@YGJPAUD3DXCOLOR@@PBU2@@Z 00439ceb f   d3dx9:dxtn.obj
 0001:00038d1b       ?Encode565@D3DXTex@@YGGPBUD3DXCOLOR@@@Z 00439d1b f   d3dx9:dxtn.obj
 0001:00038e24       ?OptimizeAlpha@D3DXTex@@YGXPAM0PBMI@Z 00439e24 f   d3dx9:dxtn.obj
 0001:0003913f       ?OptimizeRGB@D3DXTex@@YGXPAUD3DXCOLOR@@0PBU2@I@Z 0043a13f f   d3dx9:dxtn.obj
 0001:000396be       ?EncodeDXT1@D3DXTex@@YGJPAEPBUD3DXCOLOR@@H@Z 0043a6be f   d3dx9:dxtn.obj
 0001:00017bd8       ?MakeCylinder@@YGXPAUVERTEX@@PAKPAGMMMII@Z 00418bd8 f   d3dx9:shapes.obj
 0001:00018190       ?MakeSphere@@YGXPAUVERTEX@@PAGMII@Z 00419190 f   d3dx9:shapes.obj
 0001:00018d53       ?GetD3DRegValue@@YGHKPADPAXK@Z 00419d53 f   d3dx9:cpudetect.obj
 0001:00018e85       ?IsIntelSSEProcessor@@YGKXZ 00419e85 f   d3dx9:cpudetect.obj
 0001:00004b26       ?WithinEpsilon@@YGHMM@Z    00405b26 f   d3dx9:d3dxmath.obj
 0001:00018d53       ?GetD3DRegValue@@YGHKPADPAXK@Z 00419d53 f   d3dx9:cpudetect.obj
 0001:0005bc12       _has_osfxsr_set            0045cc12 f   LIBC:cpu_disp.obj
 0001:00058acf       _$$$00002                  00459acf f   LIBC:pow.obj
 0001:00057e33       __abstract_cw              00458e33 f   LIBC:ieee87.obj
 0001:00057ec5       __hw_cw                    00458ec5 f   LIBC:ieee87.obj
 0001:00061590       _$$$00001                  00462590 f   LIBC:87trigh.obj
 0001:000609e0       _$$$00001                  004619e0 f   LIBC:87tran.obj
 0001:000595b4       _$$$00003                  0045a5b4 f   LIBC:87fmod.obj
 0001:0005bf83       _$$$00003                  0045cf83 f   LIBC:87disp.obj
 0001:0005961b       _$$$00002                  0045a61b f   LIBC:87ctran.obj
 0001:00059e18       __shift                    0045ae18 f   LIBC:cvt.obj
 0001:00064120       _$$$00001                  00465120 f   LIBC:strchr.obj
 0001:00059b9d       _init_namebuf              0045ab9d f   LIBC:tmpfile.obj
 0001:00059bfe       _genfname                  0045abfe f   LIBC:tmpfile.obj
 0001:0005a291       _write_char                0045b291 f   LIBC:output.obj
 0001:0005a2c4       _write_multi_char          0045b2c4 f   LIBC:output.obj
 0001:0005a2e8       _write_string              0045b2e8 f   LIBC:output.obj
 0001:00062d9b       _flsall                    00463d9b f   LIBC:fflush.obj
 0001:0005c868       _parse_cmdline             0045d868 f   LIBC:stdargv.obj
 0001:00059743       _doexit                    0045a743 f   LIBC:crt0dat.obj
 0001:000655eb       _siglookup                 004665eb f   LIBC:winsig.obj
 0001:00058142       __setlocale_get_all        00459142 f   LIBC:setlocal.obj
 0001:0005832d       __setlocale_set_cat        0045932d f   LIBC:setlocal.obj
 0001:00058750       _shortsort                 00459750 f   LIBC:qsort.obj
 0001:0005e2f8       __get_lc_time              0045f2f8 f   LIBC:inittime.obj
 0001:0005f2bd       _TranslateName             004602bd f   LIBC:getqloc.obj
 0001:0005f31d       _GetLcidFromDefault        0046031d f   LIBC:getqloc.obj
 0001:0005f337       _ProcessCodePage           00460337 f   LIBC:getqloc.obj
 0001:0005f3b3       _TestDefaultCountry        004603b3 f   LIBC:getqloc.obj
 0001:0005f3d1       _crtGetLocaleInfoA@16      004603d1 f   LIBC:getqloc.obj
 0001:0005f4b4       _LcidFromHexString         004604b4 f   LIBC:getqloc.obj
 0001:0005f4e9       _GetPrimaryLen             004604e9 f   LIBC:getqloc.obj
 0001:0005f506       _CountryEnumProc@4         00460506 f   LIBC:getqloc.obj
 0001:0005f5a0       _TestDefaultLanguage       004605a0 f   LIBC:getqloc.obj
 0001:0005f617       _LangCountryEnumProc@4     00460617 f   LIBC:getqloc.obj
 0001:0005f837       _LanguageEnumProc@4        00460837 f   LIBC:getqloc.obj
 0001:0005f908       _GetLcidFromCountry        00460908 f   LIBC:getqloc.obj
 0001:0005f93f       _GetLcidFromLangCountry    0046093f f   LIBC:getqloc.obj
 0001:0005f9c5       _GetLcidFromLanguage       004609c5 f   LIBC:getqloc.obj
 0001:0005931b       $$$00002                   0045a31b f   LIBC:setjmp3.obj
 0001:00056c6b       _report_failure            00457c6b f   LIBC:seccook.obj
 0001:00059224       $$$00001                   0045a224 f   LIBC:longjmp.obj
 0001:0005929d       $$$00003                   0045a29d f   LIBC:longjmp.obj
 0001:00059568       $$$00003                   0045a568 f   LIBC:exsup3.obj
 0001:00056fe4       $$$00001                   00457fe4 f   LIBC:exsup.obj
 0001:00057004       $$$00003                   00458004 f   LIBC:exsup.obj
 0001:00057004       __unwind_handler           00458004 f   LIBC:exsup.obj
 0001:00057026       $$$00005                   00458026 f   LIBC:exsup.obj
 0001:0005708e       $$$00007                   0045808e f   LIBC:exsup.obj
 0001:000570d2       $$$00011                   004580d2 f   LIBC:exsup.obj
 0001:0005b58c       _CPtoLCID                  0045c58c f   LIBC:mbctype.obj
 0001:0005b5bb       _setSBCS                   0045c5bb f   LIBC:mbctype.obj
 0001:0005b5e4       _setSBUpLow                0045c5e4 f   LIBC:mbctype.obj
 0001:000643bd       _x_ismbbtype               004653bd f   LIBC:ismbbyte.obj
 0001:00056d69       ?CatchGuardHandler@@YA?AW4_EXCEPTION_DISPOSITION@@PAUEHExceptionRecord@@PAUCatchGuardRN@@PAX2@Z 00457d69 f   LIBC:trnsctrl.obj
 0001:00056d8d       ?TranslatorGuardHandler@@YA?AW4_EXCEPTION_DISPOSITION@@PAUEHExceptionRecord@@PAUTranslatorGuardRN@@PAX2@Z 00457d8d f   LIBC:trnsctrl.obj
 0001:0005aca0       ?TypeMatch@@YAHPBU_s_HandlerType@@PBU_s_CatchableType@@PBU_s_ThrowInfo@@@Z 0045bca0 f   LIBC:frame.obj
 0001:0005acef       ?FrameUnwindFilter@@YAHPAU_EXCEPTION_POINTERS@@@Z 0045bcef f   LIBC:frame.obj
 0001:0005ae0a       ?AdjustPointer@@YAPAXPAXABUPMD@@@Z 0045be0a f   LIBC:frame.obj
 0001:0005ae27       ?CallCatchBlock@@YAPAXPAUEHExceptionRecord@@PAUEHRegistrationNode@@PAU_CONTEXT@@PBU_s_FuncInfo@@PAXHK@Z 0045be27 f   LIBC:frame.obj
 0001:0005afbd       ?BuildCatchObject@@YAXPAUEHExceptionRecord@@PAXPBU_s_HandlerType@@PBU_s_CatchableType@@@Z 0045bfbd f   LIBC:frame.obj
 0001:0005b139       ?CatchIt@@YAXPAUEHExceptionRecord@@PAUEHRegistrationNode@@PAU_CONTEXT@@PAXPBU_s_FuncInfo@@PBU_s_HandlerType@@PBU_s_CatchableType@@PBU_s_TryBlockMapEntry@@H1E@Z 0045c139 f   LIBC:frame.obj
 0001:0005b1a0       ?FindHandlerForForeignException@@YAXPAUEHExceptionRecord@@PAUEHRegistrationNode@@PAU_CONTEXT@@PAXPBU_s_FuncInfo@@HH1@Z 0045c1a0 f   LIBC:frame.obj
 0001:0005b262       ?FindHandler@@YAXPAUEHExceptionRecord@@PAUEHRegistrationNode@@PAU_CONTEXT@@PAXPBU_s_FuncInfo@@EH1@Z 0045c262 f   LIBC:frame.obj
 0001:000631fc       _xtoa                      004641fc f   LIBC:xtoa.obj
 0001:00063284       _strtoxl                   00464284 f   LIBC:strtol.obj

Line numbers for Release\win32.obj(d:\project\3d - final\win32.cpp) segment .text

    20 0001:00004830    19 0001:00004830    21 0001:00004844    28 0001:00004850
    30 0001:00004851    45 0001:0000486d    47 0001:00004877    49 0001:00004880
    51 0001:00004882    53 0001:0000488b    56 0001:0000488d    57 0001:00004896
    66 0001:0000489c    30 0001:0000489f    65 0001:000048a7    66 0001:000048bb
    33 0001:000048be    35 0001:000048c5    37 0001:000048ce    41 0001:000048d7
    66 0001:000048da    73 0001:000048e0    84 0001:000048f2    85 0001:0000490b
    95 0001:00004913    96 0001:0000495a   100 0001:0000496a   101 0001:00004986
   103 0001:00004998   106 0001:0000499e   113 0001:000049a4   115 0001:000049e6
   120 0001:000049e8   123 0001:00004a13   124 0001:00004a15   126 0001:00004a1b
   127 0001:00004a22   128 0001:00004a29   129 0001:00004a30   131 0001:00004a3b
   134 0001:00004a60   135 0001:00004a69   136 0001:00004a70   138 0001:00004a81
   139 0001:00004a8e   141 0001:00004aa2   142 0001:00004aaa   143 0001:00004ab6
   144 0001:00004ab8   146 0001:00004ac2   149 0001:00004ac6   150 0001:00004acd
   152 0001:00004ad8   155 0001:00004ada   139 0001:00004adf   160 0001:00004ae7
   161 0001:00004aec   163 0001:00004aff

Line numbers for Release\render.obj(d:\project\3d - final\global.h) segment .text

    51 0001:00066dc0    52 0001:00066dd0

Line numbers for Release\render.obj(d:\project\3d - final\render.cpp) segment .text

   405 0001:00002910   404 0001:00002910   406 0001:00002912   409 0001:00002920
   411 0001:00002926   415 0001:0000293c   416 0001:00002954   419 0001:0000296a
   420 0001:0000297e   421 0001:00002992   422 0001:000029a6   423 0001:000029ba
   424 0001:000029ce   425 0001:000029e2   426 0001:000029f6   429 0001:00002a0a
   430 0001:00002a1c   431 0001:00002a2e   432 0001:00002a40   434 0001:00002a58
   435 0001:00002a6a   436 0001:00002a7f   438 0001:00002a94   439 0001:00002aa9
   443 0001:00002ac1   444 0001:00002ac3   450 0001:00002add   451 0001:00002b1d
   452 0001:00002b2f   455 0001:00002b45   458 0001:00002b50   463 0001:00002b55
   577 0001:00002b69   470 0001:00002b70   471 0001:00002ba1   472 0001:00002ba8
   489 0001:00002bbc   490 0001:00002bd3   491 0001:00002bec   492 0001:00002c04
   493 0001:00002c1c   494 0001:00002c33   495 0001:00002c49   496 0001:00002c6c
   497 0001:00002c84   498 0001:00002ca7   533 0001:00002ccb   538 0001:00002e2f
   577 0001:00002e63   540 0001:00002e70   547 0001:00002e95   577 0001:00002e9f
   549 0001:00002ea0   551 0001:00002eac   552 0001:00002ec9   554 0001:00002f0a
   555 0001:00002f16   556 0001:00002f26   557 0001:00002f42   559 0001:00002f4e
   561 0001:00002f50   562 0001:00002f53   563 0001:00002f6e   564 0001:00002f8a
   575 0001:00002fb5   577 0001:00003027   580 0001:00003030   590 0001:00003033
   595 0001:0000304e   596 0001:000030ff   604 0001:00003110   606 0001:00003114
   609 0001:0000311e   611 0001:0000312c   615 0001:00003136   617 0001:00003138
   620 0001:00003142   622 0001:00003169   625 0001:0000317b   627 0001:00003196
   630 0001:000031a8   632 0001:000031ae   635 0001:000031c0   637 0001:000031c2
   641 0001:000031da   643 0001:000031ef   645 0001:00003210   646 0001:00003222
   648 0001:00003230   651 0001:00003249   653 0001:0000325b   654 0001:00003280
   655 0001:00003286   680 0001:00003299   682 0001:000032a1   684 0001:000032c6
   685 0001:000032d2   687 0001:000032e7   692 0001:000032ed   694 0001:000032f6
   697 0001:0000330b   699 0001:00003313   741 0001:00003328   712 0001:00003397
   716 0001:0000339d   660 0001:000033a2   662 0001:000033aa   664 0001:000033cb
   665 0001:000033dd   667 0001:000033e9   670 0001:00003402   672 0001:00003414
   673 0001:00003439   674 0001:0000343f   680 0001:00003454   718 0001:00003459
   721 0001:00003465   723 0001:00003469   724 0001:00003483   743 0001:000034da
   727 0001:000034de   729 0001:000034e3   730 0001:00003505   733 0001:00003535
   735 0001:00003540   736 0001:0000357c   743 0001:000035e5   739 0001:000035e9
   741 0001:000035ee   743 0001:0000361b   741 0001:0000361f   743 0001:00003622
   751 0001:00003630   752 0001:00003630   753 0001:00003649   755 0001:0000365e
   757 0001:0000366a   776 0001:0000367b   759 0001:00003680   762 0001:000036a7
   763 0001:000036be   764 0001:000036ca   773 0001:000036f0   774 0001:00003704
   775 0001:00003714   776 0001:00003724   785 0001:00003730   783 0001:00003730
   788 0001:00003748   872 0001:00003753   790 0001:00003760   791 0001:0000377e
   792 0001:0000379b   793 0001:000037af   794 0001:000037d6   795 0001:000037ea
   796 0001:00003802   872 0001:00003813   798 0001:00003820   799 0001:0000383b
   800 0001:00003864   788 0001:0000388b   805 0001:0000389f   808 0001:000038b4
   872 0001:000038bc   810 0001:000038c0   812 0001:00003925   813 0001:00003944
   814 0001:0000395c   819 0001:00003992   820 0001:000039a4   821 0001:000039b7
   822 0001:000039cb   823 0001:000039e9   824 0001:000039fd   825 0001:00003a15
   872 0001:00003a26   827 0001:00003a30   828 0001:00003a4b   829 0001:00003a6b
   833 0001:00003a92   834 0001:00003aa4   835 0001:00003ab8   836 0001:00003acc
   837 0001:00003aea   838 0001:00003afe   841 0001:00003b16   843 0001:00003b1f
   845 0001:00003b53   847 0001:00003b58   872 0001:00003b69   849 0001:00003b70
   850 0001:00003b8b   851 0001:00003bab   856 0001:00003bd2   857 0001:00003be4
   858 0001:00003bf6   860 0001:00003c08   861 0001:00003c1a   862 0001:00003c2c
   865 0001:00003c3e   866 0001:00003c52   867 0001:00003c5c   870 0001:00003c66
   871 0001:00003c78   872 0001:00003c8b   878 0001:00003c90   884 0001:00003c90
   885 0001:00003ca9   886 0001:00003cae   907 0001:00003cb1   889 0001:00003cb3
   890 0001:00003cbd   891 0001:00003cc3   907 0001:00003cc6   894 0001:00003cc7
   901 0001:00003ccf   907 0001:00003d01    46 0001:00003d10    49 0001:00003d16
    55 0001:00003d1a    57 0001:00003d94    58 0001:00003da2   291 0001:00003da5
    62 0001:00003db4    64 0001:00003dc1    65 0001:00003dcf   291 0001:00003dd2
    69 0001:00003de1    71 0001:00003df3    72 0001:00003e01   291 0001:00003e04
    75 0001:00003e15    78 0001:00003e21    79 0001:00003e50    81 0001:00003e61
    82 0001:00003e71   291 0001:00003e74    85 0001:00003e83    86 0001:00003e93
    88 0001:00003e95    92 0001:00003ea0    93 0001:00003ec7    95 0001:00003ec9
    96 0001:00003ee5    98 0001:00003ee7    99 0001:00003f04   101 0001:00003f0a
   102 0001:00003f27   104 0001:00003f2d   105 0001:00003f49   110 0001:00003f4f
   111 0001:00003f5c   113 0001:00003f64   114 0001:00003f74   291 0001:00003f77
   118 0001:00003f86   120 0001:00003fa8   121 0001:00003fb8   291 0001:00003fbb
   124 0001:00003fca   126 0001:00003fec   127 0001:00003ffc   291 0001:00003fff
   130 0001:0000400e   132 0001:00004030   133 0001:00004040   291 0001:00004043
   136 0001:00004052   138 0001:00004074   139 0001:00004084   291 0001:00004087
   142 0001:00004096   144 0001:000040b8   145 0001:000040c8   291 0001:000040cb
   148 0001:000040da   150 0001:000040fc   151 0001:0000410c   291 0001:0000410f
   159 0001:0000411e   161 0001:0000414c   162 0001:0000415c   291 0001:0000415f
   165 0001:0000416e   167 0001:00004173   168 0001:0000417d   170 0001:00004196
   291 0001:00004198   172 0001:000041a0   175 0001:000041c6   291 0001:000041d8
   178 0001:000041e0   181 0001:000041f4   183 0001:0000421a   291 0001:0000421c
   186 0001:00004220   235 0001:00004273   202 0001:00004277   209 0001:00004281
   212 0001:00004287   214 0001:000042d5   215 0001:000042e5   291 0001:000042e8
   188 0001:000042f7   189 0001:00004307   291 0001:0000430a   218 0001:00004319
   219 0001:00004323   220 0001:00004339   222 0001:00004350   291 0001:00004368
   225 0001:00004370   228 0001:00004384   233 0001:000043ab   235 0001:000043c3
   222 0001:000043ee   235 0001:0000440a   242 0001:0000440e   244 0001:00004418
   250 0001:0000441d   252 0001:0000444d   253 0001:0000445d   291 0001:00004460
   237 0001:0000446f   238 0001:0000447f   291 0001:00004482   256 0001:00004491
   261 0001:00004498   263 0001:000044b6   264 0001:000044c6   291 0001:000044c9
   267 0001:000044d8   271 0001:000044e9   273 0001:000044f2   274 0001:00004502
   291 0001:00004505   277 0001:00004514   283 0001:00004520   285 0001:0000452d
   288 0001:00004532   291 0001:0000453b   304 0001:00004550   297 0001:00004550
   306 0001:0000455c   308 0001:00004566   309 0001:00004571   316 0001:0000457b
   318 0001:00004580   321 0001:00004599   338 0001:0000459e   323 0001:000045a0
   326 0001:000045b9   327 0001:000045cf   328 0001:000045e5   330 0001:00004605
   331 0001:00004615   332 0001:0000462a   333 0001:0000463f   334 0001:00004654
   335 0001:00004669   336 0001:0000467e   337 0001:00004693   338 0001:000046af
   345 0001:000046b0   346 0001:000046b1   352 0001:000046be   353 0001:000046cb
   358 0001:000046d8   360 0001:000046fc   361 0001:00004713   365 0001:00004719
   366 0001:00004751   369 0001:0000475c   370 0001:0000477f   373 0001:00004781
   374 0001:00004796   376 0001:0000479b   378 0001:000047a0   380 0001:000047a5
   381 0001:000047c5   384 0001:000047d8   387 0001:000047dd   398 0001:00004809
   400 0001:00004817   401 0001:0000482a    29 0001:00066df0

Line numbers for Release\cship.obj(d:\project\3d - final\class\cship.cpp) segment .text

     6 0001:000028f0     8 0001:000028f8     9 0001:000028ff

Line numbers for Release\cplanet.obj(d:\project\3d - final\class\cplanet.cpp) segment .text

     5 0001:000028a0     7 0001:000028a8    18 0001:000028b0    17 0001:000028b0
    22 0001:000028b4    25 0001:000028d0    26 0001:000028dd    28 0001:000028e8

Line numbers for Release\cobject3d.obj(d:\project\3d - final\class\cobject3d.cpp) segment .text

     4 0001:00002890     6 0001:00002892

Line numbers for Release\particles.obj(d:\project\3d - final\dx\particles.cpp) segment .text

    23 0001:00002030    25 0001:00002032    26 0001:00002036    27 0001:00002039
    30 0001:0000203c    31 0001:0000203f    32 0001:00002042    43 0001:00002050
    45 0001:00002050    46 0001:0000205b    49 0001:00002061    52 0001:00002075
    55 0001:0000207c    58 0001:00002086    61 0001:00002093    69 0001:0000209d
    78 0001:000020c9    87 0001:000020f9    96 0001:00002129   105 0001:00002158
   114 0001:00002188   120 0001:000021b8   125 0001:000021d7   127 0001:000021f5
   128 0001:00002208   154 0001:0000221a   129 0001:00002220   130 0001:00002231
   131 0001:0000223d   132 0001:00002246   133 0001:00002252   134 0001:0000225b
   136 0001:00002274   139 0001:0000227d   141 0001:00002287   142 0001:000022a3
   144 0001:000022af   145 0001:000022c8   154 0001:000022cb   150 0001:000022ce
   153 0001:000022d4   154 0001:000022da   159 0001:000022e0   157 0001:000022e0
   160 0001:000022f0   161 0001:000022f6   165 0001:000022f8   167 0001:00002300
   168 0001:00002302   169 0001:00002325   170 0001:00002333   174 0001:00002339
   175 0001:00002348   180 0001:00002363   181 0001:00002372   185 0001:00002382
   186 0001:000023ac   187 0001:000023b2   190 0001:000023c0   192 0001:000023c1
   193 0001:000023dd   194 0001:000023e0   195 0001:000023ea   199 0001:000023f0
   200 0001:000023f9   201 0001:00002410   202 0001:00002414   203 0001:0000241b
   204 0001:00002422   205 0001:0000243d   215 0001:00002440   217 0001:0000244a
   221 0001:00002490   222 0001:0000249c   223 0001:000024af   226 0001:000024c2
   227 0001:000024e1   228 0001:000024f2   232 0001:00002507   233 0001:00002532
   234 0001:0000255e   235 0001:00002573   237 0001:0000258c   238 0001:00002592
   218 0001:0000259d   238 0001:000025a0   241 0001:000025b0   245 0001:000025b6
   251 0001:000025de   252 0001:000025f1   256 0001:00002600   266 0001:00002606
   269 0001:00002620   272 0001:00002628   275 0001:00002630   277 0001:00002636
   281 0001:00002651   282 0001:00002654   283 0001:00002667   288 0001:00002685
   293 0001:000026a3   294 0001:00002743   295 0001:0000274d   296 0001:00002758
   297 0001:00002764   298 0001:00002766   299 0001:0000279b   300 0001:000027a5
   301 0001:000027ac   302 0001:000027b3   306 0001:000027b7   309 0001:000027c9
   310 0001:000027d2   313 0001:000027f1   316 0001:00002808   321 0001:0000280e
   325 0001:00002819   328 0001:00002822   329 0001:00002826   331 0001:00002857
   334 0001:00002860   335 0001:00002863   336 0001:00002870   337 0001:0000287e
    36 0001:00002880    35 0001:00002880

Line numbers for Release\dxutil.obj(d:\project\3d - final\dx\dxutil.cpp) segment .text

   343 0001:00001b80   336 0001:00001b80   350 0001:00001b92   351 0001:00001ba7
   352 0001:00001bb4   355 0001:00001bcf   366 0001:00001bd7   367 0001:00001bf7
   368 0001:00001c03   369 0001:00001c05   372 0001:00001c24   374 0001:00001c29
   375 0001:00001c52   511 0001:00001c60   380 0001:00001c66   382 0001:00001c6b
   383 0001:00001c7b   511 0001:00001c93   387 0001:00001c99   393 0001:00001c9d
   511 0001:00001ccf   397 0001:00001cd5   399 0001:00001cda   400 0001:00001ce2
   404 0001:00001d06   511 0001:00001d2d   408 0001:00001d33   410 0001:00001d38
   412 0001:00001d40   413 0001:00001d4b   414 0001:00001d56   416 0001:00001d60
   511 0001:00001d6a   420 0001:00001d70   422 0001:00001d75   423 0001:00001d8a
   511 0001:00001da4   426 0001:00001daa   429 0001:00001db3   511 0001:00001dc3
   445 0001:00001dc9   446 0001:00001dea   447 0001:00001df0   448 0001:00001df2
   451 0001:00001e10   453 0001:00001e15   454 0001:00001e25   455 0001:00001e2b
   511 0001:00001e2f   459 0001:00001e35   461 0001:00001e3a   511 0001:00001e44
   465 0001:00001e4a   467 0001:00001e4f   468 0001:00001e56   471 0001:00001e5c
   511 0001:00001e7e   475 0001:00001e84   477 0001:00001e89   478 0001:00001e91
   480 0001:00001ea6   482 0001:00001eac   511 0001:00001ecf   486 0001:00001ed5
   488 0001:00001eda   490 0001:00001ee3   491 0001:00001eea   494 0001:00001ef0
   511 0001:00001f02   492 0001:00001f09   494 0001:00001f0b   511 0001:00001f14
   498 0001:00001f1a   500 0001:00001f22   501 0001:00001f37   511 0001:00001f3d
   504 0001:00001f43   491 0001:00001f48   509 0001:00001f4a   511 0001:00001f54
   525 0001:00001f60   526 0001:00001f62   530 0001:00001f7b   533 0001:00001f8a
   536 0001:00001fa3   527 0001:00001fa5   536 0001:00001fab  1070 0001:00001fb0
  1069 0001:00001fb0  1071 0001:00001fe1

Line numbers for Release\dxinput.obj(d:\project\3d - final\dx\dxinput.cpp) segment .text

    14 0001:00001a20    11 0001:00001a20    16 0001:00001a41    20 0001:00001a43
    22 0001:00001a5c    26 0001:00001a5e    28 0001:00001a70    35 0001:00001a72
    37 0001:00001a88    44 0001:00001a8a    41 0001:00001a8b    43 0001:00001a96
    44 0001:00001a98    60 0001:00001aa0    62 0001:00001aa1    63 0001:00001aa8
    65 0001:00001ac6    78 0001:00001ad3    70 0001:00001ad4    71 0001:00001adc
    72 0001:00001ae6    73 0001:00001afe    74 0001:00001b15    75 0001:00001b27
    76 0001:00001b3b    77 0001:00001b4f    78 0001:00001b7c

Line numbers for Release\dmutil.obj(d:\project\3d - final\dx\dmutil.cpp) segment .text

    62 0001:00001410    63 0001:00001413    64 0001:00001427    66 0001:0000143b
    69 0001:00001442    70 0001:00001450    72 0001:0000145c    75 0001:00001470
    76 0001:00001476    77 0001:0000147c   148 0001:00001480   149 0001:0000149c
   150 0001:000014a3   151 0001:000014aa   152 0001:000014b5   156 0001:000014bc
   159 0001:000014cc   161 0001:000014e4   524 0001:00001510   523 0001:00001510
   525 0001:00001517   526 0001:00001522   534 0001:00001526   536 0001:00001556
   537 0001:0000156a   540 0001:00001579   550 0001:00001580   551 0001:00001583
   554 0001:00001593   555 0001:0000159a   557 0001:000015a1   559 0001:000015a6
   560 0001:000015ab   561 0001:000015b7   562 0001:000015b9   565 0001:000015c3
   566 0001:000015d3   569 0001:000015e3   570 0001:000015e8   581 0001:000015f0
   582 0001:000015f1   585 0001:000015ff   586 0001:00001606   596 0001:0000160c
   590 0001:0000160f   591 0001:0000161e   595 0001:00001620   596 0001:0000163d
   583 0001:00001640   596 0001:00001646   607 0001:00001650   610 0001:00001653
   611 0001:0000165a   632 0001:00001660   616 0001:00001663   618 0001:0000166b
   620 0001:00001670   621 0001:00001672   623 0001:0000167c   625 0001:0000167e
   628 0001:00001685   629 0001:00001689   632 0001:00001691    87 0001:000016a0
    98 0001:000016a1    99 0001:000016cf   103 0001:000016d6   104 0001:000016ec
   111 0001:000016f2   113 0001:00001717   137 0001:00001722   123 0001:00001725
   124 0001:00001741   128 0001:00001749   132 0001:0000176c   136 0001:0000177e
   137 0001:00001784   269 0001:00001790   278 0001:000017bc   279 0001:000017e3
   280 0001:000017e5   283 0001:000017e7   284 0001:000017f1   285 0001:000017f5
   288 0001:000017ff   300 0001:00001807   302 0001:00001883   303 0001:0000188a
   307 0001:0000188c   308 0001:000018bd   309 0001:000018d1   311 0001:000018d8
   317 0001:000018dd   318 0001:000018f3   321 0001:000018f5   328 0001:000018fa
   329 0001:00001904   332 0001:00001906   333 0001:00001908    20 0001:00001950
    24 0001:00001963    25 0001:000019a4    27 0001:000019c0    37 0001:000019c3
    32 0001:000019dc    33 0001:000019ec    35 0001:000019f8    37 0001:000019ff

Line numbers for Release\d3dutil.obj(d:\project\3d - final\dx\d3dutil.cpp) segment .text

    25 0001:00001350    24 0001:00001350    26 0001:00001360    27 0001:00001369
    28 0001:00001374    29 0001:00001380    30 0001:00001390    39 0001:000013a0
    40 0001:000013a3    41 0001:000013b0    42 0001:000013c8    46 0001:000013cc
    47 0001:000013ee    48 0001:000013f2    49 0001:000013f6    50 0001:00001404
    51 0001:0000140c

Line numbers for Release\d3dfont.obj(d:\project\3d - final\dx\d3dfont.cpp) segment .text

    51 0001:00000320    50 0001:00000320    53 0001:00000330    54 0001:00000334
    55 0001:0000033d    57 0001:00000343    58 0001:00000346    59 0001:00000349
    61 0001:0000034c    62 0001:00000352    63 0001:00000361    92 0001:00000370
    87 0001:00000370    93 0001:0000039d    98 0001:000003a0   100 0001:000003de
   104 0001:000003f1   116 0001:00000400   121 0001:00000403   122 0001:00000428
   162 0001:0000042e   123 0001:00000434   126 0001:0000045a   127 0001:0000045c
   130 0001:0000045e   133 0001:00000460   136 0001:00000483   138 0001:0000049d
   139 0001:0000049f   143 0001:000004a3   146 0001:000004af   149 0001:000004bb
   152 0001:000004dd   153 0001:00000511   154 0001:00000546   155 0001:0000057c
   158 0001:000005ad   161 0001:000005ca   162 0001:000005cd   134 0001:000005d6
   162 0001:000005dc   144 0001:000005e5   162 0001:000005eb   174 0001:00000600
   183 0001:00000606   189 0001:00000615   190 0001:00000638   192 0001:00000641
   193 0001:00000650   196 0001:00000658   200 0001:00000668   201 0001:0000066d
   204 0001:00000687   207 0001:000006ab   213 0001:000006b3   215 0001:000006c1
   217 0001:000006d3   218 0001:000006f9   220 0001:000006ff   226 0001:00000704
   227 0001:00000708   231 0001:00000714   233 0001:00000729   234 0001:00000738
   237 0001:00000740   241 0001:00000748   248 0001:0000075f   249 0001:00000780
   257 0001:00000788   265 0001:0000078b   267 0001:000007da   270 0001:000007e6
   271 0001:000007f6   272 0001:000007ff   275 0001:00000808   276 0001:00000814
   281 0001:0000081c   288 0001:0000082f   291 0001:00000840   320 0001:00000849
   293 0001:00000850   294 0001:00000864   296 0001:00000866   298 0001:00000875
   300 0001:00000877   291 0001:0000087c   300 0001:0000087f   291 0001:00000887
   303 0001:0000088b   306 0001:0000089d   310 0001:0000089f   311 0001:000008a6
   313 0001:000008ae   314 0001:000008bc   315 0001:000008c4   316 0001:000008d1
   317 0001:000008d8   319 0001:000008df   320 0001:000008e5   330 0001:000008f0
   337 0001:000008fa   339 0001:00000918   344 0001:0000091e   350 0001:0000093d
   351 0001:0000094f   352 0001:0000095e   354 0001:00000974   357 0001:00000983
   359 0001:000009ac   361 0001:000009b1   363 0001:000009c3   367 0001:000009d6
   369 0001:000009d8   370 0001:000009e4   372 0001:000009f5   373 0001:000009f9
   374 0001:00000a0b   375 0001:00000a0d   377 0001:00000a19   379 0001:00000a1f
   380 0001:00000a31   381 0001:00000a41   383 0001:00000a51   385 0001:00000a53
   387 0001:00000a5f   388 0001:00000a6f   389 0001:00000a7f   390 0001:00000a8f
   391 0001:00000a9f   392 0001:00000aaf   393 0001:00000abe   394 0001:00000ad1
   395 0001:00000ae3   396 0001:00000af5   397 0001:00000b07   400 0001:00000b16
   401 0001:00000b29   402 0001:00000b3a   403 0001:00000b4b   404 0001:00000b5b
   405 0001:00000b6c   406 0001:00000b7d   407 0001:00000b8d   408 0001:00000b9d
   409 0001:00000bad   410 0001:00000bbf   411 0001:00000bd1   412 0001:00000be2
   413 0001:00000bf3   415 0001:00000c03   416 0001:00000c05   418 0001:00000c12
   421 0001:00000c2a   422 0001:00000c2f   448 0001:00000c40   449 0001:00000c43
   450 0001:00000c57   452 0001:00000c5e   453 0001:00000c61   649 0001:00000c70
   650 0001:00000c79   651 0001:00000c84   765 0001:00000c8a   654 0001:00000c93
   655 0001:00000ca0   656 0001:00000cac   657 0001:00000cbd   658 0001:00000cca
   661 0001:00000cde   663 0001:00000cea   664 0001:00000cfb   668 0001:00000d0c
   671 0001:00000d15   673 0001:00000d26   675 0001:00000d33   677 0001:00000d38
   679 0001:00000d3b   681 0001:00000d3f   685 0001:00000d4e   687 0001:00000d53
   689 0001:00000d5a   764 0001:00000d7c   689 0001:00000d8c   692 0001:00000d9b
   694 0001:00000dbe   697 0001:00000dc3   699 0001:00000dd4   698 0001:00000de6
   699 0001:00000de9   698 0001:00000dfc   699 0001:00000dfe   703 0001:00000e0d
   709 0001:00000e2a   711 0001:00000e55   765 0001:00000e6e   713 0001:00000e70
   715 0001:00000e78   718 0001:00000e84   721 0001:00000eb8   724 0001:00000ecf
   725 0001:00000ed8   726 0001:00000edb   729 0001:00000ee9   730 0001:00000f16
   732 0001:00000f36   734 0001:00000f49   735 0001:00000fe7   736 0001:00001018
   737 0001:0000110a   738 0001:0000113a   739 0001:00001175   740 0001:0000125b
   742 0001:00001282   745 0001:00001291   746 0001:0000129a   748 0001:000012b0
   749 0001:000012c9   730 0001:000012cf   749 0001:000012d1   753 0001:000012d3
   757 0001:00001315   758 0001:0000131e   759 0001:00001323   762 0001:00001334
   764 0001:00001342   765 0001:00001345

Line numbers for Release\d3d.obj(d:\project\3d - final\dx\d3d.cpp) segment .text

    13 0001:00000000    22 0001:0000000a    26 0001:0000003b    27 0001:00000046
    28 0001:0000004c    33 0001:0000004e    38 0001:0000005b    46 0001:00000064
    47 0001:0000006b    48 0001:0000007a    49 0001:00000082    50 0001:0000008a
    51 0001:0000008e    57 0001:00000096    66 0001:00000098    71 0001:000000a4
    72 0001:000000ba    73 0001:000000cb    74 0001:000000cf    84 0001:000000d3
    85 0001:000000f2    86 0001:000000f7    88 0001:00000110    90 0001:00000127
   100 0001:0000012d    98 0001:00000168   100 0001:0000016a   101 0001:0000017d
   104 0001:00000191   105 0001:000001a4   106 0001:000001b5   107 0001:000001c5
   110 0001:000001d5   111 0001:000001e7   112 0001:000001f8   115 0001:0000020a
   116 0001:0000021c   118 0001:00000231   119 0001:00000234    23 0001:0000023b
   119 0001:00000244   153 0001:00000250   157 0001:00000251   162 0001:0000026f
   164 0001:00000286   166 0001:0000029d   169 0001:0000029f   170 0001:000002b6
   171 0001:000002b8   174 0001:000002c2   175 0001:000002d2   178 0001:000002df
   179 0001:000002e2   158 0001:000002e3   179 0001:000002eb

Line numbers for E:\SDK9\Lib\d3dx9.lib(..\d3dxvec4.asm) segment .text

    62 0001:0003ef80   114 0001:0003ef83   115 0001:0003ef87   116 0001:0003ef8b
   118 0001:0003ef8e   119 0001:0003ef92   120 0001:0003ef96   121 0001:0003ef9a
   123 0001:0003ef9e   124 0001:0003efa1   126 0001:0003efa3   127 0001:0003efa7
   129 0001:0003efab   130 0001:0003efae   131 0001:0003efb2   132 0001:0003efb6
   135 0001:0003efba   136 0001:0003efbe   137 0001:0003efc2   138 0001:0003efc7
   139 0001:0003efcb   140 0001:0003efd0   141 0001:0003efd4   142 0001:0003efd9
   143 0001:0003efdd   145 0001:0003efe0   146 0001:0003efe3   147 0001:0003efe6
   148 0001:0003efe9   150 0001:0003efec   151 0001:0003efef   152 0001:0003eff2
   155 0001:0003eff5   156 0001:0003eff8   157 0001:0003effb   158 0001:0003effe
   161 0001:0003f000   163 0001:0003f004   164 0001:0003f007   165 0001:0003f00b
   166 0001:0003f00f   169 0001:0003f012

Line numbers for E:\SDK9\Lib\d3dx9.lib(..\d3dxvec3.asm) segment .text

    72 0001:0003f6c0   129 0001:0003f6c3   130 0001:0003f6c7   131 0001:0003f6cb
   133 0001:0003f6ce   134 0001:0003f6d2   135 0001:0003f6d6   136 0001:0003f6da
   138 0001:0003f6de   139 0001:0003f6e1   141 0001:0003f6e3   142 0001:0003f6e7
   144 0001:0003f6eb   145 0001:0003f6ee   146 0001:0003f6f2   147 0001:0003f6f6
   150 0001:0003f6fa   151 0001:0003f6fe   152 0001:0003f702   153 0001:0003f707
   154 0001:0003f70b   155 0001:0003f710   156 0001:0003f714   158 0001:0003f717
   159 0001:0003f71a   160 0001:0003f71d   162 0001:0003f720   163 0001:0003f723
   164 0001:0003f726   167 0001:0003f729   168 0001:0003f72c   169 0001:0003f72f
   170 0001:0003f732   173 0001:0003f734   175 0001:0003f738   176 0001:0003f73b
   177 0001:0003f73f   178 0001:0003f743   181 0001:0003f746   433 0001:0003f760
   486 0001:0003f766   487 0001:0003f76d   488 0001:0003f774   490 0001:0003f77b
   491 0001:0003f77d   493 0001:0003f780   494 0001:0003f786   495 0001:0003f78c
   497 0001:0003f792   498 0001:0003f795   501 0001:0003f797   502 0001:0003f79d
   505 0001:0003f7a0   507 0001:0003f7a6   508 0001:0003f7a9   509 0001:0003f7ac
   510 0001:0003f7b0   511 0001:0003f7b4   513 0001:0003f7b9   515 0001:0003f7bf
   516 0001:0003f7c5   517 0001:0003f7cb   519 0001:0003f7d1   520 0001:0003f7d7
   524 0001:0003f7d9   526 0001:0003f8cf   527 0001:0003f8d5   528 0001:0003f8db
   531 0001:0003f8e1   532 0001:0003f8e4   535 0001:0003f8ea   536 0001:0003f8ed
   537 0001:0003f8f1   538 0001:0003f8f6   539 0001:0003f8fc   540 0001:0003f8ff
   541 0001:0003f902   542 0001:0003f905   543 0001:0003f908   544 0001:0003f90c
   545 0001:0003f911   546 0001:0003f917   547 0001:0003f91a   548 0001:0003f91d
   549 0001:0003f920   550 0001:0003f923   551 0001:0003f926   552 0001:0003f929
   555 0001:0003f92c   556 0001:0003f92f   557 0001:0003f932   558 0001:0003f935
   559 0001:0003f939   560 0001:0003f93e   561 0001:0003f943   562 0001:0003f948
   563 0001:0003f94b   564 0001:0003f94e   565 0001:0003f953   566 0001:0003f958
   567 0001:0003f95b   568 0001:0003f95e   569 0001:0003f961   570 0001:0003f966
   571 0001:0003f96b   572 0001:0003f96e   573 0001:0003f971   574 0001:0003f974
   575 0001:0003f977   576 0001:0003f97a   577 0001:0003f982   578 0001:0003f98a
   579 0001:0003f992   580 0001:0003f99a   581 0001:0003f99d   582 0001:0003f9a0
   583 0001:0003f9a3   584 0001:0003f9a6   585 0001:0003f9ad   586 0001:0003f9b5
   587 0001:0003f9bd   588 0001:0003f9c5   591 0001:0003f9cd   592 0001:0003f9d0
   593 0001:0003f9d3   594 0001:0003f9d6   596 0001:0003f9d9   597 0001:0003f9dc
   598 0001:0003f9df   601 0001:0003f9e2   602 0001:0003f9e5   603 0001:0003f9e8
   606 0001:0003f9eb   607 0001:0003f9ee   608 0001:0003f9f3   609 0001:0003f9f7
   610 0001:0003f9fa   611 0001:0003f9fe   612 0001:0003fa04   614 0001:0003fa08
   616 0001:0003fa0b   617 0001:0003fa0e   618 0001:0003fa13   619 0001:0003fa17
   620 0001:0003fa1a   621 0001:0003fa1e   623 0001:0003fa24   624 0001:0003fa27
   625 0001:0003fa2a   631 0001:0003fa2f   632 0001:0003fa32   635 0001:0003fa34
   636 0001:0003fa37   637 0001:0003fa3a   639 0001:0003fa3d   640 0001:0003fa3f
   641 0001:0003fa41   642 0001:0003fa46   643 0001:0003fa4c   645 0001:0003fa52
   649 0001:0003fa57   651 0001:0003fa5d   652 0001:0003fa5f   653 0001:0003fa66
   654 0001:0003fa6d   655 0001:0003fa74   658 0001:0003fa7a   690 0001:0003fa80
   743 0001:0003fa86   744 0001:0003fa8d   745 0001:0003fa94   747 0001:0003fa9b
   748 0001:0003fa9d   750 0001:0003faa0   751 0001:0003faa6   752 0001:0003faac
   754 0001:0003fab2   755 0001:0003fab5   758 0001:0003fab7   759 0001:0003fabd
   762 0001:0003fac0   764 0001:0003fac6   765 0001:0003fac9   766 0001:0003facc
   767 0001:0003fad0   768 0001:0003fad4   770 0001:0003fad9   772 0001:0003fadf
   773 0001:0003fae5   774 0001:0003faeb   776 0001:0003faf1   777 0001:0003faf7
   781 0001:0003faf9   782 0001:0003fafd   783 0001:0003fb02   784 0001:0003fb07
   785 0001:0003fb0c   786 0001:0003fb10   787 0001:0003fb14   788 0001:0003fb18
   789 0001:0003fb1c   790 0001:0003fb21   791 0001:0003fb26   792 0001:0003fb2b
   793 0001:0003fb30   794 0001:0003fb34   795 0001:0003fb38   796 0001:0003fb3c
   797 0001:0003fb40   798 0001:0003fb44   799 0001:0003fb49   800 0001:0003fb4e
   801 0001:0003fb53   802 0001:0003fb58   803 0001:0003fb5d   804 0001:0003fb62
   805 0001:0003fb67   806 0001:0003fb6c   807 0001:0003fb71   808 0001:0003fb76
   809 0001:0003fb7b   810 0001:0003fb7f   811 0001:0003fb83   812 0001:0003fb87
   813 0001:0003fb8b   814 0001:0003fb93   815 0001:0003fb9b   816 0001:0003fba3
   818 0001:0003fbab   819 0001:0003fbb1   820 0001:0003fbb7   823 0001:0003fbbd
   824 0001:0003fbc0   827 0001:0003fbc6   828 0001:0003fbc9   829 0001:0003fbcd
   830 0001:0003fbd2   831 0001:0003fbd8   832 0001:0003fbdb   833 0001:0003fbde
   834 0001:0003fbe1   835 0001:0003fbe4   836 0001:0003fbe8   837 0001:0003fbed
   838 0001:0003fbf3   839 0001:0003fbf6   840 0001:0003fbf9   841 0001:0003fbfc
   842 0001:0003fbff   843 0001:0003fc02   844 0001:0003fc05   847 0001:0003fc08
   848 0001:0003fc0b   849 0001:0003fc0e   850 0001:0003fc12   851 0001:0003fc17
   852 0001:0003fc1c   853 0001:0003fc1f   854 0001:0003fc22   855 0001:0003fc27
   856 0001:0003fc2c   857 0001:0003fc31   858 0001:0003fc34   859 0001:0003fc37
   860 0001:0003fc3a   861 0001:0003fc3d   862 0001:0003fc40   863 0001:0003fc48
   864 0001:0003fc50   865 0001:0003fc58   866 0001:0003fc5b   867 0001:0003fc5e
   870 0001:0003fc61   871 0001:0003fc64   872 0001:0003fc67   875 0001:0003fc6a
   876 0001:0003fc6d   877 0001:0003fc72   878 0001:0003fc76   879 0001:0003fc79
   880 0001:0003fc7d   881 0001:0003fc83   883 0001:0003fc87   885 0001:0003fc8a
   886 0001:0003fc8d   887 0001:0003fc92   888 0001:0003fc96   889 0001:0003fc99
   890 0001:0003fc9d   892 0001:0003fca3   893 0001:0003fca6   894 0001:0003fca9
   900 0001:0003fcae   901 0001:0003fcb1   904 0001:0003fcb3   905 0001:0003fcb6
   906 0001:0003fcb9   908 0001:0003fcbc   909 0001:0003fcbe   910 0001:0003fcc0
   911 0001:0003fcc5   912 0001:0003fccb   914 0001:0003fcd1   918 0001:0003fcd6
   920 0001:0003fcdc   921 0001:0003fcde   922 0001:0003fce5   923 0001:0003fcec
   924 0001:0003fcf3   927 0001:0003fcf9

Line numbers for E:\SDK9\Lib\d3dx9.lib(..\d3dxvec2.asm) segment .text

    77 0001:0003f040   130 0001:0003f046   131 0001:0003f04d   132 0001:0003f054
   134 0001:0003f05b   135 0001:0003f05d   137 0001:0003f060   138 0001:0003f066
   139 0001:0003f06c   141 0001:0003f072   142 0001:0003f075   145 0001:0003f077
   146 0001:0003f07d   149 0001:0003f080   151 0001:0003f086   152 0001:0003f089
   153 0001:0003f08c   154 0001:0003f090   155 0001:0003f094   157 0001:0003f099
   159 0001:0003f09f   160 0001:0003f0a5   161 0001:0003f0ab   163 0001:0003f0b1
   164 0001:0003f0b7   168 0001:0003f0b9   169 0001:0003f0bd   170 0001:0003f0c2
   171 0001:0003f0c7   172 0001:0003f0cc   173 0001:0003f0d0   174 0001:0003f0d4
   175 0001:0003f0d8   176 0001:0003f0dc   177 0001:0003f0e1   178 0001:0003f0e6
   179 0001:0003f0eb   180 0001:0003f0f0   181 0001:0003f0f4   182 0001:0003f0f8
   183 0001:0003f0fc   184 0001:0003f100   185 0001:0003f104   186 0001:0003f109
   187 0001:0003f10e   188 0001:0003f113   189 0001:0003f118   190 0001:0003f11d
   191 0001:0003f122   192 0001:0003f127   193 0001:0003f12c   194 0001:0003f131
   195 0001:0003f136   196 0001:0003f13b   197 0001:0003f13f   198 0001:0003f143
   199 0001:0003f147   200 0001:0003f14b   201 0001:0003f153   202 0001:0003f15b
   203 0001:0003f163   205 0001:0003f16b   206 0001:0003f171   207 0001:0003f177
   210 0001:0003f17d   211 0001:0003f180   214 0001:0003f186   215 0001:0003f189
   216 0001:0003f18d   217 0001:0003f190   218 0001:0003f193   219 0001:0003f196
   220 0001:0003f19a   221 0001:0003f19d   222 0001:0003f1a0   223 0001:0003f1a3
   224 0001:0003f1a6   227 0001:0003f1a9   228 0001:0003f1ac   229 0001:0003f1af
   230 0001:0003f1b2   231 0001:0003f1b6   232 0001:0003f1bb   233 0001:0003f1c0
   234 0001:0003f1c5   235 0001:0003f1c8   236 0001:0003f1cb   237 0001:0003f1ce
   238 0001:0003f1d3   239 0001:0003f1d8   240 0001:0003f1dd   241 0001:0003f1e2
   242 0001:0003f1e5   243 0001:0003f1e8   244 0001:0003f1eb   245 0001:0003f1ee
   246 0001:0003f1f6   247 0001:0003f1fe   248 0001:0003f206   251 0001:0003f20e
   252 0001:0003f211   253 0001:0003f214   254 0001:0003f217   255 0001:0003f21a
   256 0001:0003f21d   257 0001:0003f220   258 0001:0003f223   259 0001:0003f226
   260 0001:0003f229   261 0001:0003f22c   262 0001:0003f22f   263 0001:0003f232
   266 0001:0003f235   267 0001:0003f238   268 0001:0003f23c   269 0001:0003f23f
   270 0001:0003f242   272 0001:0003f246   273 0001:0003f249   274 0001:0003f24c
   280 0001:0003f251   281 0001:0003f254   284 0001:0003f256   285 0001:0003f259
   286 0001:0003f25c   288 0001:0003f25f   289 0001:0003f261   290 0001:0003f263
   291 0001:0003f268   292 0001:0003f26e   294 0001:0003f274   298 0001:0003f279
   300 0001:0003f27f   301 0001:0003f281   302 0001:0003f288   303 0001:0003f28f
   304 0001:0003f296   307 0001:0003f29c   345 0001:0003f2a0   398 0001:0003f2a6
   399 0001:0003f2ad   400 0001:0003f2b4   402 0001:0003f2bb   403 0001:0003f2bd
   405 0001:0003f2c0   406 0001:0003f2c6   407 0001:0003f2cc   409 0001:0003f2d2
   410 0001:0003f2d5   413 0001:0003f2d7   414 0001:0003f2dd   417 0001:0003f2e0
   419 0001:0003f2e6   420 0001:0003f2e9   421 0001:0003f2ec   422 0001:0003f2f0
   423 0001:0003f2f4   425 0001:0003f2f9   427 0001:0003f2ff   428 0001:0003f305
   429 0001:0003f30b   431 0001:0003f311   432 0001:0003f317   436 0001:0003f319
   437 0001:0003f31d   438 0001:0003f322   439 0001:0003f327   440 0001:0003f32c
   441 0001:0003f330   442 0001:0003f334   443 0001:0003f338   444 0001:0003f33c
   445 0001:0003f341   446 0001:0003f346   447 0001:0003f34b   448 0001:0003f350
   449 0001:0003f354   450 0001:0003f358   451 0001:0003f35c   452 0001:0003f360
   453 0001:0003f364   454 0001:0003f369   455 0001:0003f36e   456 0001:0003f373
   457 0001:0003f378   458 0001:0003f37d   459 0001:0003f382   460 0001:0003f387
   461 0001:0003f38c   462 0001:0003f391   463 0001:0003f396   464 0001:0003f39b
   465 0001:0003f39f   466 0001:0003f3a3   467 0001:0003f3a7   468 0001:0003f3ab
   469 0001:0003f3b3   470 0001:0003f3bb   471 0001:0003f3c3   473 0001:0003f3cb
   474 0001:0003f3d1   475 0001:0003f3d7   478 0001:0003f3dd   479 0001:0003f3e0
   482 0001:0003f3e6   483 0001:0003f3e9   484 0001:0003f3ed   485 0001:0003f3f0
   486 0001:0003f3f3   487 0001:0003f3f6   488 0001:0003f3fa   489 0001:0003f3fd
   490 0001:0003f400   491 0001:0003f403   492 0001:0003f406   495 0001:0003f409
   496 0001:0003f40c   497 0001:0003f40f   498 0001:0003f413   499 0001:0003f418
   500 0001:0003f41d   501 0001:0003f420   502 0001:0003f423   503 0001:0003f428
   504 0001:0003f42d   505 0001:0003f432   506 0001:0003f435   507 0001:0003f438
   508 0001:0003f43b   509 0001:0003f442   510 0001:0003f44a   511 0001:0003f452
   514 0001:0003f45a   515 0001:0003f45d   516 0001:0003f460   517 0001:0003f463
   519 0001:0003f466   520 0001:0003f469   523 0001:0003f46c   524 0001:0003f46f
   525 0001:0003f472   528 0001:0003f475   529 0001:0003f478   530 0001:0003f47b
   531 0001:0003f47f   532 0001:0003f482   533 0001:0003f485   534 0001:0003f488
   536 0001:0003f48c   537 0001:0003f48f   538 0001:0003f492   544 0001:0003f497
   545 0001:0003f49a   548 0001:0003f49c   549 0001:0003f49f   550 0001:0003f4a2
   552 0001:0003f4a5   553 0001:0003f4a7   554 0001:0003f4a9   555 0001:0003f4ae
   556 0001:0003f4b4   558 0001:0003f4ba   562 0001:0003f4bf   564 0001:0003f4c5
   565 0001:0003f4c7   566 0001:0003f4ce   567 0001:0003f4d5   568 0001:0003f4dc
   571 0001:0003f4e2   602 0001:0003f500   655 0001:0003f506   656 0001:0003f50d
   657 0001:0003f514   659 0001:0003f51b   660 0001:0003f51d   662 0001:0003f520
   663 0001:0003f526   664 0001:0003f52c   666 0001:0003f532   667 0001:0003f535
   670 0001:0003f537   671 0001:0003f53d   674 0001:0003f540   676 0001:0003f546
   677 0001:0003f549   678 0001:0003f54c   679 0001:0003f550   680 0001:0003f554
   682 0001:0003f559   684 0001:0003f55f   685 0001:0003f565   686 0001:0003f56b
   688 0001:0003f571   689 0001:0003f577   693 0001:0003f579   694 0001:0003f57d
   695 0001:0003f582   696 0001:0003f587   697 0001:0003f58c   698 0001:0003f590
   699 0001:0003f594   700 0001:0003f598   701 0001:0003f59c   702 0001:0003f5a1
   703 0001:0003f5a6   704 0001:0003f5ab   705 0001:0003f5b0   706 0001:0003f5b4
   707 0001:0003f5b8   708 0001:0003f5bc   709 0001:0003f5c0   710 0001:0003f5c4
   711 0001:0003f5c9   712 0001:0003f5ce   713 0001:0003f5d3   714 0001:0003f5d8
   715 0001:0003f5dd   716 0001:0003f5e2   718 0001:0003f5e7   719 0001:0003f5ed
   720 0001:0003f5f3   723 0001:0003f5f9   724 0001:0003f5fc   727 0001:0003f5fe
   728 0001:0003f601   729 0001:0003f605   730 0001:0003f608   731 0001:0003f60b
   732 0001:0003f60e   733 0001:0003f612   734 0001:0003f615   735 0001:0003f618
   736 0001:0003f61b   737 0001:0003f61e   740 0001:0003f621   741 0001:0003f624
   742 0001:0003f628   743 0001:0003f62d   744 0001:0003f630   745 0001:0003f635
   746 0001:0003f63a   747 0001:0003f63d   750 0001:0003f640   751 0001:0003f643
   752 0001:0003f646   755 0001:0003f649   756 0001:0003f64c   757 0001:0003f64f
   758 0001:0003f653   759 0001:0003f656   760 0001:0003f659   761 0001:0003f65c
   763 0001:0003f660   764 0001:0003f663   765 0001:0003f666   771 0001:0003f668
   772 0001:0003f66b   775 0001:0003f66d   776 0001:0003f670   777 0001:0003f673
   779 0001:0003f676   780 0001:0003f678   781 0001:0003f67a   782 0001:0003f67f
   783 0001:0003f685   785 0001:0003f68b   789 0001:0003f690   791 0001:0003f696
   792 0001:0003f698   793 0001:0003f69f   794 0001:0003f6a6   795 0001:0003f6ad
   798 0001:0003f6b3

Line numbers for E:\SDK9\Lib\d3dx9.lib(..\d3dxplane.asm) segment .text

    64 0001:0003eec0   116 0001:0003eec3   117 0001:0003eec7   118 0001:0003eecb
   120 0001:0003eece   121 0001:0003eed2   122 0001:0003eed6   123 0001:0003eeda
   125 0001:0003eede   126 0001:0003eee1   128 0001:0003eee3   129 0001:0003eee7
   131 0001:0003eeeb   132 0001:0003eeee   133 0001:0003eef2   134 0001:0003eef6
   137 0001:0003eefa   138 0001:0003eefe   139 0001:0003ef02   140 0001:0003ef07
   141 0001:0003ef0b   142 0001:0003ef10   143 0001:0003ef14   144 0001:0003ef19
   145 0001:0003ef1d   147 0001:0003ef20   148 0001:0003ef23   149 0001:0003ef26
   150 0001:0003ef29   152 0001:0003ef2c   153 0001:0003ef2f   154 0001:0003ef32
   157 0001:0003ef35   158 0001:0003ef38   159 0001:0003ef3b   160 0001:0003ef3e
   163 0001:0003ef40   165 0001:0003ef44   166 0001:0003ef47   167 0001:0003ef4b
   168 0001:0003ef4f   171 0001:0003ef52

Line numbers for E:\SDK9\Lib\d3dx9.lib(..\d3dxfloat16.asm) segment .text

    87 0001:00045a80   124 0001:00045a83   125 0001:00045a86   126 0001:00045a8a
   128 0001:00045a8e   130 0001:00045a90   131 0001:00045a93   132 0001:00045a96
   134 0001:00045a99   135 0001:00045a9c   138 0001:00045a9e   139 0001:00045aa1
   141 0001:00045aa7   142 0001:00045aaa   143 0001:00045aad   144 0001:00045ab1
   145 0001:00045ab5   148 0001:00045aba   152 0001:00045abf   153 0001:00045ac2
   156 0001:00045ac8   157 0001:00045acb   158 0001:00045acf   159 0001:00045ad2
   160 0001:00045ad9   161 0001:00045adc   163 0001:00045adf   164 0001:00045ae2
   165 0001:00045ae5   166 0001:00045ae8   167 0001:00045aeb   168 0001:00045aee
   169 0001:00045af1   171 0001:00045af8   172 0001:00045afb   173 0001:00045afe
   174 0001:00045b05   175 0001:00045b08   176 0001:00045b0b   177 0001:00045b0e
   179 0001:00045b11   180 0001:00045b14   181 0001:00045b17   182 0001:00045b1a
   183 0001:00045b1d   184 0001:00045b24   185 0001:00045b2b   186 0001:00045b2e
   187 0001:00045b31   188 0001:00045b38   190 0001:00045b3f   191 0001:00045b43
   192 0001:00045b47   193 0001:00045b4b   194 0001:00045b4f   195 0001:00045b53
   196 0001:00045b57   197 0001:00045b5a   199 0001:00045b5d   200 0001:00045b60
   202 0001:00045b64   203 0001:00045b67   204 0001:00045b6a   205 0001:00045b6d
   209 0001:00045b72   210 0001:00045b75   213 0001:00045b77   214 0001:00045b7a
   215 0001:00045b7c   216 0001:00045b7e   217 0001:00045b81   219 0001:00045b84
   220 0001:00045b86   221 0001:00045b88   223 0001:00045b8d   227 0001:00045b92
   229 0001:00045b94   231 0001:00045b97   232 0001:00045b9a   233 0001:00045b9e
   235 0001:00045ba2   237 0001:00045ba5   239 0001:00045ba7   286 0001:00045bc0
   325 0001:00045bc3   326 0001:00045bc7   327 0001:00045bcb   329 0001:00045bcf
   330 0001:00045bd1   332 0001:00045bd4   333 0001:00045bd7   334 0001:00045bda
   336 0001:00045bdd   337 0001:00045be0   340 0001:00045be2   341 0001:00045be5
   343 0001:00045beb   344 0001:00045bee   345 0001:00045bf1   346 0001:00045bf5
   347 0001:00045bf9   350 0001:00045bfe   360 0001:00045c03   361 0001:00045c06
   365 0001:00045c0c   366 0001:00045c0f   367 0001:00045c13   368 0001:00045c1a
   369 0001:00045c1d   370 0001:00045c20   373 0001:00045c23   374 0001:00045c27
   375 0001:00045c2b   376 0001:00045c2e   377 0001:00045c32   381 0001:00045c36
   382 0001:00045c3d   383 0001:00045c40   384 0001:00045c43   385 0001:00045c46
   388 0001:00045c49   389 0001:00045c50   390 0001:00045c53   391 0001:00045c56
   392 0001:00045c5a   394 0001:00045c5d   395 0001:00045c60   396 0001:00045c64
   397 0001:00045c6b   399 0001:00045c6e   400 0001:00045c72   402 0001:00045c75
   403 0001:00045c78   404 0001:00045c7c   405 0001:00045c83   408 0001:00045c86
   409 0001:00045c89   410 0001:00045c8c   411 0001:00045c90   412 0001:00045c94
   413 0001:00045c9b   414 0001:00045c9e   415 0001:00045ca1   416 0001:00045ca4
   419 0001:00045ca7   420 0001:00045cae   421 0001:00045cb1   422 0001:00045cb5
   423 0001:00045cb9   428 0001:00045cbd   429 0001:00045cc4   430 0001:00045cc7
   431 0001:00045cca   434 0001:00045cd1   435 0001:00045cd5   439 0001:00045cd9
   440 0001:00045cdc   441 0001:00045cdf   442 0001:00045ce2   443 0001:00045ce5
   444 0001:00045ce8   450 0001:00045ceb   451 0001:00045cee   453 0001:00045cf1
   455 0001:00045cf4   456 0001:00045cf7   458 0001:00045cfa   459 0001:00045cfd
   463 0001:00045d02   464 0001:00045d05   467 0001:00045d07   468 0001:00045d0a
   469 0001:00045d0c   470 0001:00045d0e   471 0001:00045d11   473 0001:00045d14
   474 0001:00045d16   475 0001:00045d18   477 0001:00045d1d   481 0001:00045d22
   483 0001:00045d24   485 0001:00045d27   486 0001:00045d2b   487 0001:00045d2f
   489 0001:00045d33   491 0001:00045d36   493 0001:00045d38

Line numbers for E:\SDK9\Lib\d3dx9.lib(..\amdmath.asm) segment .text

   263 0001:00049f40   265 0001:00049f47   266 0001:00049f4e   267 0001:00049f51
   268 0001:00049f58   269 0001:00049f5b   270 0001:00049f5e   271 0001:00049f62
   272 0001:00049f65   273 0001:00049f69   274 0001:00049f70   275 0001:00049f74
   276 0001:00049f7b   277 0001:00049f7f   278 0001:00049f82   279 0001:00049f86
   280 0001:00049f8d   281 0001:00049f91   282 0001:00049f95   283 0001:00049f9c
   284 0001:00049fa0   285 0001:00049fa4   286 0001:00049fab   287 0001:00049faf
   288 0001:00049fb3   289 0001:00049fba   290 0001:00049fbe   291 0001:00049fc2
   292 0001:00049fc6   293 0001:00049fca   294 0001:00049fce   295 0001:00049fd2
   296 0001:00049fd9   297 0001:00049fdd   298 0001:00049fe1   299 0001:00049fe5
   300 0001:00049fe9   301 0001:00049fed   302 0001:00049ff0   303 0001:00049ff4
   304 0001:00049ff7   334 0001:0004a000   337 0001:0004a007   338 0001:0004a00e
   339 0001:0004a015   340 0001:0004a018   341 0001:0004a01b   342 0001:0004a01f
   343 0001:0004a022   344 0001:0004a025   345 0001:0004a028   346 0001:0004a02b
   347 0001:0004a02e   348 0001:0004a031   349 0001:0004a035   350 0001:0004a039
   351 0001:0004a03d   352 0001:0004a041   353 0001:0004a048   354 0001:0004a04c
   355 0001:0004a053   356 0001:0004a057   357 0001:0004a05e   358 0001:0004a062
   359 0001:0004a065   360 0001:0004a069   361 0001:0004a06d   362 0001:0004a071
   363 0001:0004a078   364 0001:0004a07c   365 0001:0004a080   366 0001:0004a087
   367 0001:0004a08b   368 0001:0004a08f   369 0001:0004a096   370 0001:0004a09a
   371 0001:0004a09e   372 0001:0004a0a2   373 0001:0004a0a6   374 0001:0004a0a9
   375 0001:0004a0ad   376 0001:0004a0b1   377 0001:0004a0b5   378 0001:0004a0b9
   379 0001:0004a0bd   380 0001:0004a0c0   381 0001:0004a0c3   382 0001:0004a0c7
   383 0001:0004a0ce   384 0001:0004a0d1   385 0001:0004a0d5   386 0001:0004a0d9
   387 0001:0004a0dc   388 0001:0004a0e3   389 0001:0004a0e7   398 0001:0004a0ea
   399 0001:0004a0ed   400 0001:0004a0f1   401 0001:0004a0f4   434 0001:0004a100
   437 0001:0004a107   438 0001:0004a10e   439 0001:0004a115   440 0001:0004a118
   441 0001:0004a11f   442 0001:0004a122   443 0001:0004a125   444 0001:0004a128
   445 0001:0004a12b   446 0001:0004a12f   447 0001:0004a136   448 0001:0004a13a
   449 0001:0004a13e   450 0001:0004a141   451 0001:0004a145   452 0001:0004a148
   453 0001:0004a14c   454 0001:0004a153   455 0001:0004a157   456 0001:0004a15b
   457 0001:0004a15e   458 0001:0004a161   459 0001:0004a164   460 0001:0004a16b
   461 0001:0004a16e   462 0001:0004a171   463 0001:0004a175   464 0001:0004a17c
   465 0001:0004a180   466 0001:0004a184   467 0001:0004a188   468 0001:0004a18f
   469 0001:0004a193   470 0001:0004a197   471 0001:0004a19b   472 0001:0004a19f
   473 0001:0004a1a3   474 0001:0004a1a7   475 0001:0004a1ae   476 0001:0004a1b2
   477 0001:0004a1b6   478 0001:0004a1b9   479 0001:0004a1bc   480 0001:0004a1c3
   481 0001:0004a1c6   482 0001:0004a1c9   483 0001:0004a1cd   484 0001:0004a1d4
   485 0001:0004a1d8   486 0001:0004a1dc   487 0001:0004a1df   488 0001:0004a1e2
   489 0001:0004a1e6   490 0001:0004a1e9   491 0001:0004a1ec   492 0001:0004a1f0
   493 0001:0004a1f3   494 0001:0004a1f6   525 0001:0004a200   527 0001:0004a207
   528 0001:0004a20e   529 0001:0004a215   530 0001:0004a218   531 0001:0004a21f
   532 0001:0004a222   533 0001:0004a225   534 0001:0004a228   535 0001:0004a22b
   536 0001:0004a22f   537 0001:0004a236   538 0001:0004a23a   539 0001:0004a23e
   540 0001:0004a241   541 0001:0004a245   542 0001:0004a248   543 0001:0004a24c
   544 0001:0004a253   545 0001:0004a257   546 0001:0004a25b   547 0001:0004a25e
   548 0001:0004a261   549 0001:0004a264   550 0001:0004a26b   551 0001:0004a26e
   552 0001:0004a271   553 0001:0004a275   554 0001:0004a27c   555 0001:0004a280
   556 0001:0004a284   557 0001:0004a288   558 0001:0004a28f   559 0001:0004a293
   560 0001:0004a297   561 0001:0004a29b   562 0001:0004a29f   563 0001:0004a2a3
   564 0001:0004a2a7   565 0001:0004a2ab   566 0001:0004a2b2   567 0001:0004a2b6
   568 0001:0004a2bd   569 0001:0004a2c1   570 0001:0004a2c4   571 0001:0004a2c8
   572 0001:0004a2cc   573 0001:0004a2cf   574 0001:0004a2d2   575 0001:0004a2d5
   576 0001:0004a2d8   577 0001:0004a2db   578 0001:0004a2de   579 0001:0004a2e1
   612 0001:0004a300   614 0001:0004a307   615 0001:0004a30a   616 0001:0004a311
   617 0001:0004a314   618 0001:0004a31b   619 0001:0004a31e   620 0001:0004a321
   621 0001:0004a328   622 0001:0004a32c   623 0001:0004a32f   624 0001:0004a332
   625 0001:0004a339   626 0001:0004a33c   627 0001:0004a33f   628 0001:0004a342
   629 0001:0004a349   630 0001:0004a34c   631 0001:0004a353   632 0001:0004a356
   633 0001:0004a359   634 0001:0004a35c   635 0001:0004a360   636 0001:0004a364
   637 0001:0004a368   638 0001:0004a36f   639 0001:0004a373   640 0001:0004a37a
   641 0001:0004a37e   642 0001:0004a382   643 0001:0004a386   644 0001:0004a38d
   645 0001:0004a391   646 0001:0004a398   647 0001:0004a39c   648 0001:0004a39f
   649 0001:0004a3a3   650 0001:0004a3a7   651 0001:0004a3aa   652 0001:0004a3ae
   653 0001:0004a3b5   654 0001:0004a3b9   655 0001:0004a3bd   656 0001:0004a3c4
   657 0001:0004a3c8   658 0001:0004a3cc   659 0001:0004a3d0   660 0001:0004a3d4
   661 0001:0004a3d7   662 0001:0004a3da   663 0001:0004a3de   664 0001:0004a3e2
   665 0001:0004a3e5   666 0001:0004a3e8   687 0001:0004a400   689 0001:0004a405
   690 0001:0004a40c   691 0001:0004a410   727 0001:0004a420   729 0001:0004a427
   730 0001:0004a42a   731 0001:0004a431   732 0001:0004a434   733 0001:0004a43b
   734 0001:0004a43f   735 0001:0004a443   736 0001:0004a44a   737 0001:0004a44d
   738 0001:0004a454   739 0001:0004a457   740 0001:0004a45e   741 0001:0004a462
   742 0001:0004a469   743 0001:0004a46d   744 0001:0004a471   745 0001:0004a475
   746 0001:0004a479   747 0001:0004a47d   748 0001:0004a484   749 0001:0004a488
   750 0001:0004a48f   751 0001:0004a493   752 0001:0004a496   753 0001:0004a49a
   754 0001:0004a49d   755 0001:0004a4a1   756 0001:0004a4a4   757 0001:0004a4a8
   758 0001:0004a4af   759 0001:0004a4b3   760 0001:0004a4b7   761 0001:0004a4bb
   762 0001:0004a4bf   763 0001:0004a4c3   764 0001:0004a4c7   765 0001:0004a4ce
   766 0001:0004a4d2   767 0001:0004a4d6   768 0001:0004a4da   769 0001:0004a4e1
   770 0001:0004a4e5   771 0001:0004a4e8   772 0001:0004a4eb   773 0001:0004a4ee
   774 0001:0004a4f1   775 0001:0004a4f4   793 0001:0004a500   795 0001:0004a504
   796 0001:0004a507   797 0001:0004a50b   798 0001:0004a50f   800 0001:0004a513
   801 0001:0004a517   822 0001:0004a520   824 0001:0004a527   839 0001:0004a540
   841 0001:0004a543   842 0001:0004a54a   843 0001:0004a54e   844 0001:0004a555
   845 0001:0004a559   846 0001:0004a55c   847 0001:0004a560   848 0001:0004a564
   849 0001:0004a567   850 0001:0004a56a   851 0001:0004a56d   852 0001:0004a571
   867 0001:0004a580   869 0001:0004a584   870 0001:0004a587   871 0001:0004a58b
   872 0001:0004a58e   873 0001:0004a592   874 0001:0004a596   875 0001:0004a59d
   876 0001:0004a5a0   877 0001:0004a5a4   892 0001:0004a5c0   894 0001:0004a5c7
   895 0001:0004a5ca   898 0001:0004a5d1   899 0001:0004a5d4   900 0001:0004a5db
   901 0001:0004a5de   902 0001:0004a5e5   903 0001:0004a5e8   904 0001:0004a5ef
   905 0001:0004a5f3   906 0001:0004a5f7   909 0001:0004a5fa   910 0001:0004a5fd
   927 0001:0004a600   929 0001:0004a603   930 0001:0004a60a   931 0001:0004a60e
   932 0001:0004a611   933 0001:0004a614   934 0001:0004a61b   935 0001:0004a61d
   936 0001:0004a622   937 0001:0004a624   938 0001:0004a628   939 0001:0004a62b
   943 0001:0004a640   944 0001:0004a646   945 0001:0004a649   947 0001:0004a64b
   948 0001:0004a64e   949 0001:0004a655   951 0001:0004a65c   952 0001:0004a65d
   974 0001:0004a660   976 0001:0004a664   977 0001:0004a668   978 0001:0004a66c
   979 0001:0004a66f   997 0001:0004a680   999 0001:0004a683  1000 0001:0004a686
  1002 0001:0004a688  1003 0001:0004a68b  1004 0001:0004a68e  1005 0001:0004a692
  1006 0001:0004a696  1007 0001:0004a69a  1010 0001:0004a69e  1011 0001:0004a6a2
  1012 0001:0004a6a6  1015 0001:0004a6aa  1016 0001:0004a6ad  1017 0001:0004a6b1
  1021 0001:0004a6c0  1022 0001:0004a6c7  1043 0001:0004a6e0  1045 0001:0004a7da
  1046 0001:0004a7db  1059 0001:0004a7e0  1061 0001:0004a8da  1062 0001:0004a8dd
  1078 0001:0004a8e0  1080 0001:0004a9da  1081 0001:0004a9dd  1082 0001:0004a9e1
  1083 0001:0004a9e4  1084 0001:0004a9e8  1085 0001:0004a9ec  1086 0001:0004a9f0
  1123 0001:0004aa00  1125 0001:0004aa03  1126 0001:0004aa07  1127 0001:0004aa0b
  1157 0001:0004aa0e  1158 0001:0004aa15  1159 0001:0004aa18  1160 0001:0004aa1f
  1161 0001:0004aa22  1162 0001:0004aa29  1163 0001:0004aa2c  1164 0001:0004aa2f
  1165 0001:0004aa36  1166 0001:0004aa3a  1167 0001:0004aa3d  1168 0001:0004aa40
  1169 0001:0004aa43  1170 0001:0004aa46  1171 0001:0004aa4d  1172 0001:0004aa50
  1173 0001:0004aa53  1174 0001:0004aa5a  1175 0001:0004aa5d  1176 0001:0004aa60
  1177 0001:0004aa67  1178 0001:0004aa6a  1179 0001:0004aa6e  1180 0001:0004aa72
  1181 0001:0004aa79  1182 0001:0004aa7d  1183 0001:0004aa81  1184 0001:0004aa85
  1185 0001:0004aa89  1186 0001:0004aa8d  1187 0001:0004aa90  1188 0001:0004aa94
  1189 0001:0004aa97  1190 0001:0004aa9b  1191 0001:0004aaa2  1192 0001:0004aaa6
  1193 0001:0004aaad  1194 0001:0004aab1  1195 0001:0004aab8  1196 0001:0004aabc
  1197 0001:0004aac0  1198 0001:0004aac4  1199 0001:0004aacb  1200 0001:0004aacf
  1201 0001:0004aad2  1202 0001:0004aad6  1203 0001:0004aad9  1204 0001:0004aadd
  1205 0001:0004aae0  1206 0001:0004aae4  1228 0001:0004aae7  1229 0001:0004aaeb
  1230 0001:0004aaee  1231 0001:0004aaf2  1232 0001:0004aaf9  1233 0001:0004aafd
  1234 0001:0004ab00  1235 0001:0004ab04  1236 0001:0004ab0b  1237 0001:0004ab0e
  1238 0001:0004ab12  1239 0001:0004ab15  1240 0001:0004ab19  1241 0001:0004ab20
  1242 0001:0004ab24  1243 0001:0004ab2b  1244 0001:0004ab2f  1245 0001:0004ab36
  1246 0001:0004ab3a  1247 0001:0004ab3e  1248 0001:0004ab42  1249 0001:0004ab46
  1250 0001:0004ab4a  1251 0001:0004ab51  1252 0001:0004ab55  1253 0001:0004ab59
  1254 0001:0004ab5d  1255 0001:0004ab64  1256 0001:0004ab68  1257 0001:0004ab6f
  1258 0001:0004ab73  1259 0001:0004ab76  1260 0001:0004ab7a  1261 0001:0004ab7e
  1262 0001:0004ab85  1263 0001:0004ab88  1264 0001:0004ab8b  1265 0001:0004ab8e
  1266 0001:0004ab91  1273 0001:0004ab94  1274 0001:0004ab97

Line numbers for E:\SDK9\Lib\d3dx9.lib(s:\ntc2\base\zlib\default_allocator.c) segment .text

     5 0001:00051eae     4 0001:00051eae     6 0001:00051ec7    10 0001:00051eca
     9 0001:00051eca    11 0001:00051edd

Line numbers for E:\SDK9\Lib\d3dx9.lib(s:\ntc2\base\zlib\infutil.c) segment .text

    27 0001:000567de    34 0001:000567e4    37 0001:000567f2    38 0001:00056802
    39 0001:00056813    43 0001:00056821    46 0001:00056829    47 0001:00056830
    50 0001:00056840    51 0001:00056850    52 0001:00056856    55 0001:0005685e
    59 0001:00056866    60 0001:00056871    63 0001:00056874    64 0001:00056877
    65 0001:0005688b    69 0001:00056899    72 0001:000568a1    73 0001:000568a8
    76 0001:000568b8    77 0001:000568c8    78 0001:000568d1    82 0001:000568d6
    83 0001:000568df    86 0001:000568e6    87 0001:000568eb

Line numbers for E:\SDK9\Lib\d3dx9.lib(s:\ntc2\base\zlib\inftrees.c) segment .text

   108 0001:000562bb   137 0001:000562c6   139 0001:00056305   140 0001:00056310
   141 0001:00056313   143 0001:00056318   144 0001:0005631d   289 0001:0005631f
   290 0001:00056324   150 0001:0005632b   151 0001:0005632d   152 0001:00056338
   155 0001:00056343   156 0001:0005634a   158 0001:0005634d   157 0001:00056353
   161 0001:00056356   162 0001:0005635e   163 0001:00056361   167 0001:00056366
   168 0001:0005636a   167 0001:00056377   170 0001:0005637b   171 0001:0005638b
   172 0001:00056391   176 0001:00056395   178 0001:00056397   179 0001:0005639f
   184 0001:000563ad   186 0001:000563b2   187 0001:000563be   188 0001:000563d3
   189 0001:000563d9   196 0001:000563dd   202 0001:000563ed   204 0001:0005641a
   205 0001:0005641f   209 0001:0005642a   169 0001:00056442   205 0001:00056449
   212 0001:0005644c   215 0001:0005644f   216 0001:0005645d   217 0001:00056469
   219 0001:0005647b   221 0001:00056483   222 0001:0005648a   224 0001:00056494
   226 0001:000564a2   232 0001:000564a9   234 0001:000564c1   235 0001:000564d6
   238 0001:000564db   240 0001:000564e2   241 0001:000564e9   242 0001:000564ef
   243 0001:000564f2   245 0001:000564f7   247 0001:00056513   248 0001:00056515
   209 0001:00056529   252 0001:0005652c   253 0001:0005652f   254 0001:00056544
   255 0001:00056548   257 0001:00056551   260 0001:00056561   262 0001:00056563
   263 0001:00056575   267 0001:00056582   268 0001:00056585   269 0001:0005659e
   268 0001:000565b7   272 0001:000565ba   273 0001:000565c7   272 0001:000565cb
   274 0001:000565cf   277 0001:000565d1   278 0001:000565dc   281 0001:000565e9
   282 0001:000565ec   280 0001:000565fe   205 0001:00056601   202 0001:0005660a
   289 0001:00056620   299 0001:0005663a   301 0001:0005663e   304 0001:00056643
   305 0001:00056657   307 0001:0005665d   308 0001:0005667d   309 0001:00056682
   310 0001:00056689   313 0001:00056698   315 0001:000566a2   316 0001:000566ab
   317 0001:000566af   330 0001:000566b3   332 0001:000566b7   336 0001:000566bc
   337 0001:000566d3   340 0001:000566dc   341 0001:00056707   355 0001:00056713
   356 0001:0005673e   358 0001:00056752   359 0001:00056757   360 0001:0005675e
   365 0001:00056765   368 0001:0005676c   370 0001:00056773   343 0001:0005677c
   344 0001:00056781   345 0001:00056788   347 0001:0005678f   348 0001:00056796
   350 0001:0005679b   351 0001:000567a4   381 0001:000567a9   404 0001:000567ad
   449 0001:000567ad   450 0001:000567b9   451 0001:000567c5   452 0001:000567cf
   453 0001:000567d9   454 0001:000567db

Line numbers for E:\SDK9\Lib\d3dx9.lib(s:\ntc2\base\zlib\inflate.c) segment .text

    56 0001:000482b0    55 0001:000482b0    58 0001:000482c2    59 0001:000482c8
    60 0001:000482cb    61 0001:000482d2    63 0001:000482e4    57 0001:000482e9
    64 0001:000482ec    69 0001:000482ef    70 0001:000482f0    72 0001:00048305
    73 0001:0004830b    74 0001:00048314    75 0001:0004831d    77 0001:00048321
    71 0001:00048325    78 0001:00048329    88 0001:0004832c    86 0001:0004832c
    92 0001:00048351    93 0001:00048359    95 0001:00048360    97 0001:00048368
    98 0001:0004836f   100 0001:00048372   102 0001:0004837e   103 0001:00048391
   108 0001:00048395   111 0001:000483a6   115 0001:000483ae   120 0001:000483b8
   125 0001:000483be   127 0001:000483ea   128 0001:000483f0   133 0001:000483f4
   134 0001:000483fa    89 0001:00048402   135 0001:00048408   143 0001:0004840b
   142 0001:0004840b   144 0001:0004841e   153 0001:00048421   157 0001:00048424
   159 0001:00048446   161 0001:00048452   164 0001:00048465   165 0001:00048470
   167 0001:00048494   168 0001:00048496   170 0001:0004849d   172 0001:000484a2
   174 0001:000484b0   175 0001:000484b2   177 0001:000484b9   179 0001:000484be
   181 0001:000484c4   183 0001:000484cf   188 0001:000484f6   191 0001:0004850b
   194 0001:0004850e   221 0001:00048526   222 0001:00048535   224 0001:0004853a
   225 0001:0004853f   226 0001:00048546   228 0001:0004854b   229 0001:0004854f
   230 0001:00048551   233 0001:0004855a   234 0001:0004856c   236 0001:00048575
   237 0001:0004857b   239 0001:00048580   241 0001:00048586   242 0001:00048591
   243 0001:000485a6   245 0001:000485b3   246 0001:000485be   247 0001:000485d3
   249 0001:000485e0   250 0001:000485e7   251 0001:000485fc   253 0001:00048609
   254 0001:00048610   256 0001:00048622   258 0001:00048635   259 0001:00048637
   260 0001:0004863e   161 0001:00048648   158 0001:00048655   275 0001:0004865c
   164 0001:0004865f   196 0001:00048663   198 0001:0004866c   199 0001:00048673
   200 0001:00048688   202 0001:00048695   203 0001:0004869c   204 0001:000486b1
   206 0001:000486be   207 0001:000486c5   208 0001:000486da   210 0001:000486e7
   211 0001:000486f2   212 0001:00048704   213 0001:0004870f   214 0001:00048715
   216 0001:0004871c   218 0001:00048721   219 0001:0004872f   264 0001:00048734
   266 0001:0004873d   268 0001:00048745   275 0001:0004874c

Line numbers for E:\SDK9\Lib\d3dx9.lib(s:\ntc2\base\zlib\inffast.c) segment .text

    34 0001:000568ef    50 0001:000568f7    53 0001:0005692c    54 0001:00056939
    59 0001:00056946    60 0001:00056963    72 0001:00056977   148 0001:00056979
   151 0001:00056982    71 0001:0005699a   151 0001:0005699e    81 0001:000569cf
    82 0001:000569ea    84 0001:000569f6   133 0001:00056a05   136 0001:00056a0e
    88 0001:00056a32    89 0001:00056a37    90 0001:00056a51    91 0001:00056a5b
    95 0001:00056a63    96 0001:00056a69    97 0001:00056a6e   128 0001:00056a7f
   105 0001:00056a94   107 0001:00056a97   108 0001:00056a9d   109 0001:00056aa0
   111 0001:00056aa6   112 0001:00056aac   114 0001:00056ab1   116 0001:00056ab3
   117 0001:00056ab9   119 0001:00056ac3   120 0001:00056ac9   123 0001:00056ace
   125 0001:00056ad0   126 0001:00056ad6   128 0001:00056ae0   129 0001:00056ae6
   146 0001:00056aeb   153 0001:00056af3   157 0001:00056afa   158 0001:00056b05
   177 0001:00056b0a   180 0001:00056b1d   141 0001:00056b32   165 0001:00056b4f
   172 0001:00056b6a   173 0001:00056b7d   183 0001:00056bad

Line numbers for E:\SDK9\Lib\d3dx9.lib(s:\ntc2\base\zlib\infcodes.c) segment .text

    64 0001:00055d20    68 0001:00055d23    71 0001:00055d34    72 0001:00055d3d
    73 0001:00055d43    74 0001:00055d49    78 0001:00055d4f    85 0001:00055d53
    99 0001:00055d5b   102 0001:00055d93   106 0001:00055d9f   108 0001:00055db4
   109 0001:00055dcd   110 0001:00055dec   111 0001:00055e1a   113 0001:00055e23
   114 0001:00055e32   118 0001:00055e37   119 0001:00055e3e   120 0001:00055e44
   122 0001:00055e4a   123 0001:00055e4c   124 0001:00055e7a   125 0001:00055e8a
   126 0001:00055e9b   127 0001:00055ea1   129 0001:00055ea8   133 0001:00055eab
   134 0001:00055eb1   136 0001:00055eb6   138 0001:00055ebe   139 0001:00055ec4
   140 0001:00055eca   141 0001:00055ed0   143 0001:00055ed5   145 0001:00055eda
   146 0001:00055edd   147 0001:00055ee3   149 0001:00055ee8   152 0001:00055ef1
   153 0001:00055ef7   161 0001:00055efc   162 0001:00055f2a   163 0001:00055f34
   164 0001:00055f42   165 0001:00055f49   167 0001:00055f4f   169 0001:00055f55
   170 0001:00055f57   171 0001:00055f85   172 0001:00055f95   173 0001:00055fa6
   174 0001:00055fac   176 0001:00055fb0   177 0001:00055fb6   178 0001:00055fbc
   179 0001:00055fc2   181 0001:00055fc4   183 0001:00055fcc   184 0001:00055fcf
   185 0001:00055fd8   193 0001:00055fe0   194 0001:0005600e   195 0001:00056018
   197 0001:00056026   200 0001:0005602c   201 0001:00056043   202 0001:00056051
   204 0001:0005605e   205 0001:000560e9   206 0001:000560f8   207 0001:00056104
   208 0001:0005610a   210 0001:00056112   211 0001:00056115   213 0001:0005611a
   214 0001:000561a9   215 0001:000561b0   214 0001:000561b3   102 0001:000561b6
   237 0001:000561c1   242 0001:000561ee   155 0001:000561f2   156 0001:000561f8
   234 0001:000561ff   187 0001:00056203   188 0001:00056209   190 0001:00056210
   193 0001:00056212   213 0001:00056227   218 0001:0005622c   221 0001:00056232
   222 0001:00056236   223 0001:00056239   225 0001:0005623c   226 0001:0005624c
   227 0001:00056251   228 0001:00056275   231 0001:0005627b   242 0001:00056282
   249 0001:000562aa   248 0001:000562aa   251 0001:000562b8

Line numbers for E:\SDK9\Lib\d3dx9.lib(s:\ntc2\base\zlib\infblock.c) segment .text

    73 0001:00051530    72 0001:00051530    74 0001:00051541    75 0001:00051546
    76 0001:00051556    77 0001:0005155f    78 0001:00051564    82 0001:0005156d
    83 0001:00051576    84 0001:00051585    86 0001:00051593    93 0001:00051596
    97 0001:00051597    98 0001:000515aa   100 0001:000515ac   102 0001:000515c0
   103 0001:000515c7   105 0001:000515cc   107 0001:000515e0   108 0001:000515e9
   109 0001:000515f0   113 0001:000515f4   115 0001:000515f9   116 0001:0005160c
   117 0001:00051611   124 0001:00051614   134 0001:0005161b   137 0001:00051651
   367 0001:0005165b   369 0001:00051688   137 0001:0005168c   140 0001:00051696
   141 0001:000516c0   142 0001:000516c6   143 0001:000516cd   178 0001:000516e8
   179 0001:000516ee   180 0001:000516f4   182 0001:000516fb   174 0001:0005170b
   175 0001:00051715   176 0001:00051717   160 0001:0005171c   161 0001:00051732
   162 0001:00051744   168 0001:0005174f   169 0001:00051757   170 0001:0005175d
   148 0001:00051762   149 0001:00051766   150 0001:00051772   151 0001:00051777
   184 0001:0005177c   186 0001:00051781   187 0001:000517ae   194 0001:000517c6
   195 0001:000517c9   197 0001:000517cb   200 0001:000517e2   202 0001:000517ec
   203 0001:00051880   204 0001:00051887   205 0001:0005188f   206 0001:00051895
   207 0001:0005189b   208 0001:000518a1   209 0001:000518b7   197 0001:000518c0
   198 0001:000518ca   217 0001:000518cf   218 0001:000518f9   220 0001:00051901
   229 0001:00051921   234 0001:0005193c   235 0001:00051944   237 0001:00051948
   239 0001:0005194e   241 0001:00051950   242 0001:0005197a   243 0001:0005198a
   239 0001:000519a9   246 0001:000519ab   245 0001:000519bf   249 0001:000519c5
   250 0001:000519df   260 0001:000519ea   262 0001:000519ed   265 0001:000519f3
   270 0001:000519f8   271 0001:000519fd   272 0001:00051a23   273 0001:00051a33
   274 0001:00051a37   275 0001:00051a3a   277 0001:00051a45   278 0001:00051a4d
   280 0001:00051a59   282 0001:00051a5e   283 0001:00051a6b   284 0001:00051a7d
   285 0001:00051aab   286 0001:00051aae   287 0001:00051abb   289 0001:00051ac8
   291 0001:00051ace   299 0001:00051afc   301 0001:00051b07   302 0001:00051b0e
   303 0001:00051b13   265 0001:00051b16   314 0001:00051b34   317 0001:00051b3b
   318 0001:00051b78   329 0001:00051b83   336 0001:00051b9d   337 0001:00051ba9
   339 0001:00051baf   340 0001:00051bb2   342 0001:00051be3   343 0001:00051be7
   344 0001:00051bf0   348 0001:00051c1f   350 0001:00051c2c   137 0001:00051c2f
   340 0001:00051c34   189 0001:00051c45   190 0001:00051c4b   364 0001:00051c52
   202 0001:00051c59   222 0001:00051c7a   223 0001:00051c80   225 0001:00051c87
   253 0001:00051c89   258 0001:00051c8d   284 0001:00051c8f   293 0001:00051ca7
   294 0001:00051cb0   295 0001:00051cb6   297 0001:00051cbd   320 0001:00051cbf
   322 0001:00051cc5   323 0001:00051cce   326 0001:00051cd4   332 0001:00051cdc
   353 0001:00051ce3   355 0001:00051ce9   356 0001:00051cfc   357 0001:00051d04
   358 0001:00051d2b   361 0001:00051d31   369 0001:00051d38   375 0001:00051d60
   376 0001:00051d61   377 0001:00051d73   378 0001:00051d7c   379 0001:00051d85
   381 0001:00051d8d   382 0001:00051d90

Line numbers for E:\SDK9\Lib\d3dx9.lib(s:\ntc2\base\zlib\crc32.c) segment .text

   147 0001:00049b12   146 0001:00049b12   153 0001:00049b21   155 0001:00049b41
   156 0001:00049b45   158 0001:00049be4   159 0001:00049be8   160 0001:00049bfb
   161 0001:00049bfe   162 0001:00049c04

Line numbers for E:\SDK9\Lib\d3dx9.lib(s:\ntc2\base\zlib\adler32.c) segment .text

    25 0001:00051d93    30 0001:00051d96    32 0001:00051db5    33 0001:00051dc0
    34 0001:00051dcd    35 0001:00051dd0    36 0001:00051de7    37 0001:00051e66
    40 0001:00051e70    41 0001:00051e74    42 0001:00051e7a    43 0001:00051e7c
    44 0001:00051e7f    45 0001:00051e8c    47 0001:00051ea1    48 0001:00051eaa

Line numbers for E:\VS.NET\Vc7\lib\LIBC.lib(F:\VS70Builds\9466\vc\crtbld\crt\src\intel\strstr.asm) segment .text

    47 0001:0005be00    45 0001:0005be00    49 0001:0005be04    50 0001:0005be05
    51 0001:0005be06    53 0001:0005be07    55 0001:0005be09    57 0001:0005be0d
    58 0001:0005be0f    60 0001:0005be11    61 0001:0005be14    62 0001:0005be16
    70 0001:0005be18    71 0001:0005be1a    74 0001:0005be1e    76 0001:0005be20
    78 0001:0005be23    79 0001:0005be25    81 0001:0005be27    82 0001:0005be29
    85 0001:0005be2b    86 0001:0005be2d    88 0001:0005be30    89 0001:0005be32
    91 0001:0005be34    92 0001:0005be36    95 0001:0005be38    96 0001:0005be39
    97 0001:0005be3a    98 0001:0005be3b    99 0001:0005be3d   104 0001:0005be3e
   105 0001:0005be40   107 0001:0005be43   108 0001:0005be45   111 0001:0005be47
   114 0001:0005be4a   115 0001:0005be4d   116 0001:0005be4f   118 0001:0005be51
   119 0001:0005be53   121 0001:0005be56   122 0001:0005be58   126 0001:0005be5a
   127 0001:0005be5d   128 0001:0005be5f   130 0001:0005be61   131 0001:0005be64
   132 0001:0005be67   133 0001:0005be69   137 0001:0005be6b   142 0001:0005be6d
   143 0001:0005be6f   144 0001:0005be70   145 0001:0005be71   146 0001:0005be72
   147 0001:0005be74   154 0001:0005be79   155 0001:0005be7c   156 0001:0005be7d
   157 0001:0005be7e   158 0001:0005be7f   161 0001:0005be80   162 0001:0005be82
   163 0001:0005be83   164 0001:0005be84   165 0001:0005be85

Line numbers for E:\VS.NET\Vc7\lib\LIBC.lib(F:\VS70Builds\9466\vc\crtbld\crt\src\intel\strrchr.asm) segment .text

    60 0001:0005c250    60 0001:0005c250    65 0001:0005c254    66 0001:0005c257
    67 0001:0005c259    68 0001:0005c25c    69 0001:0005c25e    70 0001:0005c261
    71 0001:0005c263    72 0001:0005c266    73 0001:0005c269    74 0001:0005c26a
    75 0001:0005c26c    77 0001:0005c26f    78 0001:0005c271    80 0001:0005c273
    81 0001:0005c275    84 0001:0005c277    87 0001:0005c279    89 0001:0005c27a

Line numbers for E:\VS.NET\Vc7\lib\LIBC.lib(F:\VS70Builds\9466\vc\crtbld\crt\src\Intel\STRSPN.ASM) segment .text

   191 0001:0005fe50   191 0001:0005fe50   198 0001:0005fe54   199 0001:0005fe56
   200 0001:0005fe57   201 0001:0005fe58   202 0001:0005fe59   203 0001:0005fe5a
   204 0001:0005fe5b   205 0001:0005fe5c   206 0001:0005fe5d   212 0001:0005fe5e
   216 0001:0005fe64   217 0001:0005fe66   218 0001:0005fe68   219 0001:0005fe6a
   220 0001:0005fe6d   221 0001:0005fe71   227 0001:0005fe73   236 0001:0005fe78
   237 0001:0005fe7a   238 0001:0005fe7c   239 0001:0005fe7e   240 0001:0005fe81
   247 0001:0005fe85   248 0001:0005fe87   257 0001:0005fe8a   259 0001:0005fe8d

Line numbers for E:\VS.NET\Vc7\lib\LIBC.lib(F:\VS70Builds\9466\vc\crtbld\crt\src\intel\_strnicm.asm) segment .text

    69 0001:000659c0    69 0001:000659c0    75 0001:000659c6    76 0001:000659c9
    77 0001:000659cb    79 0001:000659cd    80 0001:000659d0    82 0001:000659d3
    83 0001:000659d5    84 0001:000659d7    89 0001:000659dc    91 0001:000659de
    93 0001:000659e0    95 0001:000659e2    97 0001:000659e4    98 0001:000659e6
   100 0001:000659e8   101 0001:000659eb   103 0001:000659ee   104 0001:000659f0
   106 0001:000659f2   107 0001:000659f4   109 0001:000659f6   112 0001:000659f8
   113 0001:000659fa   115 0001:000659fc   116 0001:000659fe   118 0001:00065a00
   121 0001:00065a02   122 0001:00065a04   124 0001:00065a06   125 0001:00065a09
   128 0001:00065a0b   129 0001:00065a0d   130 0001:00065a0f   133 0001:00065a11
   134 0001:00065a16   135 0001:00065a18   138 0001:00065a1a   140 0001:00065a1c

Line numbers for E:\VS.NET\Vc7\lib\LIBC.lib(f:\vs70builds\9466\vc\crtbld\crt\src\strnicmp.c) segment .text

    47 0001:000645cc    56 0001:000645cf    61 0001:000645d5    81 0001:000645de
    63 0001:000645df    71 0001:000645ed    72 0001:000645f8    74 0001:00064604
    77 0001:00064615    81 0001:0006461b    80 0001:0006461d    81 0001:0006461f

Line numbers for E:\VS.NET\Vc7\lib\LIBC.lib(F:\VS70Builds\9466\vc\crtbld\crt\src\intel\strncpy.asm) segment .text

    66 0001:000574f0    62 0001:000574f0    67 0001:000574f4    68 0001:000574f5
    69 0001:000574f7    71 0001:000574fd    72 0001:000574fe    73 0001:000574ff
    74 0001:00057501    75 0001:00057505    76 0001:0005750b    77 0001:0005750f
    79 0001:00057511    80 0001:00057514    81 0001:0005751a    86 0001:0005751c
    87 0001:0005751e    88 0001:00057521    89 0001:00057523    90 0001:00057526
    91 0001:00057529    92 0001:0005752b    93 0001:0005752d    95 0001:0005752f
    96 0001:00057535    97 0001:00057537    98 0001:00057539    99 0001:0005753c
   102 0001:0005753e   103 0001:00057541   109 0001:00057543   110 0001:00057545
   111 0001:00057548   112 0001:0005754a   113 0001:0005754d   114 0001:0005754f
   115 0001:00057551   116 0001:00057554   118 0001:00057556   119 0001:0005755a
   120 0001:0005755b   121 0001:0005755c   122 0001:0005755d   127 0001:0005755e
   128 0001:00057564   130 0001:00057566   131 0001:00057568   132 0001:0005756b
   133 0001:0005756e   134 0001:00057574   135 0001:0005757a   137 0001:0005757c
   138 0001:0005757e   139 0001:00057581   142 0001:00057583   143 0001:00057585
   145 0001:00057588   146 0001:0005758b   147 0001:0005758d   148 0001:0005758e
   150 0001:0005758f   151 0001:00057593   152 0001:00057594   157 0001:00057595
   158 0001:00057597   159 0001:0005759a   160 0001:0005759d   163 0001:0005759f
   164 0001:000575a4   165 0001:000575a6   166 0001:000575a8   167 0001:000575ab
   168 0001:000575ad   169 0001:000575af   170 0001:000575b2   171 0001:000575b7
   175 0001:000575b9   176 0001:000575bb   177 0001:000575bd   178 0001:000575bf
   179 0001:000575c1   180 0001:000575c7   181 0001:000575c9   182 0001:000575cf
   188 0001:000575d1   189 0001:000575d3   192 0001:000575d5   193 0001:000575db
   194 0001:000575dd   197 0001:000575df   198 0001:000575e5   199 0001:000575e7
   202 0001:000575e9   203 0001:000575eb   208 0001:000575ed   209 0001:000575f0
   210 0001:000575f2   211 0001:000575f5   214 0001:000575f7   216 0001:000575f9
   217 0001:000575fb   218 0001:000575fe   219 0001:00057601   221 0001:00057603
   222 0001:00057606   224 0001:0005760c   225 0001:00057610   226 0001:00057611
   227 0001:00057612   228 0001:00057613

Line numbers for E:\VS.NET\Vc7\lib\LIBC.lib(F:\VS70Builds\9466\vc\crtbld\crt\src\intel\strncmp.asm) segment .text

    62 0001:00058f90    62 0001:00058f90    69 0001:00058f96    70 0001:00058f99
    72 0001:00058f9b    74 0001:00058f9d    76 0001:00058fa0    77 0001:00058fa2
    78 0001:00058fa4    79 0001:00058fa6    80 0001:00058fa8    83 0001:00058faa
    84 0001:00058fac    85 0001:00058faf    86 0001:00058fb1    87 0001:00058fb4
    89 0001:00058fb6    90 0001:00058fb9    91 0001:00058fbb    95 0001:00058fbd
    98 0001:00058fc0   101 0001:00058fc2   103 0001:00058fc4

Line numbers for E:\VS.NET\Vc7\lib\LIBC.lib(F:\VS70Builds\9466\vc\crtbld\crt\src\intel\strlen.asm) segment .text

    60 0001:0005bd70    54 0001:0005bd70    61 0001:0005bd74    62 0001:0005bd7a
    66 0001:0005bd7c    67 0001:0005bd7e    68 0001:0005bd81    69 0001:0005bd83
    70 0001:0005bd85    71 0001:0005bd8b    73 0001:0005bd8d    78 0001:0005bda0
    79 0001:0005bda2    80 0001:0005bda7    81 0001:0005bda9    82 0001:0005bdac
    83 0001:0005bdae    84 0001:0005bdb1    85 0001:0005bdb6    87 0001:0005bdb8
    88 0001:0005bdbb    89 0001:0005bdbd    90 0001:0005bdbf    91 0001:0005bdc1
    92 0001:0005bdc3    93 0001:0005bdc8    94 0001:0005bdca    95 0001:0005bdcf
    96 0001:0005bdd1   100 0001:0005bdd3   101 0001:0005bdd6   102 0001:0005bdda
   103 0001:0005bddc   105 0001:0005bddd   106 0001:0005bde0   107 0001:0005bde4
   108 0001:0005bde6   110 0001:0005bde7   111 0001:0005bdea   112 0001:0005bdee
   113 0001:0005bdf0   115 0001:0005bdf1   116 0001:0005bdf4   117 0001:0005bdf8
   118 0001:0005bdfa

Line numbers for E:\VS.NET\Vc7\lib\LIBC.lib(f:\vs70builds\9466\vc\crtbld\crt\src\stricmp.c) segment .text

    55 0001:0005966b    44 0001:0005966b    57 0001:00059674    65 0001:00059684
    66 0001:0005968f    68 0001:0005969b    71 0001:000596a7    72 0001:000596ad

Line numbers for E:\VS.NET\Vc7\lib\LIBC.lib(F:\VS70Builds\9466\vc\crtbld\crt\src\intel\_stricmp.asm) segment .text

    61 0001:00062950    61 0001:00062950    68 0001:00062956    69 0001:00062959
    71 0001:0006295c    76 0001:00062960    77 0001:00062962    79 0001:00062964
    80 0001:00062966    81 0001:00062969    82 0001:0006296b    84 0001:0006296e
    85 0001:00062970    87 0001:00062972    88 0001:00062974    89 0001:00062976
    90 0001:00062978    91 0001:0006297b    92 0001:0006297d    94 0001:0006297f
    96 0001:00062981    97 0001:00062983    98 0001:00062985    99 0001:00062987
   100 0001:0006298a   101 0001:0006298c   103 0001:0006298e   104 0001:00062990
   107 0001:00062992   108 0001:00062994   110 0001:00062996   112 0001:00062999

Line numbers for E:\VS.NET\Vc7\lib\LIBC.lib(f:\vs70builds\9466\vc\crtbld\crt\src\strdup.c) segment .text

    42 0001:00057fd3    45 0001:00057fd4    46 0001:00057fda    48 0001:00057fdc
    49 0001:00057fef    52 0001:00057ff9    51 0001:00057ffa    52 0001:00057ffd

Line numbers for E:\VS.NET\Vc7\lib\LIBC.lib(F:\VS70Builds\9466\vc\crtbld\crt\src\Intel\STRSPN.ASM) segment .text

   191 0001:0005ee40   191 0001:0005ee40   198 0001:0005ee44   199 0001:0005ee46
   200 0001:0005ee47   201 0001:0005ee48   202 0001:0005ee49   203 0001:0005ee4a
   204 0001:0005ee4b   205 0001:0005ee4c   206 0001:0005ee4d   212 0001:0005ee4e
   216 0001:0005ee54   217 0001:0005ee56   218 0001:0005ee58   219 0001:0005ee5a
   220 0001:0005ee5d   221 0001:0005ee61   227 0001:0005ee63   229 0001:0005ee66
   234 0001:0005ee6c   236 0001:0005ee6f   237 0001:0005ee71   238 0001:0005ee73
   239 0001:0005ee75   240 0001:0005ee78   245 0001:0005ee7c   255 0001:0005ee7e
   257 0001:0005ee80   259 0001:0005ee83

Line numbers for E:\VS.NET\Vc7\lib\LIBC.lib(F:\VS70Builds\9466\vc\crtbld\crt\src\intel\strcmp.asm) segment .text

    69 0001:0005eef0    65 0001:0005eef0    70 0001:0005eef4    72 0001:0005eef8
    73 0001:0005eefe    77 0001:0005ef00    79 0001:0005ef02    80 0001:0005ef04
    81 0001:0005ef06    82 0001:0005ef08    83 0001:0005ef0a    84 0001:0005ef0d
    85 0001:0005ef0f    86 0001:0005ef11    88 0001:0005ef13    90 0001:0005ef16
    91 0001:0005ef19    92 0001:0005ef1b    93 0001:0005ef1d    94 0001:0005ef1f
    95 0001:0005ef22    96 0001:0005ef24    97 0001:0005ef27    98 0001:0005ef2a
    99 0001:0005ef2c   103 0001:0005ef30   104 0001:0005ef32   111 0001:0005ef34
   112 0001:0005ef36   113 0001:0005ef38   114 0001:0005ef3b   118 0001:0005ef3c
   119 0001:0005ef42   121 0001:0005ef44   122 0001:0005ef46   123 0001:0005ef49
   124 0001:0005ef4b   125 0001:0005ef4d   126 0001:0005ef50   127 0001:0005ef52
   129 0001:0005ef54   130 0001:0005ef5a   135 0001:0005ef5c   136 0001:0005ef5f
   137 0001:0005ef62   138 0001:0005ef64   139 0001:0005ef66   140 0001:0005ef68
   141 0001:0005ef6a   142 0001:0005ef6d   143 0001:0005ef6f   144 0001:0005ef71
   145 0001:0005ef73   146 0001:0005ef76

Line numbers for E:\VS.NET\Vc7\lib\LIBC.lib(F:\VS70Builds\9466\vc\crtbld\crt\src\intel\strchr.asm) segment .text

    54 0001:00064120    54 0001:00064120    55 0001:00064123    56 0001:00064124
    60 0001:00064130    64 0001:00064130    65 0001:00064132    69 0001:00064136
    70 0001:00064137    71 0001:00064139    72 0001:0006413c    73 0001:00064140
    74 0001:00064146    77 0001:00064148    78 0001:0006414a    79 0001:0006414d
    80 0001:0006414f    81 0001:00064151    82 0001:00064153    83 0001:00064155
    84 0001:0006415b    87 0001:0006415d    88 0001:0006415f    89 0001:00064160
    90 0001:00064162    91 0001:00064165    92 0001:00064166    97 0001:00064168
    98 0001:0006416a   100 0001:0006416f   101 0001:00064171   103 0001:00064173
   104 0001:00064175   106 0001:00064177   107 0001:00064179   109 0001:0006417c
   110 0001:0006417f   112 0001:00064181   113 0001:00064183   115 0001:00064186
   116 0001:0006418c   120 0001:0006418e   121 0001:00064193   123 0001:00064195
   124 0001:0006419a   126 0001:0006419c   127 0001:000641a2   130 0001:000641a4
   131 0001:000641a5   133 0001:000641a6   134 0001:000641a7   135 0001:000641a9
   138 0001:000641aa   139 0001:000641ad   140 0001:000641af   141 0001:000641b1
   142 0001:000641b3   143 0001:000641b5   144 0001:000641b7   145 0001:000641b9
   146 0001:000641bb   147 0001:000641bd   148 0001:000641c0   149 0001:000641c2
   150 0001:000641c4   151 0001:000641c6   152 0001:000641c8   153 0001:000641ca
   154 0001:000641cc   155 0001:000641ce   156 0001:000641d0   159 0001:000641d2
   160 0001:000641d3   161 0001:000641d4   162 0001:000641d7   163 0001:000641d8
   166 0001:000641d9   167 0001:000641dc   168 0001:000641dd   169 0001:000641de
   170 0001:000641df   173 0001:000641e0   174 0001:000641e3   175 0001:000641e4
   176 0001:000641e5   177 0001:000641e6   180 0001:000641e7   181 0001:000641ea
   182 0001:000641eb   183 0001:000641ec   184 0001:000641ed

Line numbers for E:\VS.NET\Vc7\lib\LIBC.lib(F:\VS70Builds\9466\vc\crtbld\crt\src\intel\strcat.asm) segment .text

    89 0001:0005e200    88 0001:0005e200    90 0001:0005e201    91 0001:0005e205
    97 0001:0005e210   101 0001:0005e210   102 0001:0005e214   103 0001:0005e215
   104 0001:0005e21b   107 0001:0005e21d   108 0001:0005e21f   109 0001:0005e222
   110 0001:0005e224   111 0001:0005e226   112 0001:0005e22c   117 0001:0005e230
   118 0001:0005e232   119 0001:0005e237   120 0001:0005e239   121 0001:0005e23c
   122 0001:0005e23e   123 0001:0005e241   124 0001:0005e246   126 0001:0005e248
   127 0001:0005e24b   128 0001:0005e24d   129 0001:0005e24f   130 0001:0005e251
   131 0001:0005e253   132 0001:0005e258   133 0001:0005e25a   134 0001:0005e25f
   135 0001:0005e261   139 0001:0005e263   140 0001:0005e266   142 0001:0005e268
   143 0001:0005e26b   145 0001:0005e26d   146 0001:0005e270   148 0001:0005e272
   153 0001:0005e275   154 0001:0005e279   155 0001:0005e27f   158 0001:0005e281
   159 0001:0005e283   160 0001:0005e286   161 0001:0005e288   162 0001:0005e28a
   163 0001:0005e28c   164 0001:0005e28f   165 0001:0005e295   166 0001:0005e297
   169 0001:0005e299   170 0001:0005e29b   172 0001:0005e29e   173 0001:0005e2a3
   175 0001:0005e2a5   176 0001:0005e2a7   178 0001:0005e2aa   179 0001:0005e2ac
   181 0001:0005e2ae   182 0001:0005e2b1   184 0001:0005e2b6   187 0001:0005e2b8
   188 0001:0005e2ba   189 0001:0005e2bc   190 0001:0005e2be   191 0001:0005e2c0
   192 0001:0005e2c6   193 0001:0005e2c8   194 0001:0005e2ce   195 0001:0005e2d0
   198 0001:0005e2d2   199 0001:0005e2d4   200 0001:0005e2d8   201 0001:0005e2d9
   203 0001:0005e2da   204 0001:0005e2dd   205 0001:0005e2e1   206 0001:0005e2e5
   207 0001:0005e2e6   209 0001:0005e2e7   210 0001:0005e2ea   211 0001:0005e2ee
   212 0001:0005e2ef   214 0001:0005e2f0   215 0001:0005e2f2   216 0001:0005e2f6
   217 0001:0005e2f7

Line numbers for E:\VS.NET\Vc7\lib\LIBC.lib(F:\VS70Builds\9466\vc\crtbld\crt\src\intel\memset.asm) segment .text

    60 0001:0005ee90    56 0001:0005ee90    61 0001:0005ee94    63 0001:0005ee98
    64 0001:0005ee9a    66 0001:0005ee9c    67 0001:0005ee9e    72 0001:0005eea2
    73 0001:0005eea3    75 0001:0005eea5    76 0001:0005eea8    78 0001:0005eeaa
    79 0001:0005eeac    80 0001:0005eeaf    82 0001:0005eeb1    84 0001:0005eeb3
    85 0001:0005eeb5    86 0001:0005eeb8    87 0001:0005eebb    91 0001:0005eebd
    92 0001:0005eebf    94 0001:0005eec2    96 0001:0005eec4    98 0001:0005eec6
   100 0001:0005eec9   103 0001:0005eecb   104 0001:0005eecd   105 0001:0005eed0
   106 0001:0005eed3   108 0001:0005eed5   110 0001:0005eed7   111 0001:0005eed9
   115 0001:0005eedb   116 0001:0005eedd   118 0001:0005eee0   119 0001:0005eee3
   123 0001:0005eee5   124 0001:0005eee9   126 0001:0005eeea   129 0001:0005eeeb
   131 0001:0005eeef

Line numbers for E:\VS.NET\Vc7\lib\LIBC.lib(F:\VS70Builds\9466\vc\crtbld\crt\src\Intel\MEMCPY.ASM) segment .text

   109 0001:00057670   109 0001:00057670   121 0001:00057673   122 0001:00057674
   124 0001:00057675   125 0001:00057678   127 0001:0005767b   137 0001:0005767e
   139 0001:00057680   140 0001:00057682   142 0001:00057684   143 0001:00057686
   145 0001:00057688   146 0001:0005768a   162 0001:00057690   163 0001:00057696
   165 0001:00057698   166 0001:0005769b   168 0001:0005769e   169 0001:000576a1
   171 0001:000576a3   173 0001:000576a5   191 0001:000576ac   192 0001:000576ae
   194 0001:000576b3   195 0001:000576b6   197 0001:000576b8   198 0001:000576bb
   200 0001:000576bd   204 0001:000576c4   208 0001:000576cc   215 0001:000576e0
   216 0001:000576e2   218 0001:000576e4   219 0001:000576e6   221 0001:000576e9
   222 0001:000576ec   224 0001:000576ef   225 0001:000576f2   227 0001:000576f5
   228 0001:000576f8   230 0001:000576fb   231 0001:000576fe   233 0001:00057700
   235 0001:00057702   239 0001:0005770c   240 0001:0005770e   242 0001:00057710
   243 0001:00057712   245 0001:00057715   246 0001:00057718   248 0001:0005771b
   249 0001:0005771e   251 0001:00057721   252 0001:00057724   254 0001:00057726
   256 0001:00057728   260 0001:00057730   261 0001:00057732   263 0001:00057734
   264 0001:00057736   266 0001:00057739   267 0001:0005773c   269 0001:0005773f
   270 0001:00057742   272 0001:00057744   274 0001:00057746   281 0001:00057770
   283 0001:00057774   285 0001:00057778   287 0001:0005777c   289 0001:00057780
   291 0001:00057784   293 0001:00057788   295 0001:0005778c   297 0001:00057790
   299 0001:00057794   301 0001:00057798   303 0001:0005779c   305 0001:000577a0
   307 0001:000577a4   309 0001:000577a8   311 0001:000577af   312 0001:000577b1
   314 0001:000577b3   323 0001:000577cc   324 0001:000577cf   325 0001:000577d0
   327 0001:000577d1   331 0001:000577d4   333 0001:000577d6   334 0001:000577d8
   335 0001:000577db   336 0001:000577dc   337 0001:000577dd   341 0001:000577e0
   343 0001:000577e2   344 0001:000577e4   345 0001:000577e7   346 0001:000577ea
   347 0001:000577ed   348 0001:000577ee   349 0001:000577ef   353 0001:000577f4
   355 0001:000577f6   356 0001:000577f8   357 0001:000577fb   358 0001:000577fe
   359 0001:00057801   360 0001:00057804   361 0001:00057807   362 0001:00057808
   363 0001:00057809   374 0001:0005780c   375 0001:00057810   380 0001:00057814
   381 0001:0005781a   383 0001:0005781c   384 0001:0005781f   386 0001:00057822
   387 0001:00057825   389 0001:00057827   390 0001:00057828   391 0001:0005782a
   393 0001:0005782b   397 0001:00057834   400 0001:00057836   405 0001:00057840
   406 0001:00057842   408 0001:00057847   409 0001:0005784a   411 0001:0005784c
   412 0001:0005784f   414 0001:00057851   418 0001:00057858   425 0001:0005786c
   426 0001:0005786f   428 0001:00057871   429 0001:00057874   431 0001:00057877
   432 0001:0005787a   434 0001:0005787d   435 0001:00057880   437 0001:00057882
   438 0001:00057883   439 0001:00057885   441 0001:00057886   445 0001:00057890
   446 0001:00057893   448 0001:00057895   449 0001:00057898   451 0001:0005789b
   452 0001:0005789e   454 0001:000578a1   455 0001:000578a4   457 0001:000578a7
   458 0001:000578aa   460 0001:000578ac   461 0001:000578ad   462 0001:000578af
   464 0001:000578b0   468 0001:000578b8   469 0001:000578bb   471 0001:000578bd
   472 0001:000578c0   474 0001:000578c3   475 0001:000578c6   477 0001:000578c9
   478 0001:000578cc   480 0001:000578cf   481 0001:000578d2   483 0001:000578d5
   484 0001:000578d8   486 0001:000578de   487 0001:000578df   488 0001:000578e1
   490 0001:000578e2   499 0001:0005790c   501 0001:00057910   503 0001:00057914
   505 0001:00057918   507 0001:0005791c   509 0001:00057920   511 0001:00057924
   513 0001:00057928   515 0001:0005792c   517 0001:00057930   519 0001:00057934
   521 0001:00057938   523 0001:0005793c   525 0001:00057940   527 0001:00057944
   529 0001:0005794b   530 0001:0005794d   532 0001:0005794f   541 0001:00057968
   543 0001:0005796b   544 0001:0005796c   545 0001:0005796d   549 0001:00057970
   551 0001:00057973   552 0001:00057976   553 0001:00057979   554 0001:0005797a
   555 0001:0005797b   559 0001:00057980   561 0001:00057983   562 0001:00057986
   563 0001:00057989   564 0001:0005798c   565 0001:0005798f   566 0001:00057990
   567 0001:00057991   571 0001:00057994   573 0001:00057997   574 0001:0005799a
   575 0001:0005799d   576 0001:000579a0   577 0001:000579a3   578 0001:000579a6
   579 0001:000579a9   580 0001:000579aa   581 0001:000579ab

Line numbers for E:\VS.NET\Vc7\lib\LIBC.lib(F:\VS70Builds\9466\vc\crtbld\crt\src\intel\memcmp.asm) segment .text

    64 0001:0005fbd0    60 0001:0005fbd0    65 0001:0005fbd4    66 0001:0005fbd6
    68 0001:0005fbd8    69 0001:0005fbdc    70 0001:0005fbdd    71 0001:0005fbde
    72 0001:0005fbe0    75 0001:0005fbe4    76 0001:0005fbe6    77 0001:0005fbe9
    84 0001:0005fbeb    85 0001:0005fbf0    87 0001:0005fbf2    88 0001:0005fbf4
    89 0001:0005fbf6    90 0001:0005fbf8    91 0001:0005fbfb    92 0001:0005fbfe
    93 0001:0005fc01    96 0001:0005fc03    97 0001:0005fc05    98 0001:0005fc07
    99 0001:0005fc09   101 0001:0005fc0b   102 0001:0005fc0e   103 0001:0005fc11
   104 0001:0005fc13   106 0001:0005fc15   107 0001:0005fc18   109 0001:0005fc1b
   110 0001:0005fc1e   112 0001:0005fc20   113 0001:0005fc21   115 0001:0005fc22
   119 0001:0005fc23   120 0001:0005fc25   122 0001:0005fc28   123 0001:0005fc2b
   125 0001:0005fc2d   127 0001:0005fc2f   130 0001:0005fc31   131 0001:0005fc34
   132 0001:0005fc37   133 0001:0005fc39   134 0001:0005fc3b   135 0001:0005fc3d
   136 0001:0005fc3f   137 0001:0005fc42   138 0001:0005fc45   139 0001:0005fc47
   140 0001:0005fc49   144 0001:0005fc4b   147 0001:0005fc50   148 0001:0005fc52
   149 0001:0005fc53   150 0001:0005fc56   151 0001:0005fc57   157 0001:0005fc58
   159 0001:0005fc5a   160 0001:0005fc5c   161 0001:0005fc5e   162 0001:0005fc60
   163 0001:0005fc62   164 0001:0005fc64   165 0001:0005fc67   166 0001:0005fc69
   167 0001:0005fc6b   168 0001:0005fc6d   169 0001:0005fc70   170 0001:0005fc72
   171 0001:0005fc78   172 0001:0005fc7e   173 0001:0005fc80   174 0001:0005fc82
   176 0001:0005fc85   177 0001:0005fc86   178 0001:0005fc87

Line numbers for E:\VS.NET\Vc7\lib\LIBC.lib(F:\VS70Builds\9466\vc\crtbld\crt\src\intel\memcpy.asm) segment .text

   109 0001:0005ef80   109 0001:0005ef80   121 0001:0005ef83   122 0001:0005ef84
   124 0001:0005ef85   125 0001:0005ef88   127 0001:0005ef8b   137 0001:0005ef8e
   139 0001:0005ef90   140 0001:0005ef92   142 0001:0005ef94   143 0001:0005ef96
   145 0001:0005ef98   146 0001:0005ef9a   162 0001:0005efa0   163 0001:0005efa6
   165 0001:0005efa8   166 0001:0005efab   168 0001:0005efae   169 0001:0005efb1
   171 0001:0005efb3   173 0001:0005efb5   191 0001:0005efbc   192 0001:0005efbe
   194 0001:0005efc3   195 0001:0005efc6   197 0001:0005efc8   198 0001:0005efcb
   200 0001:0005efcd   204 0001:0005efd4   208 0001:0005efdc   215 0001:0005eff0
   216 0001:0005eff2   218 0001:0005eff4   219 0001:0005eff6   221 0001:0005eff9
   222 0001:0005effc   224 0001:0005efff   225 0001:0005f002   227 0001:0005f005
   228 0001:0005f008   230 0001:0005f00b   231 0001:0005f00e   233 0001:0005f010
   235 0001:0005f012   239 0001:0005f01c   240 0001:0005f01e   242 0001:0005f020
   243 0001:0005f022   245 0001:0005f025   246 0001:0005f028   248 0001:0005f02b
   249 0001:0005f02e   251 0001:0005f031   252 0001:0005f034   254 0001:0005f036
   256 0001:0005f038   260 0001:0005f040   261 0001:0005f042   263 0001:0005f044
   264 0001:0005f046   266 0001:0005f049   267 0001:0005f04c   269 0001:0005f04f
   270 0001:0005f052   272 0001:0005f054   274 0001:0005f056   281 0001:0005f080
   283 0001:0005f084   285 0001:0005f088   287 0001:0005f08c   289 0001:0005f090
   291 0001:0005f094   293 0001:0005f098   295 0001:0005f09c   297 0001:0005f0a0
   299 0001:0005f0a4   301 0001:0005f0a8   303 0001:0005f0ac   305 0001:0005f0b0
   307 0001:0005f0b4   309 0001:0005f0b8   311 0001:0005f0bf   312 0001:0005f0c1
   314 0001:0005f0c3   323 0001:0005f0dc   324 0001:0005f0df   325 0001:0005f0e0
   327 0001:0005f0e1   331 0001:0005f0e4   333 0001:0005f0e6   334 0001:0005f0e8
   335 0001:0005f0eb   336 0001:0005f0ec   337 0001:0005f0ed   341 0001:0005f0f0
   343 0001:0005f0f2   344 0001:0005f0f4   345 0001:0005f0f7   346 0001:0005f0fa
   347 0001:0005f0fd   348 0001:0005f0fe   349 0001:0005f0ff   353 0001:0005f104
   355 0001:0005f106   356 0001:0005f108   357 0001:0005f10b   358 0001:0005f10e
   359 0001:0005f111   360 0001:0005f114   361 0001:0005f117   362 0001:0005f118
   363 0001:0005f119   374 0001:0005f11c   375 0001:0005f120   380 0001:0005f124
   381 0001:0005f12a   383 0001:0005f12c   384 0001:0005f12f   386 0001:0005f132
   387 0001:0005f135   389 0001:0005f137   390 0001:0005f138   391 0001:0005f13a
   393 0001:0005f13b   397 0001:0005f144   400 0001:0005f146   405 0001:0005f150
   406 0001:0005f152   408 0001:0005f157   409 0001:0005f15a   411 0001:0005f15c
   412 0001:0005f15f   414 0001:0005f161   418 0001:0005f168   425 0001:0005f17c
   426 0001:0005f17f   428 0001:0005f181   429 0001:0005f184   431 0001:0005f187
   432 0001:0005f18a   434 0001:0005f18d   435 0001:0005f190   437 0001:0005f192
   438 0001:0005f193   439 0001:0005f195   441 0001:0005f196   445 0001:0005f1a0
   446 0001:0005f1a3   448 0001:0005f1a5   449 0001:0005f1a8   451 0001:0005f1ab
   452 0001:0005f1ae   454 0001:0005f1b1   455 0001:0005f1b4   457 0001:0005f1b7
   458 0001:0005f1ba   460 0001:0005f1bc   461 0001:0005f1bd   462 0001:0005f1bf
   464 0001:0005f1c0   468 0001:0005f1c8   469 0001:0005f1cb   471 0001:0005f1cd
   472 0001:0005f1d0   474 0001:0005f1d3   475 0001:0005f1d6   477 0001:0005f1d9
   478 0001:0005f1dc   480 0001:0005f1df   481 0001:0005f1e2   483 0001:0005f1e5
   484 0001:0005f1e8   486 0001:0005f1ee   487 0001:0005f1ef   488 0001:0005f1f1
   490 0001:0005f1f2   499 0001:0005f21c   501 0001:0005f220   503 0001:0005f224
   505 0001:0005f228   507 0001:0005f22c   509 0001:0005f230   511 0001:0005f234
   513 0001:0005f238   515 0001:0005f23c   517 0001:0005f240   519 0001:0005f244
   521 0001:0005f248   523 0001:0005f24c   525 0001:0005f250   527 0001:0005f254
   529 0001:0005f25b   530 0001:0005f25d   532 0001:0005f25f   541 0001:0005f278
   543 0001:0005f27b   544 0001:0005f27c   545 0001:0005f27d   549 0001:0005f280
   551 0001:0005f283   552 0001:0005f286   553 0001:0005f289   554 0001:0005f28a
   555 0001:0005f28b   559 0001:0005f290   561 0001:0005f293   562 0001:0005f296
   563 0001:0005f299   564 0001:0005f29c   565 0001:0005f29f   566 0001:0005f2a0
   567 0001:0005f2a1   571 0001:0005f2a4   573 0001:0005f2a7   574 0001:0005f2aa
   575 0001:0005f2ad   576 0001:0005f2b0   577 0001:0005f2b3   578 0001:0005f2b6
   579 0001:0005f2b9   580 0001:0005f2ba   581 0001:0005f2bb

Line numbers for E:\VS.NET\Vc7\lib\LIBC.lib(f:\vs70builds\9466\vc\crtbld\crt\src\vsprintf.c) segment .text

    85 0001:00058d3b    96 0001:00058d41    99 0001:00058d45   101 0001:00058d49
   102 0001:00058d6b   103 0001:00058d71   105 0001:00058d8b   106 0001:00058d8f

Line numbers for E:\VS.NET\Vc7\lib\LIBC.lib(f:\vs70builds\9466\vc\crtbld\crt\src\tmpfile.c) segment .text

   329 0001:00059b9d   326 0001:00059b9d   330 0001:00059ba3   332 0001:00059baa
   341 0001:00059baf   343 0001:00059bbb   345 0001:00059bbf   346 0001:00059bcc
   351 0001:00059bd0   353 0001:00059bd7   354 0001:00059bda   356 0001:00059bdc
   362 0001:00059be0   363 0001:00059bee   364 0001:00059bfd   387 0001:00059bfe
   392 0001:00059c03   396 0001:00059c0f   397 0001:00059c25   399 0001:00059c2a
   401 0001:00059c40   402 0001:00059c43   194 0001:00059c45   196 0001:00059c46
   214 0001:00059c4b   215 0001:00059c5a   217 0001:00059c62   225 0001:00059c76
   226 0001:00059c81   227 0001:00059c8b   249 0001:00059c90   250 0001:00059cb6
   257 0001:00059cd9   267 0001:00059cde   271 0001:00059cee   272 0001:00059cf5
   277 0001:00059cf7   278 0001:00059cfa   279 0001:00059cff   280 0001:00059d0c
   282 0001:00059d0f   298 0001:00059d16   299 0001:00059d1b

Line numbers for E:\VS.NET\Vc7\lib\LIBC.lib(f:\vs70builds\9466\vc\crtbld\crt\src\stream.c) segment .text

    45 0001:00063754    59 0001:00063757    61 0001:0006376d    65 0001:00063774
    84 0001:00063781    85 0001:00063784    93 0001:00063786   110 0001:000637a8
   120 0001:000637aa   123 0001:000637ae   133 0001:000637c1   134 0001:000637c5

Line numbers for E:\VS.NET\Vc7\lib\LIBC.lib(f:\vs70builds\9466\vc\crtbld\crt\src\sprintf.c) segment .text

    85 0001:00056c05   102 0001:00056c0c   104 0001:00056c10   106 0001:00056c37
   107 0001:00056c3d   109 0001:00056c57   110 0001:00056c5b

Line numbers for E:\VS.NET\Vc7\lib\LIBC.lib(f:\vs70builds\9466\vc\crtbld\crt\src\sprintf.c) segment .text

    85 0001:00057614    99 0001:0005761a   102 0001:0005761e   104 0001:00057625
   106 0001:00057645   107 0001:0005764b   109 0001:00057665   110 0001:00057669

Line numbers for E:\VS.NET\Vc7\lib\LIBC.lib(f:\vs70builds\9466\vc\crtbld\crt\src\rmtmp.c) segment .text

    53 0001:00063448    62 0001:0006344a    64 0001:00063456    83 0001:00063468
    85 0001:0006346e    86 0001:00063475   105 0001:0006347f   106 0001:00063483

Line numbers for E:\VS.NET\Vc7\lib\LIBC.lib(f:\vs70builds\9466\vc\crtbld\crt\src\output.c) segment .text

  1127 0001:0005a291  1126 0001:0005a291  1130 0001:0005a29b  1135 0001:0005a29d
  1137 0001:0005a2be  1140 0001:0005a2c0  1139 0001:0005a2c1  1140 0001:0005a2c3
  1191 0001:0005a2c4  1194 0001:0005a2ca  1193 0001:0005a2cc  1194 0001:0005a2da
  1192 0001:0005a2df  1197 0001:0005a2e6  1251 0001:0005a2e8  1252 0001:0005a2e8
  1254 0001:0005a2fa  1255 0001:0005a300  1258 0001:0005a302  1259 0001:0005a310
  1257 0001:0005a315  1262 0001:0005a31e   346 0001:0005a31f   377 0001:0005a334
   378 0001:0005a339   380 0001:0005a33c   383 0001:0005a33f   384 0001:0005a365
   385 0001:0005a380   388 0001:0005a388   410 0001:0005a3a0   412 0001:0005a3a2
   413 0001:0005a3b5   414 0001:0005a3b8   418 0001:0005a3bd   432 0001:0005a3dc
   433 0001:0005a3e0   420 0001:0005a3e5   421 0001:0005a3e9   423 0001:0005a3ee
   424 0001:0005a3f2   429 0001:0005a3f7   430 0001:0005a3fb   426 0001:0005a400
   435 0001:0005a404   439 0001:0005a409   441 0001:0005a40e   442 0001:0005a418
   444 0001:0005a423   445 0001:0005a427   448 0001:0005a42a   450 0001:0005a42f
   452 0001:0005a43f   457 0001:0005a444   458 0001:0005a448   462 0001:0005a44d
   464 0001:0005a452   465 0001:0005a45c   466 0001:0005a467   468 0001:0005a46b
   470 0001:0005a470   472 0001:0005a480   476 0001:0005a485   538 0001:0005a49d
   539 0001:0005a4a1   478 0001:0005a4a6   479 0001:0005a4aa   533 0001:0005a4af
   534 0001:0005a4b3   503 0001:0005a4b8   505 0001:0005a4c4   506 0001:0005a4c6
   508 0001:0005a4cd   510 0001:0005a4dc   511 0001:0005a4de   513 0001:0005a4e5
   518 0001:0005a4ea   527 0001:0005a51a   399 0001:0005a51e   400 0001:0005a532
   401 0001:0005a53f   405 0001:0005a545   406 0001:0005a552   554 0001:0005a557
   644 0001:0005a595   645 0001:0005a59d   667 0001:0005a5a1   668 0001:0005a5ae
   694 0001:0005a5b2   695 0001:0005a5c7   696 0001:0005a5cb   698 0001:0005a5d3
   746 0001:0005a5e2   747 0001:0005a5e9   754 0001:0005a5ec   758 0001:0005a5f0
   759 0001:0005a603   760 0001:0005a60a   557 0001:0005a60f   561 0001:0005a617
   590 0001:0005a61b   592 0001:0005a62e   595 0001:0005a63b   596 0001:0005a644
   597 0001:0005a64b   554 0001:0005a64d   814 0001:0005a65e   815 0001:0005a662
   883 0001:0005a669   884 0001:0005a679   885 0001:0005a687   603 0001:0005a68c
   604 0001:0005a695   607 0001:0005a69c   610 0001:0005a6a5   623 0001:0005a6aa
   624 0001:0005a6b4   629 0001:0005a6bf   631 0001:0005a6c3   632 0001:0005a6d0
   633 0001:0005a6d7   634 0001:0005a6dc   636 0001:0005a6e0   626 0001:0005a6e5
   627 0001:0005a6ed   640 0001:0005a6ee   760 0001:0005a6f3   761 0001:0005a6fa
   762 0001:0005a701   763 0001:0005a70d   765 0001:0005a710   768 0001:0005a71a
   769 0001:0005a728   770 0001:0005a730   771 0001:0005a733   773 0001:0005a737
   787 0001:0005a73a   789 0001:0005a73f   793 0001:0005a763   794 0001:0005a777
   797 0001:0005a77f   798 0001:0005a788   802 0001:0005a790   803 0001:0005a795
   804 0001:0005a799   807 0001:0005a79d   809 0001:0005a7a4   554 0001:0005a7a9
   842 0001:0005a7df   699 0001:0005a7e8   700 0001:0005a7ef   699 0001:0005a7f1
   701 0001:0005a7f5   703 0001:0005a7fa   704 0001:0005a7ff   705 0001:0005a803
   706 0001:0005a80b   707 0001:0005a810   708 0001:0005a816   707 0001:0005a817
   709 0001:0005a81b   714 0001:0005a81e   827 0001:0005a823   837 0001:0005a82a
   847 0001:0005a82d   850 0001:0005a83e   851 0001:0005a84a   853 0001:0005a851
   858 0001:0005a856   860 0001:0005a867   723 0001:0005a870   733 0001:0005a874
   734 0001:0005a880   735 0001:0005a887   737 0001:0005a889   739 0001:0005a88e
   741 0001:0005a895   897 0001:0005a89a   896 0001:0005a8a6   897 0001:0005a8ab
   898 0001:0005a8b0   899 0001:0005a8b2   900 0001:0005a8b6   903 0001:0005a8b8
   904 0001:0005a8bb   905 0001:0005a8be   906 0001:0005a8c0   910 0001:0005a8c2
   911 0001:0005a8d1   912 0001:0005a8d8   918 0001:0005a8dc   924 0001:0005a8e5
   930 0001:0005a8e7   931 0001:0005a8ed   932 0001:0005a8f4   933 0001:0005a8f6
   934 0001:0005a8fa   935 0001:0005a904   939 0001:0005a907   940 0001:0005a90d
   945 0001:0005a911   947 0001:0005a914   948 0001:0005a924   950 0001:0005a934
   952 0001:0005a940   954 0001:0005a943   955 0001:0005a946   957 0001:0005a948
   958 0001:0005a94d   962 0001:0005a94e   963 0001:0005a965   964 0001:0005a96e
   975 0001:0005a972   978 0001:0005a97c   979 0001:0005a984   981 0001:0005a989
   984 0001:0005a98d   986 0001:0005a994   989 0001:0005a998   991 0001:0005a99f
   992 0001:0005a9a3   998 0001:0005a9aa  1002 0001:0005a9b3  1004 0001:0005a9b8
  1008 0001:0005a9c9  1010 0001:0005a9da  1012 0001:0005a9e5  1017 0001:0005a9f4
  1023 0001:0005aa00  1024 0001:0005aa09  1025 0001:0005aa0c  1026 0001:0005aa1e
  1028 0001:0005aa23  1030 0001:0005aa39  1031 0001:0005aa3b  1052 0001:0005aa4a
  1054 0001:0005aa50  1060 0001:0005aa61  1061 0001:0005aa67  1062 0001:0005aa6f
  1070 0001:0005aa83

Line numbers for E:\VS.NET\Vc7\lib\LIBC.lib(f:\vs70builds\9466\vc\crtbld\crt\src\fwrite.c) segment .text

    97 0001:00059a40   107 0001:00059a45   108 0001:00059a4a   109 0001:00059a51
   110 0001:00059a5d   112 0001:00059a65   114 0001:00059a70   115 0001:00059a76
   117 0001:00059a78   122 0001:00059a7f   124 0001:00059a91   125 0001:00059a99
   129 0001:00059aa4   130 0001:00059aa7   131 0001:00059aae   133 0001:00059ab1
   139 0001:00059ab8   140 0001:00059abc   149 0001:00059ac7   151 0001:00059ad8
   152 0001:00059ae7   161 0001:00059aec   163 0001:00059af1   169 0001:00059af5
   172 0001:00059afa   173 0001:00059b00   179 0001:00059b0e   183 0001:00059b11
   120 0001:00059b23   188 0001:00059b2b   189 0001:00059b31   143 0001:00059b33
   165 0001:00059b3e   166 0001:00059b42

Line numbers for E:\VS.NET\Vc7\lib\LIBC.lib(f:\vs70builds\9466\vc\crtbld\crt\src\ftell.c) segment .text

    91 0001:00062e11   104 0001:00062e1a   106 0001:00062e20   107 0001:00062e2a
   109 0001:00062e2d   110 0001:00062e3e   112 0001:00062e40   113 0001:00062e4a
   115 0001:00062e52   117 0001:00062e5b   118 0001:00062e63   119 0001:00062e7b
   120 0001:00062e81   121 0001:00062e86   119 0001:00062e89   128 0001:00062e8e
   129 0001:00062e94   123 0001:00062e9c   124 0001:00062ea0   125 0001:00062eaa
   131 0001:00062eb2   133 0001:00062ebc   134 0001:00062ec3   136 0001:00062ec6
   143 0001:00062ecb   147 0001:00062ed2   157 0001:00062eed   159 0001:00062f01
   161 0001:00062f0b   163 0001:00062f10   160 0001:00062f13   168 0001:00062f18
   172 0001:00062f1c   174 0001:00062f1e   185 0001:00062f2b   194 0001:00062f43
   195 0001:00062f45   201 0001:00062f4b   202 0001:00062f54   207 0001:00062f57
   211 0001:00062f5d   212 0001:00062f68

Line numbers for E:\VS.NET\Vc7\lib\LIBC.lib(f:\vs70builds\9466\vc\crtbld\crt\src\fseek.c) segment .text

   144 0001:000599b2   155 0001:000599b3   162 0001:000599d1   168 0001:000599d4
   169 0001:000599dc   170 0001:000599e7   175 0001:000599e9   182 0001:000599ef
   183 0001:000599f7   184 0001:000599fd   185 0001:000599ff   186 0001:00059a0c
   190 0001:00059a13   156 0001:00059a30   157 0001:00059a3a   191 0001:00059a3f

Line numbers for E:\VS.NET\Vc7\lib\LIBC.lib(f:\vs70builds\9466\vc\crtbld\crt\src\fread.c) segment .text

    99 0001:000598c9   109 0001:000598cf   111 0001:000598d3   112 0001:000598e6
   114 0001:000598ee   116 0001:000598f9   117 0001:000598ff   119 0001:00059901
   125 0001:0005990d   127 0001:0005991c   128 0001:00059924   131 0001:0005992d
   132 0001:00059930   133 0001:00059933   134 0001:00059938   136 0001:0005993a
   144 0001:00059944   146 0001:00059955   147 0001:00059962   152 0001:00059966
   159 0001:0005996b   160 0001:0005996e   162 0001:00059970   165 0001:00059972
   171 0001:0005997e   175 0001:00059980   122 0001:0005998a   180 0001:00059994
   181 0001:0005999a   149 0001:0005999c   150 0001:000599a0   154 0001:000599ac
   155 0001:000599b0

Line numbers for E:\VS.NET\Vc7\lib\LIBC.lib(f:\vs70builds\9466\vc\crtbld\crt\src\fflush.c) segment .text

   151 0001:00062d03   161 0001:00062d05   163 0001:00062d2a   167 0001:00062d3b
   168 0001:00062d42   170 0001:00062d48   171 0001:00062d4a   172 0001:00062d4e
   176 0001:00062d52   177 0001:00062d55   179 0001:00062d5c   180 0001:00062d5f
   106 0001:00062d60   109 0001:00062d61   110 0001:00062d69   125 0001:00062d71
   115 0001:00062d72   117 0001:00062d7d   125 0001:00062d81   121 0001:00062d82
   122 0001:00062d88   125 0001:00062d96   124 0001:00062d97   125 0001:00062d9a
   237 0001:00062d9b   239 0001:00062d9e   240 0001:00062da2   247 0001:00062da4
   249 0001:00062dac   269 0001:00062dc0   275 0001:00062dc7   279 0001:00062dd3
   281 0001:00062dd4   282 0001:00062dd6   288 0001:00062de2   289 0001:00062dee
   247 0001:00062df0   309 0001:00062df9   310 0001:00062dfe   312 0001:00062e02
   313 0001:00062e07   203 0001:00062e08   202 0001:00062e08   204 0001:00062e10

Line numbers for E:\VS.NET\Vc7\lib\LIBC.lib(f:\vs70builds\9466\vc\crtbld\crt\src\fclose.c) segment .text

    99 0001:00059b47   106 0001:00059b48   115 0001:00059b5c   124 0001:00059b60
   125 0001:00059b66   127 0001:00059b6e   128 0001:00059b7d   130 0001:00059b80
   139 0001:00059b89   140 0001:00059b8f   145 0001:00059b96   147 0001:00059b9c

Line numbers for E:\VS.NET\Vc7\lib\LIBC.lib(f:\vs70builds\9466\vc\crtbld\crt\src\closeall.c) segment .text

    43 0001:00065593    52 0001:00065595    54 0001:000655a2    59 0001:000655ae
    60 0001:000655c0    65 0001:000655c1    70 0001:000655c6    71 0001:000655d3
    83 0001:000655e6    84 0001:000655ea

Line numbers for E:\VS.NET\Vc7\lib\LIBC.lib(f:\vs70builds\9466\vc\crtbld\crt\src\_getbuf.c) segment .text

    50 0001:00063d24    43 0001:00063d24    58 0001:00063d2a    61 0001:00063d40
    62 0001:00063d44    65 0001:00063d4b    69 0001:00063d4d    70 0001:00063d51
    71 0001:00063d57    75 0001:00063d5e    76 0001:00063d61    79 0001:00063d67

Line numbers for E:\VS.NET\Vc7\lib\LIBC.lib(f:\vs70builds\9466\vc\crtbld\crt\src\_freebuf.c) segment .text

    47 0001:000631d1    50 0001:000631d2    52 0001:000631e1    54 0001:000631e9
    55 0001:000631ef    56 0001:000631f7    58 0001:000631fb

Line numbers for E:\VS.NET\Vc7\lib\LIBC.lib(f:\vs70builds\9466\vc\crtbld\crt\src\_flsbuf.c) segment .text

    95 0001:0005a17b   106 0001:0005a180   108 0001:0005a183   121 0001:0005a199
   122 0001:0005a19d   123 0001:0005a1a1   124 0001:0005a1a9   125 0001:0005a1ac
   134 0001:0005a1b4   135 0001:0005a1b7   138 0001:0005a1c5   148 0001:0005a1ce
   150 0001:0005a1e9   155 0001:0005a1f0   159 0001:0005a1f9   160 0001:0005a1fe
   161 0001:0005a203   163 0001:0005a209   164 0001:0005a210   165 0001:0005a21b
   166 0001:0005a21d   167 0001:0005a243   170 0001:0005a250   177 0001:0005a258
   178 0001:0005a25a   180 0001:0005a25d   192 0001:0005a26e   193 0001:0005a274
   194 0001:0005a278   198 0001:0005a27a   109 0001:0005a284   110 0001:0005a28a
   203 0001:0005a28f

Line numbers for E:\VS.NET\Vc7\lib\LIBC.lib(f:\vs70builds\9466\vc\crtbld\crt\src\_file.c) segment .text

   126 0001:00063d8f   117 0001:00063d8f   127 0001:00063d9c   128 0001:00063da1
   129 0001:00063da7   138 0001:00063dae   141 0001:00063dc1   142 0001:00063dda
   161 0001:00063dde   149 0001:00063ddf   150 0001:00063ded   152 0001:00063dfe
   154 0001:00063e05   156 0001:00063e22   152 0001:00063e25   160 0001:00063e31
   161 0001:00063e34   189 0001:00063e35   191 0001:00063e35   194 0001:00063e3a
   195 0001:00063e43   196 0001:00063e48

Line numbers for E:\VS.NET\Vc7\lib\LIBC.lib(f:\vs70builds\9466\vc\crtbld\crt\src\_filbuf.c) segment .text

    98 0001:000629b9   107 0001:000629ba   110 0001:000629d1   111 0001:000629d5
   112 0001:000629db   115 0001:000629e0   119 0001:000629e3   120 0001:000629ec
   121 0001:000629f3   122 0001:000629f5   124 0001:000629fa   127 0001:00062a0b
   138 0001:00062a17   139 0001:00062a4d   146 0001:00062a56   148 0001:00062a6c
   152 0001:00062a73   158 0001:00062a80   131 0001:00062a81   132 0001:00062a8e
   158 0001:00062a96

Line numbers for E:\VS.NET\Vc7\lib\LIBC.lib(f:\vs70builds\9466\vc\crtbld\crt\src\intel\fp8.c) segment .text

    19 0001:0005a100    18 0001:0005a100    20 0001:0005a111

Line numbers for E:\VS.NET\Vc7\lib\LIBC.lib(f:\vs70builds\9466\vc\crtbld\crt\src\crt0.c) segment .text

   314 0001:00057a69   312 0001:00057a69   318 0001:00057a72   320 0001:00057a77
   321 0001:00057a80   322 0001:00057a8d   135 0001:00057a8e   150 0001:00057a9a
   155 0001:00057aab   156 0001:00057aad   158 0001:00057ab4   159 0001:00057abd
   160 0001:00057ac5   166 0001:00057ace   167 0001:00057add   168 0001:00057ae2
   169 0001:00057aee   174 0001:00057af8   179 0001:00057b55   181 0001:00057b60
   192 0001:00057b81   200 0001:00057b86   202 0001:00057b89   203 0001:00057b92
   218 0001:00057b9a   221 0001:00057ba5   223 0001:00057baf   224 0001:00057bb8
   225 0001:00057bc0   226 0001:00057bc9   229 0001:00057bd1   230 0001:00057bd9
   231 0001:00057bdd   235 0001:00057be4   236 0001:00057be7   242 0001:00057bf1
   251 0001:00057bf9   264 0001:00057c1b   265 0001:00057c20   267 0001:00057c26
   270 0001:00057c2d   276 0001:00057c44   278 0001:00057c47   279 0001:00057c4d
   281 0001:00057c53   285 0001:00057c5c   286 0001:00057c5e

Line numbers for E:\VS.NET\Vc7\lib\LIBC.lib(f:\vs70builds\9466\vc\crtbld\crt\src\wincmdln.c) segment .text

    59 0001:0005c738    52 0001:0005c738    60 0001:0005c741    70 0001:0005c747
    73 0001:0005c758    80 0001:0005c75e    83 0001:0005c769    84 0001:0005c777
    80 0001:0005c778    92 0001:0005c77f    95 0001:0005c784    96 0001:0005c786
    97 0001:0005c78a   103 0001:0005c790   104 0001:0005c796   103 0001:0005c797
   106 0001:0005c79d   107 0001:0005c7a0

Line numbers for E:\VS.NET\Vc7\lib\LIBC.lib(f:\vs70builds\9466\vc\crtbld\crt\src\stdenvp.c) segment .text

    73 0001:0005c7a1    81 0001:0005c7a2    82 0001:0005c7ae    90 0001:0005c7b3
    98 0001:0005c7bb    99 0001:0005c7bf   110 0001:0005c7c1   111 0001:0005c7c5
   112 0001:0005c7c6   117 0001:0005c7d7   118 0001:0005c7f1   124 0001:0005c7f6
   127 0001:0005c7ff   129 0001:0005c808   131 0001:0005c80e   137 0001:0005c81b
   138 0001:0005c824   124 0001:0005c827   146 0001:0005c82d   147 0001:0005c838
   151 0001:0005c83e   158 0001:0005c840   161 0001:0005c84a   162 0001:0005c851

Line numbers for E:\VS.NET\Vc7\lib\LIBC.lib(f:\vs70builds\9466\vc\crtbld\crt\src\stdargv.c) segment .text

   208 0001:0005c868   216 0001:0005c86d   220 0001:0005c872   221 0001:0005c882
   242 0001:0005c88b   244 0001:0005c890   245 0001:0005c897   246 0001:0005c89c
   248 0001:0005c89e   249 0001:0005c8a0   250 0001:0005c8a4   252 0001:0005c8a9
   254 0001:0005c8ab   255 0001:0005c8b8   256 0001:0005c8ba   257 0001:0005c8be
   258 0001:0005c8c3   262 0001:0005c8c4   267 0001:0005c8d9   268 0001:0005c8dd
   271 0001:0005c8e1   276 0001:0005c8e5   277 0001:0005c8ee   278 0001:0005c8fa
   265 0001:0005c8fd   266 0001:0005c8fe   281 0001:0005c900   285 0001:0005c909
   286 0001:0005c90f   287 0001:0005c918   301 0001:0005c91a   305 0001:0005c91d
   308 0001:0005c921   309 0001:0005c922   306 0001:0005c923   311 0001:0005c928
   314 0001:0005c92d   315 0001:0005c932   316 0001:0005c938   317 0001:0005c940
   318 0001:0005c942   321 0001:0005c944   323 0001:0005c946   325 0001:0005c951
   329 0001:0005c953   330 0001:0005c957   331 0001:0005c95b   332 0001:0005c95f
   336 0001:0005c964   341 0001:0005c97a   342 0001:0005c97e   343 0001:0005c982
   344 0001:0005c98e   345 0001:0005c992   347 0001:0005c994   348 0001:0005c999
   349 0001:0005c99b   350 0001:0005c9a7   351 0001:0005c9a8   354 0001:0005c9aa
   356 0001:0005c9ac   365 0001:0005c9ad   369 0001:0005c9b2   370 0001:0005c9b6
   371 0001:0005c9ba   372 0001:0005c9bc   375 0001:0005c9c4   376 0001:0005c9cb
   377 0001:0005c9ce   378 0001:0005c9d2    87 0001:0005c9d4    96 0001:0005c9dc
    97 0001:0005c9e6   102 0001:0005c9eb   103 0001:0005c9f2   119 0001:0005ca04
   126 0001:0005ca1c   130 0001:0005ca2d   131 0001:0005ca43   132 0001:0005ca47
   139 0001:0005ca4c   143 0001:0005ca5e   147 0001:0005ca69   162 0001:0005ca6f
   163 0001:0005ca74

Line numbers for E:\VS.NET\Vc7\lib\LIBC.lib(f:\vs70builds\9466\vc\crtbld\crt\src\crt0msg.c) segment .text

   168 0001:0005c417   172 0001:0005c428   173 0001:0005c435   176 0001:0005c444
   197 0001:0005c455   205 0001:0005c474   213 0001:0005c480   214 0001:0005c49a
   218 0001:0005c4ad   220 0001:0005c4c6   221 0001:0005c4dd   228 0001:0005c4ef
   230 0001:0005c515   231 0001:0005c520   232 0001:0005c527   233 0001:0005c532
   237 0001:0005c53e   203 0001:0005c553   242 0001:0005c578   134 0001:0005c58e
   137 0001:0005c58e   139 0001:0005c5a5   140 0001:0005c5af   141 0001:0005c5b9
   142 0001:0005c5bb   144 0001:0005c5c6

Line numbers for E:\VS.NET\Vc7\lib\LIBC.lib(f:\vs70builds\9466\vc\crtbld\crt\src\crt0fp.c) segment .text

    47 0001:00063d1b    46 0001:00063d1b    48 0001:00063d23

Line numbers for E:\VS.NET\Vc7\lib\LIBC.lib(f:\vs70builds\9466\vc\crtbld\crt\src\crt0dat.c) segment .text

   436 0001:000596ae   432 0001:000596ae   437 0001:000596b9   438 0001:000596bd
   439 0001:000596c9   440 0001:000596cd   451 0001:000596d3   189 0001:000596de
   176 0001:000596de   190 0001:000596e7   196 0001:000596eb   197 0001:00059710
   198 0001:00059712   201 0001:00059714   206 0001:0005971e   208 0001:0005973e
   209 0001:00059742   326 0001:00059743   335 0001:00059747   336 0001:00059753
   342 0001:00059763   358 0001:00059777   359 0001:00059781   364 0001:0005978d
   365 0001:00059793   359 0001:00059795   371 0001:000597aa   377 0001:000597c9
   392 0001:000597e8   402 0001:000597f0   403 0001:00059803   293 0001:00059805
   294 0001:00059805   295 0001:00059815   302 0001:00059816   301 0001:00059816
   303 0001:00059826   308 0001:00059827   309 0001:00059827   310 0001:00059835
   316 0001:00059836   315 0001:00059836   317 0001:00059844

Line numbers for E:\VS.NET\Vc7\lib\LIBC.lib(F:\VS70Builds\9466\vc\crtbld\crt\src\intel\chkstk.asm) segment .text

    69 0001:00058a50    65 0001:00058a50    70 0001:00058a55    72 0001:00058a57
    73 0001:00058a59    74 0001:00058a5b    75 0001:00058a5e    76 0001:00058a60
    77 0001:00058a61    78 0001:00058a63    79 0001:00058a64    82 0001:00058a65
    83 0001:00058a66    88 0001:00058a6a    89 0001:00058a70    91 0001:00058a75
    93 0001:00058a77    94 0001:00058a7c    97 0001:00058a7e    98 0001:00058a80
   100 0001:00058a82   102 0001:00058a84   104 0001:00058a86   105 0001:00058a88
   107 0001:00058a8b   109 0001:00058a8c

Line numbers for E:\VS.NET\Vc7\lib\LIBC.lib(f:\vs70builds\9466\vc\crtbld\crt\src\winxfltr.c) segment .text

   202 0001:0005c5c7   222 0001:0005c5ca   235 0001:0005c615   240 0001:0005c61a
   241 0001:0005c61e   247 0001:0005c626   251 0001:0005c629   266 0001:0005c62f
   267 0001:0005c637   276 0001:0005c63f   284 0001:0005c64b   290 0001:0005c668
   318 0001:0005c671   320 0001:0005c681   322 0001:0005c68b   324 0001:0005c695
   326 0001:0005c69f   328 0001:0005c6a9   330 0001:0005c6b3   332 0001:0005c6bd
   334 0001:0005c6c7   336 0001:0005c6d1   338 0001:0005c6db   340 0001:0005c6e5
   342 0001:0005c6ef   344 0001:0005c6f9   353 0001:0005c703   358 0001:0005c70e
   360 0001:0005c714   365 0001:0005c716   366 0001:0005c71a   372 0001:0005c71d
   374 0001:0005c726   228 0001:0005c72b   376 0001:0005c736

Line numbers for E:\VS.NET\Vc7\lib\LIBC.lib(f:\vs70builds\9466\vc\crtbld\crt\src\winsig.c) segment .text

   653 0001:000655eb   652 0001:000655eb   670 0001:000655f7   679 0001:0006560d
   683 0001:0006561f   688 0001:00065621   689 0001:00065623   425 0001:00065624
   437 0001:00065629   484 0001:0006564d   454 0001:00065655   458 0001:00065660
   447 0001:00065662   451 0001:0006566d   461 0001:0006566f   465 0001:0006567a
   476 0001:0006567c   478 0001:00065688   440 0001:0006568a   490 0001:00065695
   491 0001:00065698   496 0001:0006569e   501 0001:000656a2   526 0001:000656aa
   531 0001:000656bb   532 0001:000656c1   539 0001:000656c8   544 0001:000656cc
   545 0001:000656d5   554 0001:000656e4   561 0001:000656e8   567 0001:00065705
   570 0001:0006570e   571 0001:00065710   581 0001:00065713   590 0001:00065717
   592 0001:00065723   593 0001:00065725   600 0001:00065728   610 0001:00065733
   614 0001:0006573e   618 0001:00065747   619 0001:0006574b

Line numbers for E:\VS.NET\Vc7\lib\LIBC.lib(f:\vs70builds\9466\vc\crtbld\crt\src\w_loc.c) segment .text

    57 0001:0006574d    65 0001:00065759    67 0001:0006575b    65 0001:0006575e
    67 0001:00065766    68 0001:00065774    70 0001:0006577a    71 0001:00065787
    76 0001:00065791    78 0001:0006579a    83 0001:000657b1   149 0001:000657b8
    85 0001:000657ba    88 0001:000657bd    94 0001:000657c0    95 0001:000657c5
    98 0001:000657cd    99 0001:000657e2   102 0001:000657e9   103 0001:000657ec
   105 0001:00065805   106 0001:0006580c   107 0001:00065811   110 0001:0006581c
   112 0001:00065820   113 0001:0006582d   114 0001:0006582f   118 0001:00065832
   121 0001:00065846   129 0001:0006584b   131 0001:0006584d   138 0001:0006584f
   142 0001:00065865   143 0001:0006586a   145 0001:00065871   150 0001:00065874

Line numbers for E:\VS.NET\Vc7\lib\LIBC.lib(f:\vs70builds\9466\vc\crtbld\crt\src\convrtcp.c) segment .text

    39 0001:00064621    42 0001:0006462f    44 0001:00064633    45 0001:0006464e
    46 0001:00064651    47 0001:00064653    49 0001:0006465d    79 0001:0006466a
    81 0001:00064681    82 0001:00064686    84 0001:00064689    85 0001:00064691
    87 0001:00064694    91 0001:000646a0    93 0001:000646b1    94 0001:000646c4
    95 0001:000646ca    98 0001:000646d1   100 0001:000646d6   101 0001:000646db
   102 0001:000646dd   104 0001:000646df   102 0001:000646f0   112 0001:000646f3
   113 0001:00064710   116 0001:00064712   117 0001:00064715   118 0001:0006472b
   120 0001:0006473f   121 0001:00064746   122 0001:0006474b   125 0001:00064756
   126 0001:0006475a   127 0001:0006476a   128 0001:00064771   137 0001:00064778
   139 0001:00064793   148 0001:00064798   149 0001:000647b0   150 0001:000647b6
   159 0001:000647b8   161 0001:000647d3   170 0001:000647e4   172 0001:000647f8
   173 0001:00064801   174 0001:00064804   175 0001:00064806   176 0001:0006480c
   183 0001:00064816   184 0001:0006481b   185 0001:00064822   186 0001:00064825

Line numbers for E:\VS.NET\Vc7\lib\LIBC.lib(f:\vs70builds\9466\vc\crtbld\crt\src\setlocal.c) segment .text

   953 0001:00057ffe   959 0001:00057fff   961 0001:0005800c   964 0001:00058021
   971 0001:00058022   976 0001:00058027   978 0001:00058037   979 0001:00058041
   982 0001:00058043   984 0001:0005804f   985 0001:0005805e   988 0001:00058065
   990 0001:0005806a   995 0001:0005806c   996 0001:00058081   998 0001:00058086
   999 0001:00058098  1001 0001:0005809f  1002 0001:000580b5  1007 0001:000580c8
  1015 0001:000580cd  1017 0001:000580d4  1005 0001:000580e8  1020 0001:000580ee
  1019 0001:000580f0  1027 0001:000580f4  1028 0001:000580f5  1029 0001:00058103
  1030 0001:0005810d  1031 0001:00058121  1032 0001:0005812d  1035 0001:00058141
   841 0001:00058142   834 0001:00058142   866 0001:00058164   844 0001:00058165
   847 0001:0005816b   850 0001:00058194   851 0001:000581a4   852 0001:000581b7
   847 0001:000581b9   848 0001:000581d1   856 0001:000581d9   857 0001:000581e0
   866 0001:000581e6   860 0001:000581e7   861 0001:000581f2   862 0001:000581f9
   866 0001:00058200   876 0001:00058201   882 0001:00058215   883 0001:00058221
   887 0001:00058228   889 0001:00058233   891 0001:00058236   893 0001:00058244
   894 0001:00058247   895 0001:0005824b   897 0001:0005824f   899 0001:0005825a
   901 0001:0005825c   905 0001:00058263   910 0001:00058287   911 0001:00058297
   914 0001:0005829b   915 0001:000582b2   919 0001:000582b4   921 0001:000582c0
   924 0001:000582ca   925 0001:000582d1   926 0001:000582d2   927 0001:000582d4
   931 0001:000582dd   932 0001:000582e3   933 0001:000582f5   934 0001:000582fb
   936 0001:0005830d   937 0001:00058318   938 0001:0005831c   713 0001:0005832d
   729 0001:00058340   733 0001:00058364   735 0001:0005837e   738 0001:00058384
   740 0001:0005839d   743 0001:000583a4   744 0001:000583ad   745 0001:000583b9
   746 0001:000583d2   749 0001:000583da   750 0001:000583ec   751 0001:000583f2
   760 0001:00058403   762 0001:0005840c   763 0001:0005840f   768 0001:00058415
   770 0001:0005842b   778 0001:00058432   779 0001:00058437   780 0001:00058445
   770 0001:00058455   772 0001:00058457   773 0001:00058472   783 0001:0005847a
   791 0001:00058480   793 0001:000584a7   798 0001:000584c5   799 0001:000584c7
   800 0001:000584c9   802 0001:000584e1   805 0001:000584e6   806 0001:000584eb
   808 0001:000584f3   811 0001:000584fd   812 0001:00058500   813 0001:0005850e
   814 0001:00058513   816 0001:0005851c   822 0001:00058521   823 0001:0005852a
   825 0001:00058533   827 0001:0005853b   530 0001:0005854b   603 0001:00058560
   608 0001:0005857a   611 0001:0005857e   613 0001:0005859b   619 0001:000585a0
   621 0001:000585b5   629 0001:000585d2   631 0001:000585df   635 0001:000585fd
   638 0001:0005860e   635 0001:0005862b   644 0001:00058639   647 0001:00058656
   649 0001:0005865e   650 0001:00058669   653 0001:0005866e   654 0001:0005867e
   656 0001:00058681   657 0001:00058688   659 0001:00058689   661 0001:00058692
   699 0001:00058699   704 0001:000586a0   666 0001:000586a7   668 0001:000586bd
   670 0001:000586c6   672 0001:000586ca   674 0001:000586db   678 0001:000586e7
   680 0001:000586e9   683 0001:000586ec   684 0001:000586ee   668 0001:000586f1
   687 0001:000586fd   689 0001:00058704   691 0001:00058709   692 0001:00058717
   694 0001:0005871d   695 0001:0005871f   698 0001:0005872a   604 0001:0005872f
   706 0001:00058731   944 0001:0005ee39   943 0001:0005ee39   945 0001:0005ee3b

Line numbers for E:\VS.NET\Vc7\lib\LIBC.lib(f:\vs70builds\9466\vc\crtbld\crt\src\rand.c) segment .text

    79 0001:000573bb    70 0001:000573bb    81 0001:000573dd

Line numbers for E:\VS.NET\Vc7\lib\LIBC.lib(f:\vs70builds\9466\vc\crtbld\crt\src\qsort.c) segment .text

   292 0001:00058750   286 0001:00058750   295 0001:00058762   315 0001:0005876b
   297 0001:00058770   298 0001:0005877d   295 0001:0005877f   305 0001:00058789
   315 0001:00058799   305 0001:000587a0   309 0001:000587b2   315 0001:000587bc
    75 0001:000587c0    65 0001:000587c0    80 0001:000587e6    81 0001:000587ed
    88 0001:00058805    91 0001:0005880e    92 0001:00058813   245 0001:00058827
   246 0001:00058830   247 0001:00058836   248 0001:0005883a   104 0001:0005884f
   107 0001:00058858   108 0001:00058868   110 0001:0005888a   111 0001:0005889a
   113 0001:000588bc   114 0001:000588cc   123 0001:000588ea   253 0001:000588ee
   137 0001:000588f0   139 0001:000588f4   140 0001:000588f6   142 0001:0005890a
   253 0001:0005890e   145 0001:00058910   253 0001:0005892a   152 0001:00058930
   153 0001:00058932   158 0001:00058946   165 0001:0005894a   253 0001:0005895d
   165 0001:00058960   171 0001:0005897d   172 0001:00058985   176 0001:00058987
   191 0001:0005898c   192 0001:0005898e   194 0001:00058992   195 0001:00058994
   197 0001:000589a8   253 0001:000589ac   200 0001:000589b0   216 0001:000589ce
   217 0001:000589de   218 0001:000589e2   219 0001:000589ea   220 0001:000589f1
   223 0001:000589f6   225 0001:000589fe   229 0001:00058a0b   230 0001:00058a0f
   231 0001:00058a17   232 0001:00058a1e   235 0001:00058a23   237 0001:00058a2b
   253 0001:00058a3c

Line numbers for E:\VS.NET\Vc7\lib\LIBC.lib(f:\vs70builds\9466\vc\crtbld\crt\src\onexit.c) segment .text

    89 0001:000579ad   119 0001:000579ae   125 0001:000579d2   131 0001:000579ec
   152 0001:00057a02   141 0001:00057a03   142 0001:00057a0f   149 0001:00057a20
   152 0001:00057a2e   157 0001:00057a2f   158 0001:00057a2f   159 0001:00057a40
   198 0001:00057a41   197 0001:00057a41   203 0001:00057a55   209 0001:00057a58
   205 0001:00057a59   206 0001:00057a5c   208 0001:00057a66   209 0001:00057a68

Line numbers for E:\VS.NET\Vc7\lib\LIBC.lib(f:\vs70builds\9466\vc\crtbld\crt\src\inittime.c) segment .text

   105 0001:0005e2f8   114 0001:0005e2fd   115 0001:0005e315   177 0001:0005e318
   119 0001:0005e31c   120 0001:0005e32e   121 0001:0005e33f   122 0001:0005e350
   123 0001:0005e364   124 0001:0005e375   125 0001:0005e384   127 0001:0005e394
   128 0001:0005e3a8   129 0001:0005e3b9   130 0001:0005e3ca   131 0001:0005e3db
   132 0001:0005e3ef   133 0001:0005e400   135 0001:0005e411   136 0001:0005e422
   137 0001:0005e436   138 0001:0005e447   139 0001:0005e458   140 0001:0005e469
   141 0001:0005e47d   142 0001:0005e48e   143 0001:0005e49f   144 0001:0005e4b0
   145 0001:0005e4c4   146 0001:0005e4d5   148 0001:0005e4e6   149 0001:0005e4f7
   150 0001:0005e50b   151 0001:0005e51c   152 0001:0005e52d   153 0001:0005e53e
   154 0001:0005e552   155 0001:0005e566   156 0001:0005e57a   157 0001:0005e58e
   158 0001:0005e5a5   159 0001:0005e5b9   161 0001:0005e5cd   162 0001:0005e5e1
   167 0001:0005e5f8   168 0001:0005e60c   170 0001:0005e620   172 0001:0005e635
   174 0001:0005e653   176 0001:0005e659   177 0001:0005e65d   186 0001:0005e65f
   187 0001:0005e660   190 0001:0005e66c   191 0001:0005e674   192 0001:0005e67c
   193 0001:0005e684   194 0001:0005e68c   195 0001:0005e694   196 0001:0005e69c
   198 0001:0005e6a3   199 0001:0005e6ab   200 0001:0005e6b3   201 0001:0005e6bb
   202 0001:0005e6c3   203 0001:0005e6cb   204 0001:0005e6d3   206 0001:0005e6db
   207 0001:0005e6e3   208 0001:0005e6ee   209 0001:0005e6f6   210 0001:0005e6fe
   211 0001:0005e706   212 0001:0005e70e   213 0001:0005e716   214 0001:0005e71e
   215 0001:0005e726   216 0001:0005e72e   217 0001:0005e736   219 0001:0005e73e
   220 0001:0005e746   221 0001:0005e74e   222 0001:0005e756   223 0001:0005e75e
   224 0001:0005e766   225 0001:0005e771   226 0001:0005e77c   227 0001:0005e787
   228 0001:0005e792   229 0001:0005e79d   230 0001:0005e7a8   232 0001:0005e7b3
   233 0001:0005e7be   235 0001:0005e7c9   236 0001:0005e7d4   237 0001:0005e7df
   239 0001:0005e7ee    65 0001:0005e7ef    61 0001:0005e7ef    69 0001:0005e7f9
    70 0001:0005e80d    96 0001:0005e80f    72 0001:0005e810    74 0001:0005e819
    75 0001:0005e81f    76 0001:0005e825    81 0001:0005e82a    82 0001:0005e83b
    84 0001:0005e846    85 0001:0005e84c    90 0001:0005e84e    91 0001:0005e863
    93 0001:0005e86e    94 0001:0005e875    91 0001:0005e877    96 0001:0005e87a

Line numbers for E:\VS.NET\Vc7\lib\LIBC.lib(f:\vs70builds\9466\vc\crtbld\crt\src\initnum.c) segment .text

   268 0001:0005e87b   269 0001:0005e87c   276 0001:0005e884   278 0001:0005e88e
   284 0001:0005e895   286 0001:0005e8a0   292 0001:0005e8a7   294 0001:0005e8b2
   295 0001:0005e8ba    95 0001:0005e8bb   104 0001:0005e8bd   237 0001:0005e8d1
   244 0001:0005e8dc   246 0001:0005e8e7   247 0001:0005e8ec   110 0001:0005e8f7
   111 0001:0005e908   116 0001:0005e910   130 0001:0005e91d   149 0001:0005e929
   152 0001:0005e930   154 0001:0005e93d   156 0001:0005e94b   158 0001:0005e960
   160 0001:0005e962   161 0001:0005e968   165 0001:0005e96e   168 0001:0005e976
   170 0001:0005e991   168 0001:0005e993   180 0001:0005e9aa   181 0001:0005e9b2
   182 0001:0005e9ba   202 0001:0005e9c2   209 0001:0005e9cd   212 0001:0005e9d8
   254 0001:0005e9e4   255 0001:0005e9ee   257 0001:0005e9f8   259 0001:0005ea00

Line numbers for E:\VS.NET\Vc7\lib\LIBC.lib(f:\vs70builds\9466\vc\crtbld\crt\src\initmon.c) segment .text

   280 0001:0005ea01   281 0001:0005ea02   288 0001:0005ea0a   290 0001:0005ea15
   296 0001:0005ea1c   298 0001:0005ea27   304 0001:0005ea2e   306 0001:0005ea39
   312 0001:0005ea40   314 0001:0005ea4b   320 0001:0005ea52   322 0001:0005ea5d
   328 0001:0005ea64   330 0001:0005ea6f   336 0001:0005ea76   338 0001:0005ea81
   339 0001:0005ea89    81 0001:0005ea8a    90 0001:0005ea8c   225 0001:0005eaa0
   226 0001:0005eaab   228 0001:0005eab6   229 0001:0005eac0    96 0001:0005eacb
    97 0001:0005eada   111 0001:0005eae0   130 0001:0005eaec   135 0001:0005eaf3
   137 0001:0005eb03   139 0001:0005eb13   141 0001:0005eb23   143 0001:0005eb36
   146 0001:0005eb46   148 0001:0005eb56   151 0001:0005eb66   153 0001:0005eb78
   155 0001:0005eb87   157 0001:0005eb96   159 0001:0005eba5   161 0001:0005ebb7
   163 0001:0005ebc6   165 0001:0005ebd5   167 0001:0005ebe7   168 0001:0005ebe9
   169 0001:0005ebef   173 0001:0005ebf7   176 0001:0005ebff   178 0001:0005ec1a
   176 0001:0005ec1c   188 0001:0005ec32   200 0001:0005ec3e   201 0001:0005ec48
   202 0001:0005ec53   208 0001:0005ec5e   209 0001:0005ec6f   211 0001:0005ec7a
   233 0001:0005ec82   234 0001:0005ec88

Line numbers for E:\VS.NET\Vc7\lib\LIBC.lib(f:\vs70builds\9466\vc\crtbld\crt\src\inithelp.c) segment .text

    66 0001:000643ff    67 0001:00064410    72 0001:00064420    77 0001:00064422
    79 0001:0006444c    85 0001:00064457    89 0001:0006446e    95 0001:0006447b
    99 0001:00064499   110 0001:000644a9   111 0001:000644ae   137 0001:000644b5
   138 0001:000644b8   102 0001:000644c8   104 0001:000644d3   105 0001:000644d8
   107 0001:000644df   114 0001:000644e1   122 0001:000644e7   123 0001:00064501
   125 0001:00064503   130 0001:00064509   131 0001:00064534   135 0001:0006454a

Line numbers for E:\VS.NET\Vc7\lib\LIBC.lib(f:\vs70builds\9466\vc\crtbld\crt\src\initctyp.c) segment .text

    71 0001:0005ec89    80 0001:0005ec98    89 0001:0005ec9a    91 0001:0005ecac
    96 0001:0005ecb6   107 0001:0005ecd9   109 0001:0005ece8   114 0001:0005ecf4
   123 0001:0005ed08   124 0001:0005ed0f   126 0001:0005ed1a   129 0001:0005ed32
   132 0001:0005ed3c   135 0001:0005ed40   137 0001:0005ed4a   139 0001:0005ed58
   140 0001:0005ed61   139 0001:0005ed6b   151 0001:0005ed76   153 0001:0005ed8f
   158 0001:0005ed95   160 0001:0005ed9e   162 0001:0005edac   163 0001:0005edbb
   162 0001:0005edca   160 0001:0005edcd   176 0001:0005edd4   177 0001:0005ede3
   179 0001:0005edea   182 0001:0005edf0   183 0001:0005edfa   189 0001:0005edff
   200 0001:0005ee0d   207 0001:0005ee23   209 0001:0005ee29   211 0001:0005ee2b

Line numbers for E:\VS.NET\Vc7\lib\LIBC.lib(f:\vs70builds\9466\vc\crtbld\crt\src\initcoll.c) segment .text

    42 0001:0005ee39    41 0001:0005ee39    43 0001:0005ee3b

Line numbers for E:\VS.NET\Vc7\lib\LIBC.lib(f:\vs70builds\9466\vc\crtbld\crt\src\getqloc.c) segment .text

   396 0001:0005f2bd   398 0001:0005f2c0   399 0001:0005f2c3   402 0001:0005f2c6
   404 0001:0005f2d1   405 0001:0005f2db   407 0001:0005f2ef   408 0001:0005f2f5
   409 0001:0005f2fd   410 0001:0005f301   411 0001:0005f305   412 0001:0005f307
   402 0001:0005f30a   415 0001:0005f311   416 0001:0005f31b   807 0001:0005f31d
   806 0001:0005f31d   808 0001:0005f326   809 0001:0005f336   829 0001:0005f337
   832 0001:0005f348   840 0001:0005f365   844 0001:0005f376   846 0001:0005f37e
   836 0001:0005f380   838 0001:0005f39b   850 0001:0005f39e   851 0001:0005f3a5
   875 0001:0005f3b3   871 0001:0005f3b3   877 0001:0005f3b5   880 0001:0005f3ca
   881 0001:0005f3cd   878 0001:0005f3ce   881 0001:0005f3d0   945 0001:0005f3d1
   948 0001:0005f3d7   955 0001:0005f3dc   994 0001:0005f3f7   995 0001:0005f3f9
   996 0001:0005f3fc   997 0001:0005f3fe   952 0001:0005f401  1000 0001:0005f405
  1001 0001:0005f418   959 0001:0005f41c   979 0001:0005f43f   981 0001:0005f447
   970 0001:0005f449   971 0001:0005f452   964 0001:0005f454   965 0001:0005f45d
   976 0001:0005f45f   977 0001:0005f467   973 0001:0005f469   974 0001:0005f471
   967 0001:0005f473   968 0001:0005f47b   961 0001:0005f47d   983 0001:0005f485
   989 0001:0005f496   990 0001:0005f4a4   991 0001:0005f4a9  1022 0001:0005f4b4
  1020 0001:0005f4b4  1024 0001:0005f4b6  1026 0001:0005f4b9  1027 0001:0005f4c3
  1028 0001:0005f4c6  1029 0001:0005f4d2  1030 0001:0005f4d5  1034 0001:0005f4e8
  1054 0001:0005f4e9  1053 0001:0005f4e9  1057 0001:0005f4eb  1058 0001:0005f4ee
  1060 0001:0005f502  1062 0001:0005f503  1065 0001:0005f505   763 0001:0005f506
   764 0001:0005f514   770 0001:0005f522   773 0001:0005f547   774 0001:0005f54d
   776 0001:0005f550   779 0001:0005f565   783 0001:0005f570   786 0001:0005f583
   787 0001:0005f590   903 0001:0005f5a0   909 0001:0005f5ae   910 0001:0005f5cf
   912 0001:0005f5d1   916 0001:0005f5de   917 0001:0005f603   919 0001:0005f607
   920 0001:0005f60a   487 0001:0005f617   488 0001:0005f625   494 0001:0005f633
   497 0001:0005f658   498 0001:0005f65e   500 0001:0005f666   505 0001:0005f689
   508 0001:0005f6a8   509 0001:0005f6af   511 0001:0005f6b7   514 0001:0005f6cc
   515 0001:0005f6d5   519 0001:0005f6db   522 0001:0005f6e6   529 0001:0005f706
   530 0001:0005f727   534 0001:0005f72d   537 0001:0005f738   540 0001:0005f743
   541 0001:0005f74a   548 0001:0005f750   553 0001:0005f765   557 0001:0005f782
   560 0001:0005f788   565 0001:0005f798   575 0001:0005f7ac   578 0001:0005f7ca
   587 0001:0005f7cc   597 0001:0005f7ce   600 0001:0005f7f6   604 0001:0005f803
   605 0001:0005f80a   606 0001:0005f812   613 0001:0005f818   614 0001:0005f827
   671 0001:0005f837   672 0001:0005f845   678 0001:0005f853   681 0001:0005f878
   682 0001:0005f87e   685 0001:0005f881   689 0001:0005f896   696 0001:0005f8a0
   697 0001:0005f8a2   700 0001:0005f8cb   704 0001:0005f8d8   708 0001:0005f8eb
   709 0001:0005f8f8   732 0001:0005f908   733 0001:0005f908   735 0001:0005f91b
   739 0001:0005f92e   740 0001:0005f937   741 0001:0005f93e   444 0001:0005f93f
   442 0001:0005f93f   445 0001:0005f94a   446 0001:0005f969   447 0001:0005f971
   449 0001:0005f99d   454 0001:0005f9aa   455 0001:0005f9bd   456 0001:0005f9c4
   640 0001:0005f9c5   638 0001:0005f9c5   641 0001:0005f9de   643 0001:0005f9fc
   647 0001:0005fa09   648 0001:0005fa12   649 0001:0005fa19   258 0001:0005fa1a
   263 0001:0005fa1b   266 0001:0005fa26   269 0001:0005fa45   274 0001:0005fa4b
   279 0001:0005fa51   280 0001:0005fa54   283 0001:0005fa69   287 0001:0005fa88
   289 0001:0005fa96   292 0001:0005fa9e   294 0001:0005faa3   297 0001:0005faa5
   300 0001:0005faaa   305 0001:0005fab2   307 0001:0005faca   309 0001:0005fad7
   311 0001:0005fadc   313 0001:0005fade   318 0001:0005fae3   320 0001:0005fae5
   323 0001:0005faed   325 0001:0005faf2   328 0001:0005faf4   334 0001:0005faf9
   335 0001:0005fb01   338 0001:0005fb09   341 0001:0005fb16   345 0001:0005fb30
   346 0001:0005fb40   349 0001:0005fb46   352 0001:0005fb54   353 0001:0005fb62
   357 0001:0005fb66   361 0001:0005fb6e   362 0001:0005fb75   363 0001:0005fb82
   364 0001:0005fb84   365 0001:0005fb95   367 0001:0005fb97   368 0001:0005fbb0
   369 0001:0005fbb2   371 0001:0005fbc4   342 0001:0005fbc9   372 0001:0005fbce

Line numbers for E:\VS.NET\Vc7\lib\LIBC.lib(f:\vs70builds\9466\vc\crtbld\crt\src\crtmbox.c) segment .text

    36 0001:00063f45    49 0001:00063f4c    55 0001:00063f4e    57 0001:00063f58
    61 0001:00063f65    65 0001:00063f84    68 0001:00063f8c    70 0001:00063f99
    73 0001:00063fa7    75 0001:00063faf    77 0001:00063fb8    91 0001:00063fc5
    96 0001:00063fce   104 0001:00063ff1   105 0001:00063ffa   106 0001:00063ffe
    62 0001:00064000   107 0001:00064004   109 0001:00064008   111 0001:0006400a
   112 0001:00064013   114 0001:00064017   115 0001:00064024   118 0001:00064029
   119 0001:0006403c

Line numbers for E:\VS.NET\Vc7\lib\LIBC.lib(f:\vs70builds\9466\vc\crtbld\crt\src\abort.c) segment .text

    44 0001:000640f4    43 0001:000640f4    48 0001:000640fb    54 0001:00064104

Line numbers for E:\VS.NET\Vc7\lib\LIBC.lib(f:\vs70builds\9466\vc\crtbld\crt\src\a_str.c) segment .text

    64 0001:0005fc88    73 0001:0005fc94    77 0001:0005fc9e    78 0001:0005fcb6
    80 0001:0005fcbc    81 0001:0005fcc9    86 0001:0005fcd3   118 0001:0005fce9
   123 0001:0005fcf2   124 0001:0005fcf5   140 0001:0005fcf8   141 0001:0005fcfd
   152 0001:0005fd05   153 0001:0005fd2d   156 0001:0005fd33   157 0001:0005fd37
   158 0001:0005fd4f   160 0001:0005fd61   161 0001:0005fd68   162 0001:0005fd6d
   165 0001:0005fd76   167 0001:0005fd7a   168 0001:0005fd88   169 0001:0005fd8a
   178 0001:0005fd91   183 0001:0005fda8   185 0001:0005fdb9   186 0001:0005fdbf
   188 0001:0005fdc6    92 0001:0005fdcb    93 0001:0005fdd2    94 0001:0005fdd8
    95 0001:0005fddf    97 0001:0005fde5    98 0001:0005fdf1   102 0001:0005fdf5
   104 0001:0005fdf9   105 0001:0005fe10   106 0001:0005fe12   107 0001:0005fe14
   110 0001:0005fe17   111 0001:0005fe2c   112 0001:0005fe30   113 0001:0005fe37
   192 0001:0005fe39

Line numbers for E:\VS.NET\Vc7\lib\LIBC.lib(f:\vs70builds\9466\vc\crtbld\crt\src\a_map.c) segment .text

    96 0001:00060ece   105 0001:00060eda   106 0001:00060ee4   107 0001:00060eff
   108 0001:00060f05   109 0001:00060f12   116 0001:00060f1c   117 0001:00060f21
   121 0001:00060f3c   208 0001:00060f52   210 0001:00060f5b   215 0001:00060f60
   216 0001:00060f63   232 0001:00060f66   233 0001:00060f6b   244 0001:00060f73
   245 0001:00060f9b   248 0001:00060fa1   249 0001:00060fa8   251 0001:00060fc4
   252 0001:00060fcb   253 0001:00060fd0   256 0001:00060fdf   258 0001:00060fe4
   259 0001:00060ff3   260 0001:00060ff9   269 0001:00061000   278 0001:0006101d
   281 0001:0006103c   284 0001:00061042   286 0001:0006104b   295 0001:00061054
   299 0001:0006106a   305 0001:0006106f   306 0001:00061076   308 0001:00061092
   309 0001:00061099   310 0001:0006109e   313 0001:000610ad   315 0001:000610b2
   317 0001:000610c3   326 0001:000610ca   339 0001:000610e2   329 0001:000610e4
   339 0001:000610e9   342 0001:000610eb   352 0001:000610ed   358 0001:00061103
   359 0001:00061108   361 0001:00061111   362 0001:00061116   364 0001:0006111f
   122 0001:00061126   123 0001:00061129   125 0001:0006112b   129 0001:0006112e
   130 0001:00061133   131 0001:0006113b   132 0001:00061140   134 0001:00061148
   135 0001:00061159   141 0001:00061160   143 0001:00061169   144 0001:00061181
   145 0001:00061183   152 0001:00061185   157 0001:000611a4   158 0001:000611a7
   159 0001:000611ba   160 0001:000611c7   161 0001:000611ce   162 0001:000611d3
   165 0001:000611db   166 0001:000611df   169 0001:000611ec   171 0001:000611ee
   172 0001:000611fb   179 0001:00061202   181 0001:0006121f   182 0001:00061221
   188 0001:00061223   194 0001:00061249   195 0001:0006124e   196 0001:00061255
   199 0001:00061257   201 0001:00061271   202 0001:00061276   203 0001:0006127f
   368 0001:00061281

Line numbers for E:\VS.NET\Vc7\lib\LIBC.lib(f:\vs70builds\9466\vc\crtbld\crt\src\a_loc.c) segment .text

    57 0001:0006587d    65 0001:00065889    67 0001:00065893    68 0001:000658a4
    70 0001:000658aa    71 0001:000658b7    76 0001:000658c1    83 0001:000658d7
    85 0001:000658dc    88 0001:000658df    94 0001:000658e2    95 0001:000658e7
    98 0001:000658ef    99 0001:00065906   102 0001:0006590d   103 0001:00065910
   105 0001:0006592c   106 0001:00065933   107 0001:00065938   110 0001:00065943
   112 0001:00065947   113 0001:00065955   114 0001:00065957   118 0001:0006595e
   132 0001:00065970   122 0001:00065972   132 0001:00065977   134 0001:00065979
   143 0001:0006597b   147 0001:00065991   148 0001:00065996   150 0001:0006599d
    78 0001:000659a2   154 0001:000659b4

Line numbers for E:\VS.NET\Vc7\lib\LIBC.lib(f:\vs70builds\9466\vc\crtbld\crt\src\a_env.c) segment .text

    43 0001:0005ca76    57 0001:0005ca78    59 0001:0005ca92    60 0001:0005ca9a
    62 0001:0005caa4    63 0001:0005cab1    68 0001:0005cabf    71 0001:0005cac4
    72 0001:0005cac8    73 0001:0005cace    77 0001:0005cad0    78 0001:0005cad7
    79 0001:0005cade    93 0001:0005cae5    97 0001:0005cb00   111 0001:0005cb13
   113 0001:0005cb24   114 0001:0005cb2e   117 0001:0005cb36   118 0001:0005cb3d
   123 0001:0005cb41   152 0001:0005cb49   126 0001:0005cb4d   127 0001:0005cb57
   133 0001:0005cb59   134 0001:0005cb5d   135 0001:0005cb62   138 0001:0005cb67
   140 0001:0005cb6c   145 0001:0005cb7d   147 0001:0005cb88   149 0001:0005cb8f
   153 0001:0005cb95

Line numbers for E:\VS.NET\Vc7\lib\LIBC.lib(f:\vs70builds\9466\vc\crtbld\crt\src\secfail.c) segment .text

    75 0001:0005ab0a    77 0001:0005ab24    78 0001:0005ab2f    79 0001:0005ab32
    81 0001:0005ab45    89 0001:0005ab4c    97 0001:0005ab4e   103 0001:0005ab54
   104 0001:0005ab59   105 0001:0005ab60   106 0001:0005ab65   112 0001:0005ab67
   113 0001:0005ab6c   114 0001:0005ab73   123 0001:0005ab78   124 0001:0005ab7b
   125 0001:0005ab92   127 0001:0005aba5   130 0001:0005abab   132 0001:0005abc0
   133 0001:0005abd9   138 0001:0005abe9   140 0001:0005ac04   141 0001:0005ac0b
   142 0001:0005ac17   143 0001:0005ac22   144 0001:0005ac29   145 0001:0005ac30
   150 0001:0005ac39   153 0001:0005ac4c

Line numbers for E:\VS.NET\Vc7\lib\LIBC.lib(f:\vs70builds\9466\vc\crtbld\crt\src\seccook.c) segment .text

   119 0001:00056c6b   121 0001:00056c77   122 0001:00056c7b   124 0001:00056c88
   128 0001:00056c93   105 0001:00056c9c   108 0001:00056c9c   109 0001:00056ca2
   110 0001:00056ca4   112 0001:00056ca5

Line numbers for E:\VS.NET\Vc7\lib\LIBC.lib(f:\vs70builds\9466\vc\crtbld\crt\src\seccinit.c) segment .text

    49 0001:0005aab4    60 0001:0005aabb    63 0001:0005aac5    68 0001:0005aacb
    69 0001:0005aad3    70 0001:0005aadb    72 0001:0005aae3    86 0001:0005aaed
    87 0001:0005ab08

Line numbers for E:\VS.NET\Vc7\lib\LIBC.lib(f:\vs70builds\9466\vc\crtbld\crt\src\mbsrchr.c) segment .text

    45 0001:000573de    46 0001:000573e1    56 0001:000573e3    81 0001:000573eb
    58 0001:000573ec    61 0001:000573f6    65 0001:000573fb    67 0001:00057407
    68 0001:0005740e    78 0001:0005741b    71 0001:0005741e    75 0001:00057422
    76 0001:00057429    78 0001:0005742b    81 0001:00057432

Line numbers for E:\VS.NET\Vc7\lib\LIBC.lib(f:\vs70builds\9466\vc\crtbld\crt\src\mbsnbcpy.c) segment .text

    46 0001:000570d2    57 0001:000570d5    59 0001:000570e5    61 0001:000570f6
    67 0001:00057101    69 0001:0005710e    70 0001:00057114    75 0001:00057118
    76 0001:00057123    89 0001:00057126    92 0001:0005713b    93 0001:0005713f
    82 0001:00057141    61 0001:00057147    82 0001:0005714b    71 0001:0005714d
    72 0001:00057151

Line numbers for E:\VS.NET\Vc7\lib\LIBC.lib(f:\vs70builds\9466\vc\crtbld\crt\src\mbctype.c) segment .text

   269 0001:0005b58c   268 0001:0005b58c   286 0001:0005b5a0   287 0001:0005b5a2
   282 0001:0005b5a3   287 0001:0005b5a8   279 0001:0005b5a9   287 0001:0005b5ae
   276 0001:0005b5af   287 0001:0005b5b4   273 0001:0005b5b5   287 0001:0005b5ba
   304 0001:0005b5bb   309 0001:0005b5bc   312 0001:0005b5c9   315 0001:0005b5d0
   317 0001:0005b5d5   320 0001:0005b5da   321 0001:0005b5e3   337 0001:0005b5e4
   347 0001:0005b5f9   350 0001:0005b60c   351 0001:0005b619   355 0001:0005b625
   356 0001:0005b638   362 0001:0005b669   367 0001:0005b68d   372 0001:0005b6b1
   377 0001:0005b6dc   378 0001:0005b6de   380 0001:0005b6eb   381 0001:0005b6f2
   383 0001:0005b6ff   385 0001:0005b706   386 0001:0005b70d   388 0001:0005b714
   389 0001:0005b716   377 0001:0005b71d   391 0001:0005b722   395 0001:0005b724
   396 0001:0005b726   398 0001:0005b730   399 0001:0005b737   401 0001:0005b742
   403 0001:0005b74e   404 0001:0005b755   406 0001:0005b75a   407 0001:0005b75c
   395 0001:0005b763   409 0001:0005b768   502 0001:0005b776   593 0001:0005b786
   596 0001:0005b7dc   599 0001:0005b7e2   604 0001:0005b7e8   608 0001:0005b7ea
   614 0001:0005b7f0   617 0001:0005b7f4   652 0001:0005b807   657 0001:0005b81b
   662 0001:0005b828   665 0001:0005b840   667 0001:0005b857   621 0001:0005b863
   624 0001:0005b86f   629 0001:0005b87f   632 0001:0005b88c   633 0001:0005b89f
   629 0001:0005b8aa   624 0001:0005b8b2   637 0001:0005b8be   639 0001:0005b8c6
   640 0001:0005b8d0   642 0001:0005b8db   646 0001:0005b8e8   668 0001:0005b8ea
   667 0001:0005b8f2   672 0001:0005b902   673 0001:0005b904   676 0001:0005b913
   679 0001:0005b91f   681 0001:0005b925   683 0001:0005b927   686 0001:0005b92d
   690 0001:0005b937   695 0001:0005b939   697 0001:0005b941   698 0001:0005b946
   699 0001:0005b94b   703 0001:0005b94f   704 0001:0005b952   743 0001:0005b962
   753 0001:0005b962   754 0001:0005b96b   755 0001:0005b973   760 0001:0005b97d
   761 0001:0005b97f

Line numbers for E:\VS.NET\Vc7\lib\LIBC.lib(f:\vs70builds\9466\vc\crtbld\crt\src\ismbspc.c) segment .text

    48 0001:0006128a    49 0001:0006128e    54 0001:00061299    63 0001:000612a6
    70 0001:000612ab    72 0001:000612bb   101 0001:000612bd    91 0001:000612bf
    92 0001:000612e3    95 0001:000612e5   101 0001:000612f5   100 0001:000612f7
   101 0001:0006130a   100 0001:0006130c   101 0001:00061318

Line numbers for E:\VS.NET\Vc7\lib\LIBC.lib(f:\vs70builds\9466\vc\crtbld\crt\src\ismbbyte.c) segment .text

   150 0001:000643bd   149 0001:000643bd   154 0001:000643c2   155 0001:000643e9
   154 0001:000643ea   155 0001:000643ed   124 0001:000643ee   123 0001:000643ee
   125 0001:000643fe

Line numbers for E:\VS.NET\Vc7\lib\LIBC.lib(f:\vs70builds\9466\vc\crtbld\crt\src\write.c) segment .text

   116 0001:00062f6a   127 0001:00062f7b   137 0001:00062fb5   139 0001:00062fb7
   140 0001:00062fc2   143 0001:00062fc9   147 0001:00062fcd   155 0001:00062fda
   161 0001:00062fe8   162 0001:00062ffa   166 0001:00063006   167 0001:0006300b
   168 0001:00063014   169 0001:00063019   170 0001:0006301c   172 0001:00063024
   180 0001:00063030   182 0001:00063057   183 0001:0006305d   187 0001:00063070
   192 0001:00063079   207 0001:0006307b   211 0001:00063082   213 0001:00063087
   217 0001:0006308f   219 0001:00063094   198 0001:00063096   201 0001:000630ad
   203 0001:000630b6   204 0001:000630b8   220 0001:000630c3   221 0001:000630cc
   223 0001:000630ce   224 0001:000630dd   226 0001:000630e3   227 0001:000630ed
   228 0001:000630f3   233 0001:000630f5   131 0001:000630fa   130 0001:00063101
   132 0001:0006310b   234 0001:0006310e

Line numbers for E:\VS.NET\Vc7\lib\LIBC.lib(f:\vs70builds\9466\vc\crtbld\crt\src\setmode.c) segment .text

   112 0001:00065ce5   108 0001:00065ce5   120 0001:00065d0c   122 0001:00065d10
   123 0001:00065d20   124 0001:00065d23   125 0001:00065d2f   131 0001:00065d32
   133 0001:00065d40   127 0001:00065d41   128 0001:00065d4b   114 0001:00065d4d
   115 0001:00065d57   133 0001:00065d5b

Line numbers for E:\VS.NET\Vc7\lib\LIBC.lib(f:\vs70builds\9466\vc\crtbld\crt\src\read.c) segment .text

   113 0001:00062a97   124 0001:00062a9f   134 0001:00062ad1   137 0001:00062ad5
   142 0001:00062ae5   147 0001:00062af1   148 0001:00062af6   154 0001:00062b07
   165 0001:00062b20   168 0001:00062b2d   169 0001:00062b33   171 0001:00062b38
   172 0001:00062b3d   175 0001:00062b44   176 0001:00062b4b   182 0001:00062b50
   186 0001:00062b66   187 0001:00062b6f   188 0001:00062b71   189 0001:00062b73
   192 0001:00062b77   193 0001:00062b7a   194 0001:00062b8d   200 0001:00062b9a
   201 0001:00062b9e   202 0001:00062ba4   204 0001:00062ba9   205 0001:00062bb3
   206 0001:00062bb8   209 0001:00062bbc   210 0001:00062bbe   212 0001:00062bc1
   216 0001:00062bc3   220 0001:00062bc6   221 0001:00062be1   223 0001:00062be7
   239 0001:00062bf1   241 0001:00062bfa   243 0001:00062bff   244 0001:00062c01
   245 0001:00062c04   248 0001:00062c0a   250 0001:00062c0c   253 0001:00062c17
   255 0001:00062c1a   257 0001:00062c1c   258 0001:00062c2b   225 0001:00062c31
   193 0001:00062c35   194 0001:00062c41   196 0001:00062c43   197 0001:00062c4f
   269 0001:00062c53   272 0001:00062c59   128 0001:00062c5e   127 0001:00062c65
   129 0001:00062c6f   273 0001:00062c75

Line numbers for E:\VS.NET\Vc7\lib\LIBC.lib(f:\vs70builds\9466\vc\crtbld\crt\src\osfinfo.c) segment .text

    49 0001:00064d25    50 0001:00064d29    68 0001:00064d2c    74 0001:00064d3a
    80 0001:00064d40    82 0001:00064d48    80 0001:00064d55   124 0001:00064d59
   115 0001:00064d5b   116 0001:00064d5e   124 0001:00064d67    68 0001:00064d6c
   124 0001:00064d7b   132 0001:00064d7d   139 0001:00064d88   141 0001:00064d98
   142 0001:00064da0   143 0001:00064da4   144 0001:00064da7   141 0001:00064db2
   154 0001:00064db6   176 0001:00064dbe   177 0001:00064dc1   206 0001:00064dc2
   203 0001:00064dc2   207 0001:00064dec   208 0001:00064dfa   216 0001:00064e05
   217 0001:00064e08   213 0001:00064e0a   214 0001:00064e0d   210 0001:00064e0f
   221 0001:00064e18   222 0001:00064e1d   225 0001:00064e22   226 0001:00064e33
   228 0001:00064e38   253 0001:00064e39   256 0001:00064e39   258 0001:00064e6a
   259 0001:00064e73   267 0001:00064e7f   268 0001:00064e82   264 0001:00064e84
   265 0001:00064e87   261 0001:00064e89   272 0001:00064e92   273 0001:00064e98
   276 0001:00064e9c   277 0001:00064ead   279 0001:00064eb2   302 0001:00064eb3
   303 0001:00064eb3   304 0001:00064ed7   310 0001:00064ed9   307 0001:00064eda
   308 0001:00064eeb   310 0001:00064eee

Line numbers for E:\VS.NET\Vc7\lib\LIBC.lib(f:\vs70builds\9466\vc\crtbld\crt\src\open.c) segment .text

   163 0001:00063484   221 0001:0006348a   222 0001:0006349f   223 0001:000634a2
   225 0001:000634a6   227 0001:000634a8   231 0001:000634b3   232 0001:000634bc
   234 0001:000634bf   235 0001:000634c9   240 0001:000634cd   254 0001:000634dc
   249 0001:000634de   250 0001:000634e5   246 0001:000634e7   247 0001:000634ee
   243 0001:000634f0   260 0001:000634f7   279 0001:0006350e   280 0001:00063518
   281 0001:0006351e   275 0001:00063526   276 0001:00063529   271 0001:0006352b
   272 0001:00063532   267 0001:00063534   268 0001:0006353b   263 0001:0006353d
   287 0001:00063540   308 0001:00063570   309 0001:00063577   294 0001:00063579
   295 0001:00063580   290 0001:00063582   291 0001:00063585   287 0001:00063587
   313 0001:00063599   314 0001:000635a3   315 0001:000635a9   304 0001:000635b1
   305 0001:000635b8   299 0001:000635ba   323 0001:000635c1   333 0001:000635cd
   468 0001:000635d5   340 0001:000635df   342 0001:000635e3   343 0001:000635ed
   344 0001:000635f6   350 0001:000635fa   351 0001:000635ff   356 0001:00063601
   357 0001:00063605   358 0001:0006360b   359 0001:00063611   366 0001:00063617
   368 0001:00063625   369 0001:00063636   387 0001:0006363d   395 0001:0006365a
   399 0001:0006365c   400 0001:00063667   401 0001:0006366e   402 0001:0006367b
   406 0001:0006367d   407 0001:00063682   408 0001:00063686   409 0001:0006368d
   414 0001:00063691   420 0001:00063698   421 0001:0006369d   424 0001:000636b5
   431 0001:000636cc   434 0001:000636e1   465 0001:000636ed   466 0001:000636f9
